ARM GAS  /var/folders/b1/22c950295gx2kqj80tvj8wqc0000gn/T//cc32JNfn.s 			page 1


   1              		.cpu cortex-m4
   2              		.arch armv7e-m
   3              		.fpu fpv4-sp-d16
   4              		.eabi_attribute 27, 1
   5              		.eabi_attribute 28, 1
   6              		.eabi_attribute 20, 1
   7              		.eabi_attribute 21, 1
   8              		.eabi_attribute 23, 3
   9              		.eabi_attribute 24, 1
  10              		.eabi_attribute 25, 1
  11              		.eabi_attribute 26, 1
  12              		.eabi_attribute 30, 4
  13              		.eabi_attribute 34, 1
  14              		.eabi_attribute 18, 4
  15              		.file	"Dac.cpp"
  16              		.text
  17              		.global	__aeabi_i2d
  18              		.global	__aeabi_dmul
  19              		.global	__aeabi_d2f
  20              		.section	.text._ZN3DacC2Ev,"ax",%progbits
  21              		.align	1
  22              		.global	_ZN3DacC2Ev
  23              		.syntax unified
  24              		.thumb
  25              		.thumb_func
  27              	_ZN3DacC2Ev:
  28              		.fnstart
  29              	.LFB1036:
  30              		@ args = 0, pretend = 0, frame = 0
  31              		@ frame_needed = 0, uses_anonymous_args = 0
  32 0000 2DE97043 		push	{r4, r5, r6, r8, r9, lr}
  33 0004 0FF24009 		adr	r9, .L4
  34 0008 D9E90089 		ldrd	r8, [r9]
  35 000c 0446     		mov	r4, r0
  36 000e 00F50076 		add	r6, r0, #512
  37 0012 6FF00405 		mvn	r5, #4
  38              	.L2:
  39 0016 2846     		mov	r0, r5
  40 0018 FFF7FEFF 		bl	__aeabi_i2d
  41 001c 4246     		mov	r2, r8
  42 001e 4B46     		mov	r3, r9
  43 0020 FFF7FEFF 		bl	__aeabi_dmul
  44 0024 41EC100B 		vmov	d0, r0, r1
  45 0028 FFF7FEFF 		bl	cos
  46 002c 51EC100B 		vmov	r0, r1, d0
  47 0030 FFF7FEFF 		bl	__aeabi_d2f
  48 0034 0135     		adds	r5, r5, #1
  49 0036 7B2D     		cmp	r5, #123
  50 0038 46F8040B 		str	r0, [r6], #4	@ float
  51 003c EBD1     		bne	.L2
  52 003e 2046     		mov	r0, r4
  53 0040 BDE87083 		pop	{r4, r5, r6, r8, r9, pc}
  54              	.L5:
  55 0044 AFF30080 		.align	3
  56              	.L4:
  57 0048 6F1283C0 		.word	-1065151889
  58 004c CA21A93F 		.word	1068048842
ARM GAS  /var/folders/b1/22c950295gx2kqj80tvj8wqc0000gn/T//cc32JNfn.s 			page 2


  59              		.cantunwind
  60              		.fnend
  62              		.global	_ZN3DacC1Ev
  63              		.thumb_set _ZN3DacC1Ev,_ZN3DacC2Ev
  64              		.section	.text._ZN3Dac21startDmaSineGeneratorEv,"ax",%progbits
  65              		.align	1
  66              		.global	_ZN3Dac21startDmaSineGeneratorEv
  67              		.syntax unified
  68              		.thumb
  69              		.thumb_func
  71              	_ZN3Dac21startDmaSineGeneratorEv:
  72              		.fnstart
  73              	.LFB1038:
  74              		@ args = 0, pretend = 0, frame = 0
  75              		@ frame_needed = 0, uses_anonymous_args = 0
  76 0000 37B5     		push	{r0, r1, r2, r4, r5, lr}
  77              		.save {r4, r5, lr}
  78              		.pad #12
  79 0002 00F50073 		add	r3, r0, #512
  80 0006 0446     		mov	r4, r0
  81 0008 DFED1C6A 		vldr.32	s13, .L11
  82 000c 9FED1C7A 		vldr.32	s14, .L11+4
  83 0010 0238     		subs	r0, r0, #2
  84 0012 04F58061 		add	r1, r4, #1024
  85 0016 1A46     		mov	r2, r3
  86              	.L7:
  87 0018 B2EC016A 		vldmia.32	r2!, {s12}
  88 001c F0EE477A 		vmov.f32	s15, s14
  89 0020 E6EE267A 		vfma.f32	s15, s12, s13
  90 0024 8A42     		cmp	r2, r1
  91 0026 FCEEE77A 		vcvt.u32.f32	s15, s15
  92 002a 17EE905A 		vmov	r5, s15	@ int
  93 002e 20F8025F 		strh	r5, [r0, #2]!	@ movhi
  94 0032 F1D1     		bne	.L7
  95 0034 DFED136A 		vldr.32	s13, .L11+8
  96 0038 04F1FE02 		add	r2, r4, #254
  97              	.L8:
  98 003c B3EC016A 		vldmia.32	r3!, {s12}
  99 0040 F0EE477A 		vmov.f32	s15, s14
 100 0044 E6EE667A 		vfms.f32	s15, s12, s13
 101 0048 8B42     		cmp	r3, r1
 102 004a FCEEE77A 		vcvt.u32.f32	s15, s15
 103 004e 17EE900A 		vmov	r0, s15	@ int
 104 0052 22F8020F 		strh	r0, [r2, #2]!	@ movhi
 105 0056 F1D1     		bne	.L8
 106 0058 0025     		movs	r5, #0
 107 005a 2246     		mov	r2, r4
 108 005c 2946     		mov	r1, r5
 109 005e 0095     		str	r5, [sp]
 110 0060 8023     		movs	r3, #128
 111 0062 0948     		ldr	r0, .L11+12
 112 0064 FFF7FEFF 		bl	HAL_DAC_Start_DMA
 113 0068 0095     		str	r5, [sp]
 114 006a 8023     		movs	r3, #128
 115 006c 04F58072 		add	r2, r4, #256
 116 0070 1021     		movs	r1, #16
 117 0072 0548     		ldr	r0, .L11+12
ARM GAS  /var/folders/b1/22c950295gx2kqj80tvj8wqc0000gn/T//cc32JNfn.s 			page 3


 118 0074 FFF7FEFF 		bl	HAL_DAC_Start_DMA
 119 0078 03B0     		add	sp, sp, #12
 120              		@ sp needed
 121 007a 30BD     		pop	{r4, r5, pc}
 122              	.L12:
 123              		.align	2
 124              	.L11:
 125 007c 00004A44 		.word	1145700352
 126 0080 00E00F45 		.word	1158668288
 127 0084 0000CA44 		.word	1154088960
 128 0088 00000000 		.word	hdac1
 129              		.fnend
 131              		.section	.text._ZN3Dac22setCustomWaveAmplitudeEf,"ax",%progbits
 132              		.align	1
 133              		.global	_ZN3Dac22setCustomWaveAmplitudeEf
 134              		.syntax unified
 135              		.thumb
 136              		.thumb_func
 138              	_ZN3Dac22setCustomWaveAmplitudeEf:
 139              		.fnstart
 140              	.LFB1039:
 141              		@ args = 0, pretend = 0, frame = 0
 142              		@ frame_needed = 0, uses_anonymous_args = 0
 143 0000 1949     		ldr	r1, .L20
 144 0002 B5EEC00A 		vcmpe.f32	s0, #0
 145 0006 0123     		movs	r3, #1
 146 0008 F1EE10FA 		vmrs	APSR_nzcv, FPSCR
 147 000c 10B5     		push	{r4, lr}
 148 000e 0B60     		str	r3, [r1]
 149 0010 27D4     		bmi	.L17
 150 0012 F7EE007A 		vmov.f32	s15, #1.0e+0
 151 0016 B4EE670A 		vcmp.f32	s0, s15
 152 001a F1EE10FA 		vmrs	APSR_nzcv, FPSCR
 153 001e C8BF     		it	gt
 154 0020 B0EE670A 		vmovgt.f32	s0, s15
 155              	.L14:
 156 0024 DFED117A 		vldr.32	s15, .L20+4
 157 0028 9FED117A 		vldr.32	s14, .L20+8
 158 002c 20EE270A 		vmul.f32	s0, s0, s15
 159 0030 00F1FE04 		add	r4, r0, #254
 160 0034 0323     		movs	r3, #3
 161              	.L16:
 162 0036 03F07F02 		and	r2, r3, #127
 163 003a 00EB8202 		add	r2, r0, r2, lsl #2
 164 003e D2ED806A 		vldr.32	s13, [r2, #512]
 165 0042 F0EE477A 		vmov.f32	s15, s14
 166 0046 E6EEC07A 		vfms.f32	s15, s13, s0
 167 004a 0133     		adds	r3, r3, #1
 168 004c 832B     		cmp	r3, #131
 169 004e FCEEE77A 		vcvt.u32.f32	s15, s15
 170 0052 17EE902A 		vmov	r2, s15	@ int
 171 0056 24F8022F 		strh	r2, [r4, #2]!	@ movhi
 172 005a ECD1     		bne	.L16
 173 005c 0023     		movs	r3, #0
 174 005e 0B60     		str	r3, [r1]
 175 0060 10BD     		pop	{r4, pc}
 176              	.L17:
ARM GAS  /var/folders/b1/22c950295gx2kqj80tvj8wqc0000gn/T//cc32JNfn.s 			page 4


 177 0062 9FED040A 		vldr.32	s0, .L20+12
 178 0066 DDE7     		b	.L14
 179              	.L21:
 180              		.align	2
 181              	.L20:
 182 0068 00000000 		.word	dac_buf_updating
 183 006c 0000CA44 		.word	1154088960
 184 0070 00E00F45 		.word	1158668288
 185 0074 00000000 		.word	0
 186              		.cantunwind
 187              		.fnend
 189              		.section	.text._ZN3Dac9analogOutEi,"ax",%progbits
 190              		.align	1
 191              		.global	_ZN3Dac9analogOutEi
 192              		.syntax unified
 193              		.thumb
 194              		.thumb_func
 196              	_ZN3Dac9analogOutEi:
 197              		.fnstart
 198              	.LFB1040:
 199              		@ args = 0, pretend = 0, frame = 0
 200              		@ frame_needed = 0, uses_anonymous_args = 0
 201 0000 10B5     		push	{r4, lr}
 202              		.save {r4, lr}
 203 0002 064C     		ldr	r4, .L23
 204 0004 0022     		movs	r2, #0
 205 0006 0B46     		mov	r3, r1
 206 0008 2046     		mov	r0, r4
 207 000a 1146     		mov	r1, r2
 208 000c FFF7FEFF 		bl	HAL_DAC_SetValue
 209 0010 2046     		mov	r0, r4
 210 0012 0021     		movs	r1, #0
 211 0014 BDE81040 		pop	{r4, lr}
 212 0018 FFF7FEBF 		b	HAL_DAC_Start
 213              	.L24:
 214              		.align	2
 215              	.L23:
 216 001c 00000000 		.word	hdac2
 217              		.fnend
 219              		.section	.text.startup._GLOBAL__sub_I_dac,"ax",%progbits
 220              		.align	1
 221              		.syntax unified
 222              		.thumb
 223              		.thumb_func
 225              	_GLOBAL__sub_I_dac:
 226              		.fnstart
 227              	.LFB1192:
 228              		@ args = 0, pretend = 0, frame = 0
 229              		@ frame_needed = 0, uses_anonymous_args = 0
 230              		@ link register save eliminated.
 231 0000 0148     		ldr	r0, .L26
 232 0002 FFF7FEBF 		b	_ZN3DacC1Ev
 233              	.L27:
 234 0006 00BF     		.align	2
 235              	.L26:
 236 0008 00000000 		.word	.LANCHOR0
 237              		.cantunwind
ARM GAS  /var/folders/b1/22c950295gx2kqj80tvj8wqc0000gn/T//cc32JNfn.s 			page 5


 238              		.fnend
 240              		.section	.init_array,"aw",%init_array
 241              		.align	2
 242 0000 00000000 		.word	_GLOBAL__sub_I_dac(target1)
 243              		.global	dac
 244              		.section	.bss.dac,"aw",%nobits
 245              		.align	2
 246              		.set	.LANCHOR0,. + 0
 249              	dac:
 250 0000 00000000 		.space	1024
 250      00000000 
 250      00000000 
 250      00000000 
 250      00000000 
 251              		.ident	"GCC: (Arm GNU Toolchain 11.3.Rel1) 11.3.1 20220712"
ARM GAS  /var/folders/b1/22c950295gx2kqj80tvj8wqc0000gn/T//cc32JNfn.s 			page 6

