ARM GAS  /var/folders/b1/22c950295gx2kqj80tvj8wqc0000gn/T//ccJKJKB9.s 			page 1


   1              		.cpu cortex-m4
   2              		.arch armv7e-m
   3              		.fpu fpv4-sp-d16
   4              		.eabi_attribute 27, 1
   5              		.eabi_attribute 28, 1
   6              		.eabi_attribute 20, 1
   7              		.eabi_attribute 21, 1
   8              		.eabi_attribute 23, 3
   9              		.eabi_attribute 24, 1
  10              		.eabi_attribute 25, 1
  11              		.eabi_attribute 26, 1
  12              		.eabi_attribute 30, 4
  13              		.eabi_attribute 34, 1
  14              		.eabi_attribute 18, 4
  15              		.file	"DTC.cpp"
  16              		.text
  17              		.section	.text._ZN3DTC11saveToFlashEv,"ax",%progbits
  18              		.align	1
  19              		.global	_ZN3DTC11saveToFlashEv
  20              		.syntax unified
  21              		.thumb
  22              		.thumb_func
  24              	_ZN3DTC11saveToFlashEv:
  25              		.fnstart
  26              	.LFB1051:
  27              		@ args = 0, pretend = 0, frame = 16
  28              		@ frame_needed = 0, uses_anonymous_args = 0
  29 0000 2DE9FF41 		push	{r0, r1, r2, r3, r4, r5, r6, r7, r8, lr}
  30              		.save {r4, r5, r6, r7, r8, lr}
  31              		.pad #16
  32 0004 144F     		ldr	r7, .L4
  33 0006 DFF85880 		ldr	r8, .L4+8
  34 000a 0125     		movs	r5, #1
  35 000c 0026     		movs	r6, #0
  36 000e CDE90167 		strd	r6, r7, [sp, #4]
  37 0012 0446     		mov	r4, r0
  38 0014 0395     		str	r5, [sp, #12]
  39 0016 FFF7FEFF 		bl	HAL_FLASH_Unlock
  40 001a 6946     		mov	r1, sp
  41 001c 01A8     		add	r0, sp, #4
  42 001e FFF7FEFF 		bl	HAL_FLASHEx_Erase
  43 0022 3946     		mov	r1, r7
  44 0024 2846     		mov	r0, r5
  45 0026 44F25442 		movw	r2, #17492
  46 002a 0023     		movs	r3, #0
  47 002c FFF7FEFF 		bl	HAL_FLASH_Program
  48 0030 0A4D     		ldr	r5, .L4+4
  49 0032 04F14707 		add	r7, r4, #71
  50              	.L2:
  51 0036 2946     		mov	r1, r5
  52 0038 37F8022F 		ldrh	r2, [r7, #2]!
  53 003c 0023     		movs	r3, #0
  54 003e 0120     		movs	r0, #1
  55 0040 0235     		adds	r5, r5, #2
  56 0042 FFF7FEFF 		bl	HAL_FLASH_Program
  57 0046 4545     		cmp	r5, r8
  58 0048 F5D1     		bne	.L2
ARM GAS  /var/folders/b1/22c950295gx2kqj80tvj8wqc0000gn/T//ccJKJKB9.s 			page 2


  59 004a FFF7FEFF 		bl	HAL_FLASH_Lock
  60 004e 2672     		strb	r6, [r4, #8]
  61 0050 04B0     		add	sp, sp, #16
  62              		@ sp needed
  63 0052 BDE8F081 		pop	{r4, r5, r6, r7, r8, pc}
  64              	.L5:
  65 0056 00BF     		.align	2
  66              	.L4:
  67 0058 00F80008 		.word	134281216
  68 005c 02F80008 		.word	134281218
  69 0060 42F80008 		.word	134281282
  70              		.fnend
  72              		.section	.text._ZN3DTC4saveEv,"ax",%progbits
  73              		.align	1
  74              		.global	_ZN3DTC4saveEv
  75              		.syntax unified
  76              		.thumb
  77              		.thumb_func
  79              	_ZN3DTC4saveEv:
  80              		.fnstart
  81              	.LFB1050:
  82              		@ args = 0, pretend = 0, frame = 0
  83              		@ frame_needed = 0, uses_anonymous_args = 0
  84 0000 037A     		ldrb	r3, [r0, #8]	@ zero_extendqisi2
  85 0002 10B5     		push	{r4, lr}
  86              		.save {r4, lr}
  87 0004 0446     		mov	r4, r0
  88 0006 7BB1     		cbz	r3, .L6
  89 0008 FFF7FEFF 		bl	HAL_GetTick
  90 000c 2368     		ldr	r3, [r4]
  91 000e C01A     		subs	r0, r0, r3
  92 0010 41F28833 		movw	r3, #5000
  93 0014 9842     		cmp	r0, r3
  94 0016 07D9     		bls	.L6
  95 0018 FFF7FEFF 		bl	HAL_GetTick
  96 001c 2060     		str	r0, [r4]
  97 001e 2046     		mov	r0, r4
  98 0020 BDE81040 		pop	{r4, lr}
  99 0024 FFF7FEBF 		b	_ZN3DTC11saveToFlashEv
 100              	.L6:
 101 0028 10BD     		pop	{r4, pc}
 102              		.fnend
 104              		.section	.text._ZN3DTC13seekNextErrorEv,"ax",%progbits
 105              		.align	1
 106              		.global	_ZN3DTC13seekNextErrorEv
 107              		.syntax unified
 108              		.thumb
 109              		.thumb_func
 111              	_ZN3DTC13seekNextErrorEv:
 112              		.fnstart
 113              	.LFB1053:
 114              		@ args = 0, pretend = 0, frame = 0
 115              		@ frame_needed = 0, uses_anonymous_args = 0
 116              		@ link register save eliminated.
 117              	.L11:
 118 0000 4368     		ldr	r3, [r0, #4]
 119 0002 3E2B     		cmp	r3, #62
ARM GAS  /var/folders/b1/22c950295gx2kqj80tvj8wqc0000gn/T//ccJKJKB9.s 			page 3


 120 0004 04DD     		ble	.L13
 121 0006 4FF0FF33 		mov	r3, #-1
 122 000a 4360     		str	r3, [r0, #4]
 123 000c 0020     		movs	r0, #0
 124 000e 7047     		bx	lr
 125              	.L13:
 126 0010 0133     		adds	r3, r3, #1
 127 0012 4360     		str	r3, [r0, #4]
 128 0014 0344     		add	r3, r3, r0
 129 0016 93F84930 		ldrb	r3, [r3, #73]	@ zero_extendqisi2
 130 001a 002B     		cmp	r3, #0
 131 001c F0D0     		beq	.L11
 132 001e 0120     		movs	r0, #1
 133 0020 7047     		bx	lr
 134              		.cantunwind
 135              		.fnend
 137              		.section	.rodata._ZN3DTC7getNameEv.str1.1,"aMS",%progbits,1
 138              	.LC0:
 139 0000 00       		.ascii	"\000"
 140              		.section	.text._ZN3DTC7getNameEv,"ax",%progbits
 141              		.align	1
 142              		.global	_ZN3DTC7getNameEv
 143              		.syntax unified
 144              		.thumb
 145              		.thumb_func
 147              	_ZN3DTC7getNameEv:
 148              		.fnstart
 149              	.LFB1054:
 150              		@ args = 0, pretend = 0, frame = 0
 151              		@ frame_needed = 0, uses_anonymous_args = 0
 152              		@ link register save eliminated.
 153 0000 4368     		ldr	r3, [r0, #4]
 154 0002 5A1C     		adds	r2, r3, #1
 155 0004 1ABF     		itte	ne
 156 0006 024A     		ldrne	r2, .L18
 157 0008 52F82300 		ldrne	r0, [r2, r3, lsl #2]
 158 000c 0148     		ldreq	r0, .L18+4
 159 000e 7047     		bx	lr
 160              	.L19:
 161              		.align	2
 162              	.L18:
 163 0010 00000000 		.word	.LANCHOR0
 164 0014 00000000 		.word	.LC0
 165              		.cantunwind
 166              		.fnend
 168              		.section	.text._ZN3DTC8getIndexEv,"ax",%progbits
 169              		.align	1
 170              		.global	_ZN3DTC8getIndexEv
 171              		.syntax unified
 172              		.thumb
 173              		.thumb_func
 175              	_ZN3DTC8getIndexEv:
 176              		.fnstart
 177              	.LFB1055:
 178              		@ args = 0, pretend = 0, frame = 0
 179              		@ frame_needed = 0, uses_anonymous_args = 0
 180              		@ link register save eliminated.
ARM GAS  /var/folders/b1/22c950295gx2kqj80tvj8wqc0000gn/T//ccJKJKB9.s 			page 4


 181 0000 4068     		ldr	r0, [r0, #4]
 182 0002 7047     		bx	lr
 183              		.cantunwind
 184              		.fnend
 186              		.section	.text._ZN3DTC8getCountEv,"ax",%progbits
 187              		.align	1
 188              		.global	_ZN3DTC8getCountEv
 189              		.syntax unified
 190              		.thumb
 191              		.thumb_func
 193              	_ZN3DTC8getCountEv:
 194              		.fnstart
 195              	.LFB1056:
 196              		@ args = 0, pretend = 0, frame = 0
 197              		@ frame_needed = 0, uses_anonymous_args = 0
 198              		@ link register save eliminated.
 199 0000 4368     		ldr	r3, [r0, #4]
 200 0002 5A1C     		adds	r2, r3, #1
 201 0004 1ABF     		itte	ne
 202 0006 C018     		addne	r0, r0, r3
 203 0008 90F84900 		ldrbne	r0, [r0, #73]	@ zero_extendqisi2
 204 000c 0020     		moveq	r0, #0
 205 000e 7047     		bx	lr
 206              		.cantunwind
 207              		.fnend
 209              		.section	.text._ZN3DTC8setErrorEj,"ax",%progbits
 210              		.align	1
 211              		.global	_ZN3DTC8setErrorEj
 212              		.syntax unified
 213              		.thumb
 214              		.thumb_func
 216              	_ZN3DTC8setErrorEj:
 217              		.fnstart
 218              	.LFB1057:
 219              		@ args = 0, pretend = 0, frame = 0
 220              		@ frame_needed = 0, uses_anonymous_args = 0
 221              		@ link register save eliminated.
 222 0000 10B4     		push	{r4}
 223 0002 4218     		adds	r2, r0, r1
 224 0004 537A     		ldrb	r3, [r2, #9]	@ zero_extendqisi2
 225 0006 FF2B     		cmp	r3, #255
 226 0008 10D0     		beq	.L24
 227 000a 92F84940 		ldrb	r4, [r2, #73]	@ zero_extendqisi2
 228 000e A342     		cmp	r3, r4
 229 0010 0CD1     		bne	.L24
 230 0012 0124     		movs	r4, #1
 231 0014 2344     		add	r3, r3, r4
 232 0016 0472     		strb	r4, [r0, #8]
 233 0018 82F84930 		strb	r3, [r2, #73]
 234 001c 054B     		ldr	r3, .L29
 235 001e 0648     		ldr	r0, .L29+4
 236 0020 53F82110 		ldr	r1, [r3, r1, lsl #2]
 237 0024 5DF8044B 		ldr	r4, [sp], #4
 238 0028 FFF7FEBF 		b	_ZN10ConfEditor22setSystemStatusMessageEPKc
 239              	.L24:
 240 002c 5DF8044B 		ldr	r4, [sp], #4
 241 0030 7047     		bx	lr
ARM GAS  /var/folders/b1/22c950295gx2kqj80tvj8wqc0000gn/T//ccJKJKB9.s 			page 5


 242              	.L30:
 243 0032 00BF     		.align	2
 244              	.L29:
 245 0034 00000000 		.word	.LANCHOR0
 246 0038 00000000 		.word	confeditor
 247              		.cantunwind
 248              		.fnend
 250              		.section	.rodata._ZN3DTC8resetAllEv.str1.1,"aMS",%progbits,1
 251              	.LC1:
 252 0000 44544320 		.ascii	"DTC Reset\000"
 252      52657365 
 252      7400
 253              		.section	.text._ZN3DTC8resetAllEv,"ax",%progbits
 254              		.align	1
 255              		.global	_ZN3DTC8resetAllEv
 256              		.syntax unified
 257              		.thumb
 258              		.thumb_func
 260              	_ZN3DTC8resetAllEv:
 261              		.fnstart
 262              	.LFB1058:
 263              		@ args = 0, pretend = 0, frame = 0
 264              		@ frame_needed = 0, uses_anonymous_args = 0
 265 0000 10B5     		push	{r4, lr}
 266              		.save {r4, lr}
 267 0002 4022     		movs	r2, #64
 268 0004 0446     		mov	r4, r0
 269 0006 0021     		movs	r1, #0
 270 0008 4930     		adds	r0, r0, #73
 271 000a FFF7FEFF 		bl	memset
 272 000e 0021     		movs	r1, #0
 273 0010 4022     		movs	r2, #64
 274 0012 04F10900 		add	r0, r4, #9
 275 0016 FFF7FEFF 		bl	memset
 276 001a 0123     		movs	r3, #1
 277 001c 2046     		mov	r0, r4
 278 001e 2372     		strb	r3, [r4, #8]
 279 0020 FFF7FEFF 		bl	_ZN3DTC11saveToFlashEv
 280 0024 BDE81040 		pop	{r4, lr}
 281 0028 0149     		ldr	r1, .L32
 282 002a 0248     		ldr	r0, .L32+4
 283 002c FFF7FEBF 		b	_ZN10ConfEditor22setSystemStatusMessageEPKc
 284              	.L33:
 285              		.align	2
 286              	.L32:
 287 0030 00000000 		.word	.LC1
 288 0034 00000000 		.word	confeditor
 289              		.fnend
 291              		.section	.text._ZN3DTC4loadEv,"ax",%progbits
 292              		.align	1
 293              		.global	_ZN3DTC4loadEv
 294              		.syntax unified
 295              		.thumb
 296              		.thumb_func
 298              	_ZN3DTC4loadEv:
 299              		.fnstart
 300              	.LFB1052:
ARM GAS  /var/folders/b1/22c950295gx2kqj80tvj8wqc0000gn/T//ccJKJKB9.s 			page 6


 301              		@ args = 0, pretend = 0, frame = 0
 302              		@ frame_needed = 0, uses_anonymous_args = 0
 303 0000 114B     		ldr	r3, .L40
 304 0002 1A88     		ldrh	r2, [r3]
 305 0004 44F25443 		movw	r3, #17492
 306 0008 9A42     		cmp	r2, r3
 307 000a 10B5     		push	{r4, lr}
 308              		.save {r4, lr}
 309 000c 0446     		mov	r4, r0
 310 000e 07D0     		beq	.L35
 311 0010 FFF7FEFF 		bl	_ZN3DTC8resetAllEv
 312 0014 2046     		mov	r0, r4
 313 0016 0921     		movs	r1, #9
 314 0018 BDE81040 		pop	{r4, lr}
 315 001c FFF7FEBF 		b	_ZN3DTC8setErrorEj
 316              	.L35:
 317 0020 0A4B     		ldr	r3, .L40+4
 318 0022 0B4A     		ldr	r2, .L40+8
 319 0024 00F10901 		add	r1, r0, #9
 320              	.L36:
 321 0028 53F8040B 		ldr	r0, [r3], #4	@ unaligned
 322 002c 41F8040B 		str	r0, [r1], #4	@ unaligned
 323 0030 9342     		cmp	r3, r2
 324 0032 F9D1     		bne	.L36
 325 0034 054B     		ldr	r3, .L40+4
 326 0036 4934     		adds	r4, r4, #73
 327              	.L37:
 328 0038 53F8041B 		ldr	r1, [r3], #4	@ unaligned
 329 003c 44F8041B 		str	r1, [r4], #4	@ unaligned
 330 0040 9342     		cmp	r3, r2
 331 0042 F9D1     		bne	.L37
 332 0044 10BD     		pop	{r4, pc}
 333              	.L41:
 334 0046 00BF     		.align	2
 335              	.L40:
 336 0048 00F80008 		.word	134281216
 337 004c 02F80008 		.word	134281218
 338 0050 42F80008 		.word	134281282
 339              		.fnend
 341              		.section	.text._ZN3DTCC2Ev,"ax",%progbits
 342              		.align	1
 343              		.global	_ZN3DTCC2Ev
 344              		.syntax unified
 345              		.thumb
 346              		.thumb_func
 348              	_ZN3DTCC2Ev:
 349              		.fnstart
 350              	.LFB1048:
 351              		@ args = 0, pretend = 0, frame = 0
 352              		@ frame_needed = 0, uses_anonymous_args = 0
 353 0000 10B5     		push	{r4, lr}
 354              		.save {r4, lr}
 355 0002 0446     		mov	r4, r0
 356 0004 FFF7FEFF 		bl	_ZN3DTC4loadEv
 357 0008 4FF0FF33 		mov	r3, #-1
 358 000c 6360     		str	r3, [r4, #4]
 359 000e 2046     		mov	r0, r4
ARM GAS  /var/folders/b1/22c950295gx2kqj80tvj8wqc0000gn/T//ccJKJKB9.s 			page 7


 360 0010 10BD     		pop	{r4, pc}
 361              		.fnend
 363              		.global	_ZN3DTCC1Ev
 364              		.thumb_set _ZN3DTCC1Ev,_ZN3DTCC2Ev
 365              		.section	.text._ZN3DTC13isErrorActiveEj,"ax",%progbits
 366              		.align	1
 367              		.global	_ZN3DTC13isErrorActiveEj
 368              		.syntax unified
 369              		.thumb
 370              		.thumb_func
 372              	_ZN3DTC13isErrorActiveEj:
 373              		.fnstart
 374              	.LFB1059:
 375              		@ args = 0, pretend = 0, frame = 0
 376              		@ frame_needed = 0, uses_anonymous_args = 0
 377              		@ link register save eliminated.
 378 0000 0144     		add	r1, r1, r0
 379 0002 91F84900 		ldrb	r0, [r1, #73]	@ zero_extendqisi2
 380 0006 0038     		subs	r0, r0, #0
 381 0008 18BF     		it	ne
 382 000a 0120     		movne	r0, #1
 383 000c 7047     		bx	lr
 384              		.cantunwind
 385              		.fnend
 387              		.section	.text.startup._GLOBAL__sub_I_dtc,"ax",%progbits
 388              		.align	1
 389              		.syntax unified
 390              		.thumb
 391              		.thumb_func
 393              	_GLOBAL__sub_I_dtc:
 394              		.fnstart
 395              	.LFB1211:
 396              		@ args = 0, pretend = 0, frame = 0
 397              		@ frame_needed = 0, uses_anonymous_args = 0
 398              		@ link register save eliminated.
 399 0000 0148     		ldr	r0, .L45
 400 0002 FFF7FEBF 		b	_ZN3DTCC1Ev
 401              	.L46:
 402 0006 00BF     		.align	2
 403              	.L45:
 404 0008 00000000 		.word	.LANCHOR1
 405              		.cantunwind
 406              		.fnend
 408              		.section	.init_array,"aw",%init_array
 409              		.align	2
 410 0000 00000000 		.word	_GLOBAL__sub_I_dtc(target1)
 411              		.global	_ZN3DTC9DTC_CODESE
 412              		.section	.rodata.str1.1,"aMS",%progbits,1
 413              	.LC2:
 414 0000 4E6F2065 		.ascii	"No error.\000"
 414      72726F72 
 414      2E00
 415              	.LC3:
 416 000a 496E7465 		.ascii	"Internal error.\000"
 416      726E616C 
 416      20657272 
 416      6F722E00 
ARM GAS  /var/folders/b1/22c950295gx2kqj80tvj8wqc0000gn/T//ccJKJKB9.s 			page 8


 417              	.LC4:
 418 001a 44656661 		.ascii	"Default settings loaded.\000"
 418      756C7420 
 418      73657474 
 418      696E6773 
 418      206C6F61 
 419              	.LC5:
 420 0033 44696167 		.ascii	"Diagnostic trap #1\000"
 420      6E6F7374 
 420      69632074 
 420      72617020 
 420      233100
 421              	.LC6:
 422 0046 44696167 		.ascii	"Diagnostic trap #2\000"
 422      6E6F7374 
 422      69632074 
 422      72617020 
 422      233200
 423              	.LC7:
 424 0059 44696167 		.ascii	"Diagnostic trap #3\000"
 424      6E6F7374 
 424      69632074 
 424      72617020 
 424      233300
 425              	.LC8:
 426 006c 44696167 		.ascii	"Diagnostic trap #4\000"
 426      6E6F7374 
 426      69632074 
 426      72617020 
 426      233400
 427              	.LC9:
 428 007f 44696167 		.ascii	"Diagnostic trap #5\000"
 428      6E6F7374 
 428      69632074 
 428      72617020 
 428      233500
 429              	.LC10:
 430 0092 556E6B6E 		.ascii	"Unknown DTC code 8\000"
 430      6F776E20 
 430      44544320 
 430      636F6465 
 430      203800
 431              	.LC11:
 432 00a5 44544320 		.ascii	"DTC Storage mismatch\000"
 432      53746F72 
 432      61676520 
 432      6D69736D 
 432      61746368 
 433              	.LC12:
 434 00ba 54505323 		.ascii	"TPS#1 unconnected\000"
 434      3120756E 
 434      636F6E6E 
 434      65637465 
 434      6400
 435              	.LC13:
 436 00cc 54505323 		.ascii	"TPS#2 unconnected\000"
 436      3220756E 
ARM GAS  /var/folders/b1/22c950295gx2kqj80tvj8wqc0000gn/T//ccJKJKB9.s 			page 9


 436      636F6E6E 
 436      65637465 
 436      6400
 437              	.LC14:
 438 00de 4D415020 		.ascii	"MAP unconnected\000"
 438      756E636F 
 438      6E6E6563 
 438      74656400 
 439              	.LC15:
 440 00ee 5175616E 		.ascii	"Quantity Adjuster unconnected\000"
 440      74697479 
 440      2041646A 
 440      75737465 
 440      7220756E 
 441              	.LC16:
 442 010c 556E706C 		.ascii	"Unplausible needle lift sensor signal\000"
 442      61757369 
 442      626C6520 
 442      6E656564 
 442      6C65206C 
 443              	.LC17:
 444 0132 556E706C 		.ascii	"Unplausible RPM sensor signal\000"
 444      61757369 
 444      626C6520 
 444      52504D20 
 444      73656E73 
 445              	.LC18:
 446 0150 456E6769 		.ascii	"Engine temperature sensor unconnected\000"
 446      6E652074 
 446      656D7065 
 446      72617475 
 446      72652073 
 447              	.LC19:
 448 0176 4675656C 		.ascii	"Fuel temperature sensor unconnected\000"
 448      2074656D 
 448      70657261 
 448      74757265 
 448      2073656E 
 449              	.LC20:
 450 019a 41697220 		.ascii	"Air temperature sensor unconnected\000"
 450      74656D70 
 450      65726174 
 450      75726520 
 450      73656E73 
 451              	.LC21:
 452 01bd 54505320 		.ascii	"TPS signal unplausible\000"
 452      7369676E 
 452      616C2075 
 452      6E706C61 
 452      75736962 
 453              	.LC22:
 454 01d4 436F6E66 		.ascii	"Conf. mismatch\000"
 454      2E206D69 
 454      736D6174 
 454      636800
 455              	.LC23:
 456 01e3 436F6E66 		.ascii	"Conf. partial mismatch\000"
ARM GAS  /var/folders/b1/22c950295gx2kqj80tvj8wqc0000gn/T//ccJKJKB9.s 			page 10


 456      2E207061 
 456      72746961 
 456      6C206D69 
 456      736D6174 
 457              	.LC24:
 458 01fa 556E6B6E 		.ascii	"Unknown DTC Code 22\000"
 458      6F776E20 
 458      44544320 
 458      436F6465 
 458      20323200 
 459              	.LC25:
 460 020e 556E6B6E 		.ascii	"Unknown DTC Code 23\000"
 460      6F776E20 
 460      44544320 
 460      436F6465 
 460      20323300 
 461              	.LC26:
 462 0222 556E6B6E 		.ascii	"Unknown DTC Code 24\000"
 462      6F776E20 
 462      44544320 
 462      436F6465 
 462      20323400 
 463              	.LC27:
 464 0236 556E6B6E 		.ascii	"Unknown DTC Code 25\000"
 464      6F776E20 
 464      44544320 
 464      436F6465 
 464      20323500 
 465              	.LC28:
 466 024a 556E6B6E 		.ascii	"Unknown DTC Code 26\000"
 466      6F776E20 
 466      44544320 
 466      436F6465 
 466      20323600 
 467              	.LC29:
 468 025e 556E6B6E 		.ascii	"Unknown DTC Code 27\000"
 468      6F776E20 
 468      44544320 
 468      436F6465 
 468      20323700 
 469              	.LC30:
 470 0272 556E6B6E 		.ascii	"Unknown DTC Code 28\000"
 470      6F776E20 
 470      44544320 
 470      436F6465 
 470      20323800 
 471              	.LC31:
 472 0286 556E6B6E 		.ascii	"Unknown DTC Code 29\000"
 472      6F776E20 
 472      44544320 
 472      436F6465 
 472      20323900 
 473              	.LC32:
 474 029a 556E6B6E 		.ascii	"Unknown DTC Code 30\000"
 474      6F776E20 
 474      44544320 
 474      436F6465 
ARM GAS  /var/folders/b1/22c950295gx2kqj80tvj8wqc0000gn/T//ccJKJKB9.s 			page 11


 474      20333000 
 475              	.LC33:
 476 02ae 556E6B6E 		.ascii	"Unknown DTC Code 31\000"
 476      6F776E20 
 476      44544320 
 476      436F6465 
 476      20333100 
 477              	.LC34:
 478 02c2 556E6B6E 		.ascii	"Unknown DTC Code 32\000"
 478      6F776E20 
 478      44544320 
 478      436F6465 
 478      20333200 
 479              	.LC35:
 480 02d6 556E6B6E 		.ascii	"Unknown DTC Code 33\000"
 480      6F776E20 
 480      44544320 
 480      436F6465 
 480      20333300 
 481              	.LC36:
 482 02ea 556E6B6E 		.ascii	"Unknown DTC Code 34\000"
 482      6F776E20 
 482      44544320 
 482      436F6465 
 482      20333400 
 483              	.LC37:
 484 02fe 556E6B6E 		.ascii	"Unknown DTC Code 35\000"
 484      6F776E20 
 484      44544320 
 484      436F6465 
 484      20333500 
 485              	.LC38:
 486 0312 556E6B6E 		.ascii	"Unknown DTC Code 36\000"
 486      6F776E20 
 486      44544320 
 486      436F6465 
 486      20333600 
 487              	.LC39:
 488 0326 556E6B6E 		.ascii	"Unknown DTC Code 37\000"
 488      6F776E20 
 488      44544320 
 488      436F6465 
 488      20333700 
 489              	.LC40:
 490 033a 556E6B6E 		.ascii	"Unknown DTC Code 38\000"
 490      6F776E20 
 490      44544320 
 490      436F6465 
 490      20333800 
 491              	.LC41:
 492 034e 556E6B6E 		.ascii	"Unknown DTC Code 39\000"
 492      6F776E20 
 492      44544320 
 492      436F6465 
 492      20333900 
 493              	.LC42:
 494 0362 556E6B6E 		.ascii	"Unknown DTC Code 40\000"
ARM GAS  /var/folders/b1/22c950295gx2kqj80tvj8wqc0000gn/T//ccJKJKB9.s 			page 12


 494      6F776E20 
 494      44544320 
 494      436F6465 
 494      20343000 
 495              	.LC43:
 496 0376 556E6B6E 		.ascii	"Unknown DTC Code 41\000"
 496      6F776E20 
 496      44544320 
 496      436F6465 
 496      20343100 
 497              	.LC44:
 498 038a 556E6B6E 		.ascii	"Unknown DTC Code 42\000"
 498      6F776E20 
 498      44544320 
 498      436F6465 
 498      20343200 
 499              	.LC45:
 500 039e 556E6B6E 		.ascii	"Unknown DTC Code 43\000"
 500      6F776E20 
 500      44544320 
 500      436F6465 
 500      20343300 
 501              	.LC46:
 502 03b2 556E6B6E 		.ascii	"Unknown DTC Code 44\000"
 502      6F776E20 
 502      44544320 
 502      436F6465 
 502      20343400 
 503              	.LC47:
 504 03c6 556E6B6E 		.ascii	"Unknown DTC Code 45\000"
 504      6F776E20 
 504      44544320 
 504      436F6465 
 504      20343500 
 505              	.LC48:
 506 03da 556E6B6E 		.ascii	"Unknown DTC Code 46\000"
 506      6F776E20 
 506      44544320 
 506      436F6465 
 506      20343600 
 507              	.LC49:
 508 03ee 556E6B6E 		.ascii	"Unknown DTC Code 47\000"
 508      6F776E20 
 508      44544320 
 508      436F6465 
 508      20343700 
 509              	.LC50:
 510 0402 556E6B6E 		.ascii	"Unknown DTC Code 48\000"
 510      6F776E20 
 510      44544320 
 510      436F6465 
 510      20343800 
 511              	.LC51:
 512 0416 556E6B6E 		.ascii	"Unknown DTC Code 49\000"
 512      6F776E20 
 512      44544320 
 512      436F6465 
ARM GAS  /var/folders/b1/22c950295gx2kqj80tvj8wqc0000gn/T//ccJKJKB9.s 			page 13


 512      20343900 
 513              	.LC52:
 514 042a 556E6B6E 		.ascii	"Unknown DTC Code 50\000"
 514      6F776E20 
 514      44544320 
 514      436F6465 
 514      20353000 
 515              	.LC53:
 516 043e 556E6B6E 		.ascii	"Unknown DTC Code 51\000"
 516      6F776E20 
 516      44544320 
 516      436F6465 
 516      20353100 
 517              	.LC54:
 518 0452 556E6B6E 		.ascii	"Unknown DTC Code 52\000"
 518      6F776E20 
 518      44544320 
 518      436F6465 
 518      20353200 
 519              	.LC55:
 520 0466 556E6B6E 		.ascii	"Unknown DTC Code 53\000"
 520      6F776E20 
 520      44544320 
 520      436F6465 
 520      20353300 
 521              	.LC56:
 522 047a 556E6B6E 		.ascii	"Unknown DTC Code 54\000"
 522      6F776E20 
 522      44544320 
 522      436F6465 
 522      20353400 
 523              	.LC57:
 524 048e 556E6B6E 		.ascii	"Unknown DTC Code 55\000"
 524      6F776E20 
 524      44544320 
 524      436F6465 
 524      20353500 
 525              	.LC58:
 526 04a2 556E6B6E 		.ascii	"Unknown DTC Code 56\000"
 526      6F776E20 
 526      44544320 
 526      436F6465 
 526      20353600 
 527              	.LC59:
 528 04b6 556E6B6E 		.ascii	"Unknown DTC Code 57\000"
 528      6F776E20 
 528      44544320 
 528      436F6465 
 528      20353700 
 529              	.LC60:
 530 04ca 556E6B6E 		.ascii	"Unknown DTC Code 58\000"
 530      6F776E20 
 530      44544320 
 530      436F6465 
 530      20353800 
 531              	.LC61:
 532 04de 556E6B6E 		.ascii	"Unknown DTC Code 59\000"
ARM GAS  /var/folders/b1/22c950295gx2kqj80tvj8wqc0000gn/T//ccJKJKB9.s 			page 14


 532      6F776E20 
 532      44544320 
 532      436F6465 
 532      20353900 
 533              	.LC62:
 534 04f2 556E6B6E 		.ascii	"Unknown DTC Code 60\000"
 534      6F776E20 
 534      44544320 
 534      436F6465 
 534      20363000 
 535              	.LC63:
 536 0506 556E6B6E 		.ascii	"Unknown DTC Code 61\000"
 536      6F776E20 
 536      44544320 
 536      436F6465 
 536      20363100 
 537              	.LC64:
 538 051a 556E6B6E 		.ascii	"Unknown DTC Code 62\000"
 538      6F776E20 
 538      44544320 
 538      436F6465 
 538      20363200 
 539              	.LC65:
 540 052e 556E6B6E 		.ascii	"Unknown DTC Code 63\000"
 540      6F776E20 
 540      44544320 
 540      436F6465 
 540      20363300 
 541              		.global	dtc
 542              		.section	.bss.dtc,"aw",%nobits
 543              		.align	2
 544              		.set	.LANCHOR1,. + 0
 547              	dtc:
 548 0000 00000000 		.space	140
 548      00000000 
 548      00000000 
 548      00000000 
 548      00000000 
 549              		.section	.data._ZN3DTC9DTC_CODESE,"aw"
 550              		.align	2
 551              		.set	.LANCHOR0,. + 0
 554              	_ZN3DTC9DTC_CODESE:
 555 0000 00000000 		.word	.LC2
 556 0004 0A000000 		.word	.LC3
 557 0008 1A000000 		.word	.LC4
 558 000c 33000000 		.word	.LC5
 559 0010 46000000 		.word	.LC6
 560 0014 59000000 		.word	.LC7
 561 0018 6C000000 		.word	.LC8
 562 001c 7F000000 		.word	.LC9
 563 0020 92000000 		.word	.LC10
 564 0024 A5000000 		.word	.LC11
 565 0028 BA000000 		.word	.LC12
 566 002c CC000000 		.word	.LC13
 567 0030 DE000000 		.word	.LC14
 568 0034 EE000000 		.word	.LC15
 569 0038 0C010000 		.word	.LC16
ARM GAS  /var/folders/b1/22c950295gx2kqj80tvj8wqc0000gn/T//ccJKJKB9.s 			page 15


 570 003c 32010000 		.word	.LC17
 571 0040 50010000 		.word	.LC18
 572 0044 76010000 		.word	.LC19
 573 0048 9A010000 		.word	.LC20
 574 004c BD010000 		.word	.LC21
 575 0050 D4010000 		.word	.LC22
 576 0054 E3010000 		.word	.LC23
 577 0058 FA010000 		.word	.LC24
 578 005c 0E020000 		.word	.LC25
 579 0060 22020000 		.word	.LC26
 580 0064 36020000 		.word	.LC27
 581 0068 4A020000 		.word	.LC28
 582 006c 5E020000 		.word	.LC29
 583 0070 72020000 		.word	.LC30
 584 0074 86020000 		.word	.LC31
 585 0078 9A020000 		.word	.LC32
 586 007c AE020000 		.word	.LC33
 587 0080 C2020000 		.word	.LC34
 588 0084 D6020000 		.word	.LC35
 589 0088 EA020000 		.word	.LC36
 590 008c FE020000 		.word	.LC37
 591 0090 12030000 		.word	.LC38
 592 0094 26030000 		.word	.LC39
 593 0098 3A030000 		.word	.LC40
 594 009c 4E030000 		.word	.LC41
 595 00a0 62030000 		.word	.LC42
 596 00a4 76030000 		.word	.LC43
 597 00a8 8A030000 		.word	.LC44
 598 00ac 9E030000 		.word	.LC45
 599 00b0 B2030000 		.word	.LC46
 600 00b4 C6030000 		.word	.LC47
 601 00b8 DA030000 		.word	.LC48
 602 00bc EE030000 		.word	.LC49
 603 00c0 02040000 		.word	.LC50
 604 00c4 16040000 		.word	.LC51
 605 00c8 2A040000 		.word	.LC52
 606 00cc 3E040000 		.word	.LC53
 607 00d0 52040000 		.word	.LC54
 608 00d4 66040000 		.word	.LC55
 609 00d8 7A040000 		.word	.LC56
 610 00dc 8E040000 		.word	.LC57
 611 00e0 A2040000 		.word	.LC58
 612 00e4 B6040000 		.word	.LC59
 613 00e8 CA040000 		.word	.LC60
 614 00ec DE040000 		.word	.LC61
 615 00f0 F2040000 		.word	.LC62
 616 00f4 06050000 		.word	.LC63
 617 00f8 1A050000 		.word	.LC64
 618 00fc 2E050000 		.word	.LC65
 619              		.ident	"GCC: (Arm GNU Toolchain 11.3.Rel1) 11.3.1 20220712"
ARM GAS  /var/folders/b1/22c950295gx2kqj80tvj8wqc0000gn/T//ccJKJKB9.s 			page 16

