ARM GAS  /var/folders/b1/22c950295gx2kqj80tvj8wqc0000gn/T//ccSjNHSV.s 			page 1


   1              		.cpu cortex-m4
   2              		.arch armv7e-m
   3              		.fpu fpv4-sp-d16
   4              		.eabi_attribute 27, 1
   5              		.eabi_attribute 28, 1
   6              		.eabi_attribute 20, 1
   7              		.eabi_attribute 21, 1
   8              		.eabi_attribute 23, 3
   9              		.eabi_attribute 24, 1
  10              		.eabi_attribute 25, 1
  11              		.eabi_attribute 26, 1
  12              		.eabi_attribute 30, 4
  13              		.eabi_attribute 34, 1
  14              		.eabi_attribute 18, 4
  15              		.file	"PID.cpp"
  16              		.text
  17              		.section	.text._ZN3PIDC2EPiS0_S0_S0_S0_S0_S0_S0_S0_,"ax",%progbits
  18              		.align	1
  19              		.global	_ZN3PIDC2EPiS0_S0_S0_S0_S0_S0_S0_S0_
  20              		.syntax unified
  21              		.thumb
  22              		.thumb_func
  24              	_ZN3PIDC2EPiS0_S0_S0_S0_S0_S0_S0_S0_:
  25              		.fnstart
  26              	.LFB1:
  27              		@ args = 24, pretend = 0, frame = 0
  28              		@ frame_needed = 0, uses_anonymous_args = 0
  29 0000 10B5     		push	{r4, lr}
  30 0002 8360     		str	r3, [r0, #8]
  31 0004 029B     		ldr	r3, [sp, #8]
  32 0006 8362     		str	r3, [r0, #40]
  33 0008 039B     		ldr	r3, [sp, #12]
  34 000a C362     		str	r3, [r0, #44]
  35 000c 049B     		ldr	r3, [sp, #16]
  36 000e 0363     		str	r3, [r0, #48]
  37 0010 069B     		ldr	r3, [sp, #24]
  38 0012 C363     		str	r3, [r0, #60]
  39 0014 079B     		ldr	r3, [sp, #28]
  40 0016 0364     		str	r3, [r0, #64]
  41 0018 059B     		ldr	r3, [sp, #20]
  42 001a 4364     		str	r3, [r0, #68]
  43 001c 0023     		movs	r3, #0
  44 001e C0E90012 		strd	r1, r2, [r0]
  45 0022 C0E90D33 		strd	r3, r3, [r0, #52]
  46 0026 10BD     		pop	{r4, pc}
  47              		.cantunwind
  48              		.fnend
  50              		.global	_ZN3PIDC1EPiS0_S0_S0_S0_S0_S0_S0_S0_
  51              		.thumb_set _ZN3PIDC1EPiS0_S0_S0_S0_S0_S0_S0_S0_,_ZN3PIDC2EPiS0_S0_S0_S0_S0_S0_S0_S0_
  52              		.section	.text._ZN3PID11setPositionEi,"ax",%progbits
  53              		.align	1
  54              		.global	_ZN3PID11setPositionEi
  55              		.syntax unified
  56              		.thumb
  57              		.thumb_func
  59              	_ZN3PID11setPositionEi:
  60              		.fnstart
ARM GAS  /var/folders/b1/22c950295gx2kqj80tvj8wqc0000gn/T//ccSjNHSV.s 			page 2


  61              	.LFB3:
  62              		@ args = 0, pretend = 0, frame = 0
  63              		@ frame_needed = 0, uses_anonymous_args = 0
  64              		@ link register save eliminated.
  65 0000 8163     		str	r1, [r0, #56]
  66 0002 7047     		bx	lr
  67              		.cantunwind
  68              		.fnend
  70              		.global	__aeabi_i2d
  71              		.global	__aeabi_ddiv
  72              		.global	__aeabi_d2iz
  73              		.global	__aeabi_f2d
  74              		.global	__aeabi_dmul
  75              		.global	__aeabi_dadd
  76              		.global	__aeabi_d2f
  77              		.section	.text._ZN3PID9calculateEv,"ax",%progbits
  78              		.align	1
  79              		.global	_ZN3PID9calculateEv
  80              		.syntax unified
  81              		.thumb
  82              		.thumb_func
  84              	_ZN3PID9calculateEv:
  85              		.fnstart
  86              	.LFB4:
  87              		@ args = 0, pretend = 0, frame = 0
  88              		@ frame_needed = 0, uses_anonymous_args = 0
  89 0000 2DE9F843 		push	{r3, r4, r5, r6, r7, r8, r9, lr}
  90 0004 C26B     		ldr	r2, [r0, #60]
  91 0006 836B     		ldr	r3, [r0, #56]
  92 0008 2DED048B 		vpush.64	{d8, d9}
  93 000c 4363     		str	r3, [r0, #52]
  94 000e 1268     		ldr	r2, [r2]
  95 0010 9B1A     		subs	r3, r3, r2
  96 0012 426C     		ldr	r2, [r0, #68]
  97 0014 C360     		str	r3, [r0, #12]
  98 0016 0446     		mov	r4, r0
  99 0018 62B1     		cbz	r2, .L4
 100 001a 002B     		cmp	r3, #0
 101 001c 0ADA     		bge	.L4
 102 001e 1068     		ldr	r0, [r2]
 103 0020 5843     		muls	r0, r3, r0
 104 0022 FFF7FEFF 		bl	__aeabi_i2d
 105 0026 574B     		ldr	r3, .L11
 106 0028 0022     		movs	r2, #0
 107 002a FFF7FEFF 		bl	__aeabi_ddiv
 108 002e FFF7FEFF 		bl	__aeabi_d2iz
 109 0032 E060     		str	r0, [r4, #12]
 110              	.L4:
 111 0034 6368     		ldr	r3, [r4, #4]
 112 0036 E768     		ldr	r7, [r4, #12]
 113 0038 1868     		ldr	r0, [r3]
 114 003a 07EE900A 		vmov	s15, r0	@ int
 115 003e F8EEE77A 		vcvt.f32.s32	s15, s15
 116 0042 17EE900A 		vmov	r0, s15
 117 0046 FFF7FEFF 		bl	__aeabi_f2d
 118 004a 4E4B     		ldr	r3, .L11
 119 004c 0022     		movs	r2, #0
ARM GAS  /var/folders/b1/22c950295gx2kqj80tvj8wqc0000gn/T//ccSjNHSV.s 			page 3


 120 004e FFF7FEFF 		bl	__aeabi_ddiv
 121 0052 8046     		mov	r8, r0
 122 0054 3846     		mov	r0, r7
 123 0056 8946     		mov	r9, r1
 124 0058 FFF7FEFF 		bl	__aeabi_i2d
 125 005c 0246     		mov	r2, r0
 126 005e 0B46     		mov	r3, r1
 127 0060 4046     		mov	r0, r8
 128 0062 4946     		mov	r1, r9
 129 0064 FFF7FEFF 		bl	__aeabi_dmul
 130 0068 8046     		mov	r8, r0
 131 006a 206A     		ldr	r0, [r4, #32]	@ float
 132 006c 8946     		mov	r9, r1
 133 006e FFF7FEFF 		bl	__aeabi_f2d
 134 0072 0246     		mov	r2, r0
 135 0074 0B46     		mov	r3, r1
 136 0076 4046     		mov	r0, r8
 137 0078 4946     		mov	r1, r9
 138 007a FFF7FEFF 		bl	__aeabi_dadd
 139 007e FFF7FEFF 		bl	__aeabi_d2f
 140 0082 E66A     		ldr	r6, [r4, #44]
 141 0084 A56A     		ldr	r5, [r4, #40]
 142 0086 D6ED007A 		vldr.32	s15, [r6]	@ int
 143 008a 2369     		ldr	r3, [r4, #16]
 144 008c 07EE100A 		vmov	s14, r0
 145 0090 F8EEE77A 		vcvt.f32.s32	s15, s15
 146 0094 FB1A     		subs	r3, r7, r3
 147 0096 B4EEE77A 		vcmpe.f32	s14, s15
 148 009a F1EE10FA 		vmrs	APSR_nzcv, FPSCR
 149 009e D8BF     		it	le
 150 00a0 F0EE477A 		vmovle.f32	s15, s14
 151 00a4 C4ED087A 		vstr.32	s15, [r4, #32]
 152 00a8 95ED007A 		vldr.32	s14, [r5]	@ int
 153 00ac 2761     		str	r7, [r4, #16]
 154 00ae F8EEC78A 		vcvt.f32.s32	s17, s14
 155 00b2 F4EEE78A 		vcmpe.f32	s17, s15
 156 00b6 F1EE10FA 		vmrs	APSR_nzcv, FPSCR
 157 00ba D8BF     		it	le
 158 00bc F0EE678A 		vmovle.f32	s17, s15
 159 00c0 07EE903A 		vmov	s15, r3	@ int
 160 00c4 2368     		ldr	r3, [r4]
 161 00c6 C4ED088A 		vstr.32	s17, [r4, #32]
 162 00ca 1868     		ldr	r0, [r3]
 163 00cc B8EEE79A 		vcvt.f32.s32	s18, s15
 164 00d0 07EE900A 		vmov	s15, r0	@ int
 165 00d4 F8EEE77A 		vcvt.f32.s32	s15, s15
 166 00d8 84ED099A 		vstr.32	s18, [r4, #36]
 167 00dc 17EE900A 		vmov	r0, s15
 168 00e0 FFF7FEFF 		bl	__aeabi_f2d
 169 00e4 274B     		ldr	r3, .L11
 170 00e6 0022     		movs	r2, #0
 171 00e8 FFF7FEFF 		bl	__aeabi_ddiv
 172 00ec 07EE907A 		vmov	s15, r7	@ int
 173 00f0 F8EEE77A 		vcvt.f32.s32	s15, s15
 174 00f4 8046     		mov	r8, r0
 175 00f6 17EE900A 		vmov	r0, s15
 176 00fa 8946     		mov	r9, r1
ARM GAS  /var/folders/b1/22c950295gx2kqj80tvj8wqc0000gn/T//ccSjNHSV.s 			page 4


 177 00fc FFF7FEFF 		bl	__aeabi_f2d
 178 0100 0246     		mov	r2, r0
 179 0102 0B46     		mov	r3, r1
 180 0104 4046     		mov	r0, r8
 181 0106 4946     		mov	r1, r9
 182 0108 FFF7FEFF 		bl	__aeabi_dmul
 183 010c FFF7FEFF 		bl	__aeabi_d2f
 184 0110 A368     		ldr	r3, [r4, #8]
 185 0112 6061     		str	r0, [r4, #20]	@ float
 186 0114 08EE100A 		vmov	s16, r0
 187 0118 1868     		ldr	r0, [r3]
 188 011a C4ED068A 		vstr.32	s17, [r4, #24]
 189 011e 07EE900A 		vmov	s15, r0	@ int
 190 0122 F8EEE77A 		vcvt.f32.s32	s15, s15
 191 0126 38EE288A 		vadd.f32	s16, s16, s17
 192 012a 17EE900A 		vmov	r0, s15
 193 012e FFF7FEFF 		bl	__aeabi_f2d
 194 0132 144B     		ldr	r3, .L11
 195 0134 0022     		movs	r2, #0
 196 0136 FFF7FEFF 		bl	__aeabi_ddiv
 197 013a 8046     		mov	r8, r0
 198 013c 19EE100A 		vmov	r0, s18
 199 0140 8946     		mov	r9, r1
 200 0142 FFF7FEFF 		bl	__aeabi_f2d
 201 0146 0246     		mov	r2, r0
 202 0148 0B46     		mov	r3, r1
 203 014a 4046     		mov	r0, r8
 204 014c 4946     		mov	r1, r9
 205 014e FFF7FEFF 		bl	__aeabi_dmul
 206 0152 FFF7FEFF 		bl	__aeabi_d2f
 207 0156 07EE900A 		vmov	s15, r0
 208 015a 38EE278A 		vadd.f32	s16, s16, s15
 209 015e 3268     		ldr	r2, [r6]
 210 0160 E061     		str	r0, [r4, #28]	@ float
 211 0162 FDEEC87A 		vcvt.s32.f32	s15, s16
 212 0166 216C     		ldr	r1, [r4, #64]
 213 0168 17EE903A 		vmov	r3, s15	@ int
 214 016c 9A42     		cmp	r2, r3
 215 016e 03DB     		blt	.L7
 216 0170 2A68     		ldr	r2, [r5]
 217 0172 9A42     		cmp	r2, r3
 218 0174 B8BF     		it	lt
 219 0176 1A46     		movlt	r2, r3
 220              	.L7:
 221 0178 BDEC048B 		vldm	sp!, {d8-d9}
 222 017c 0A60     		str	r2, [r1]
 223 017e BDE8F883 		pop	{r3, r4, r5, r6, r7, r8, r9, pc}
 224              	.L12:
 225 0182 00BF     		.align	2
 226              	.L11:
 227 0184 00005940 		.word	1079574528
 228              		.cantunwind
 229              		.fnend
 231              		.ident	"GCC: (Arm GNU Toolchain 11.3.Rel1) 11.3.1 20220712"
ARM GAS  /var/folders/b1/22c950295gx2kqj80tvj8wqc0000gn/T//ccSjNHSV.s 			page 5

