ARM GAS  /var/folders/b1/22c950295gx2kqj80tvj8wqc0000gn/T//ccnIszk3.s 			page 1


   1              		.cpu cortex-m4
   2              		.arch armv7e-m
   3              		.fpu fpv4-sp-d16
   4              		.eabi_attribute 27, 1
   5              		.eabi_attribute 28, 1
   6              		.eabi_attribute 20, 1
   7              		.eabi_attribute 21, 1
   8              		.eabi_attribute 23, 3
   9              		.eabi_attribute 24, 1
  10              		.eabi_attribute 25, 1
  11              		.eabi_attribute 26, 1
  12              		.eabi_attribute 30, 4
  13              		.eabi_attribute 34, 1
  14              		.eabi_attribute 18, 4
  15              		.file	"QuantityAdjuster.cpp"
  16              		.text
  17              		.section	.text._ZN16QuantityAdjusterC2Ev,"ax",%progbits
  18              		.align	1
  19              		.global	_ZN16QuantityAdjusterC2Ev
  20              		.syntax unified
  21              		.thumb
  22              		.thumb_func
  24              	_ZN16QuantityAdjusterC2Ev:
  25              		.fnstart
  26              	.LFB927:
  27              		@ args = 0, pretend = 0, frame = 0
  28              		@ frame_needed = 0, uses_anonymous_args = 0
  29              		@ link register save eliminated.
  30 0000 7047     		bx	lr
  31              		.cantunwind
  32              		.fnend
  34              		.global	_ZN16QuantityAdjusterC1Ev
  35              		.thumb_set _ZN16QuantityAdjusterC1Ev,_ZN16QuantityAdjusterC2Ev
  36              		.section	.text._ZN16QuantityAdjuster10initializeEv,"ax",%progbits
  37              		.align	1
  38              		.global	_ZN16QuantityAdjuster10initializeEv
  39              		.syntax unified
  40              		.thumb
  41              		.thumb_func
  43              	_ZN16QuantityAdjuster10initializeEv:
  44              		.fnstart
  45              	.LFB929:
  46              		@ args = 0, pretend = 0, frame = 0
  47              		@ frame_needed = 0, uses_anonymous_args = 0
  48              		@ link register save eliminated.
  49 0000 0023     		movs	r3, #0
  50 0002 C361     		str	r3, [r0, #28]	@ float
  51 0004 8361     		str	r3, [r0, #24]	@ float
  52 0006 2A23     		movs	r3, #42
  53 0008 C362     		str	r3, [r0, #44]
  54 000a 0123     		movs	r3, #1
  55 000c 0363     		str	r3, [r0, #48]
  56 000e 7047     		bx	lr
  57              		.cantunwind
  58              		.fnend
  60              		.section	.text._ZN16QuantityAdjuster6updateEv,"ax",%progbits
  61              		.align	1
ARM GAS  /var/folders/b1/22c950295gx2kqj80tvj8wqc0000gn/T//ccnIszk3.s 			page 2


  62              		.global	_ZN16QuantityAdjuster6updateEv
  63              		.syntax unified
  64              		.thumb
  65              		.thumb_func
  67              	_ZN16QuantityAdjuster6updateEv:
  68              		.fnstart
  69              	.LFB930:
  70              		@ args = 0, pretend = 0, frame = 0
  71              		@ frame_needed = 0, uses_anonymous_args = 0
  72 0000 70B5     		push	{r4, r5, r6, lr}
  73              		.save {r4, r5, r6, lr}
  74 0002 8F4E     		ldr	r6, .L28
  75 0004 3378     		ldrb	r3, [r6]	@ zero_extendqisi2
  76 0006 2DED028B 		vpush.64	{d8}
  77              		.vsave {d8}
  78 000a 0446     		mov	r4, r0
  79 000c 1BB1     		cbz	r3, .L4
  80 000e 8D48     		ldr	r0, .L28+4
  81 0010 0321     		movs	r1, #3
  82 0012 FFF7FEFF 		bl	_ZN3DTC8setErrorEj
  83              	.L4:
  84 0016 3378     		ldrb	r3, [r6]	@ zero_extendqisi2
  85 0018 8B4D     		ldr	r5, .L28+8
  86 001a 9FED8C7A 		vldr.32	s14, .L28+12
  87 001e E16A     		ldr	r1, [r4, #44]
  88 0020 B5F8D424 		ldrh	r2, [r5, #1236]
  89 0024 0133     		adds	r3, r3, #1
  90 0026 3370     		strb	r3, [r6]
  91 0028 B5F89834 		ldrh	r3, [r5, #1176]
  92 002c 07EE903A 		vmov	s15, r3	@ int
  93 0030 F8EE677A 		vcvt.f32.u32	s15, s15
  94 0034 B5F8AC34 		ldrh	r3, [r5, #1196]
  95 0038 67EE877A 		vmul.f32	s15, s15, s14
  96 003c C4ED0D7A 		vstr.32	s15, [r4, #52]
  97 0040 07EE903A 		vmov	s15, r3	@ int
  98 0044 F8EE677A 		vcvt.f32.u32	s15, s15
  99 0048 B5F8C034 		ldrh	r3, [r5, #1216]
 100 004c 2263     		str	r2, [r4, #48]
 101 004e 67EE877A 		vmul.f32	s15, s15, s14
 102 0052 C4ED0F7A 		vstr.32	s15, [r4, #60]
 103 0056 07EE903A 		vmov	s15, r3	@ int
 104 005a F8EE677A 		vcvt.f32.u32	s15, s15
 105 005e A36A     		ldr	r3, [r4, #40]
 106 0060 67EE877A 		vmul.f32	s15, s15, s14
 107 0064 9942     		cmp	r1, r3
 108 0066 C4ED117A 		vstr.32	s15, [r4, #68]
 109 006a 09DA     		bge	.L5
 110 006c E36A     		ldr	r3, [r4, #44]
 111 006e 1344     		add	r3, r3, r2
 112 0070 E362     		str	r3, [r4, #44]
 113 0072 E26A     		ldr	r2, [r4, #44]
 114 0074 A36A     		ldr	r3, [r4, #40]
 115 0076 9A42     		cmp	r2, r3
 116 0078 0DDD     		ble	.L7
 117              	.L27:
 118 007a A36A     		ldr	r3, [r4, #40]
 119 007c E362     		str	r3, [r4, #44]
ARM GAS  /var/folders/b1/22c950295gx2kqj80tvj8wqc0000gn/T//ccnIszk3.s 			page 3


 120 007e 0AE0     		b	.L7
 121              	.L5:
 122 0080 E16A     		ldr	r1, [r4, #44]
 123 0082 A36A     		ldr	r3, [r4, #40]
 124 0084 9942     		cmp	r1, r3
 125 0086 06DD     		ble	.L7
 126 0088 E36A     		ldr	r3, [r4, #44]
 127 008a 9B1A     		subs	r3, r3, r2
 128 008c E362     		str	r3, [r4, #44]
 129 008e E26A     		ldr	r2, [r4, #44]
 130 0090 A36A     		ldr	r3, [r4, #40]
 131 0092 9A42     		cmp	r2, r3
 132 0094 F1DB     		blt	.L27
 133              	.L7:
 134 0096 E36A     		ldr	r3, [r4, #44]
 135 0098 2B63     		str	r3, [r5, #48]
 136 009a 2A23     		movs	r3, #42
 137 009c AB62     		str	r3, [r5, #40]
 138 009e B5F80C34 		ldrh	r3, [r5, #1036]
 139 00a2 95ED0A0A 		vldr.32	s0, [r5, #40]	@ int
 140 00a6 9FED6A2A 		vldr.32	s4, .L28+16
 141 00aa DFED6A1A 		vldr.32	s3, .L28+20
 142 00ae 01EE103A 		vmov	s2, r3	@ int
 143 00b2 B5F8F833 		ldrh	r3, [r5, #1016]
 144 00b6 00EE903A 		vmov	s1, r3	@ int
 145 00ba B8EE411A 		vcvt.f32.u32	s2, s2
 146 00be F8EE600A 		vcvt.f32.u32	s1, s1
 147 00c2 B8EEC00A 		vcvt.f32.s32	s0, s0
 148 00c6 FFF7FEFF 		bl	_Z3mapfffff
 149 00ca FDEEC07A 		vcvt.s32.f32	s15, s0
 150 00ce 17EE902A 		vmov	r2, s15	@ int
 151 00d2 82F30A02 		usat	r2, #10, r2
 152 00d6 EA62     		str	r2, [r5, #44]
 153 00d8 E36A     		ldr	r3, [r4, #44]
 154 00da 2265     		str	r2, [r4, #80]
 155 00dc 9B1A     		subs	r3, r3, r2
 156 00de 07EE903A 		vmov	s15, r3	@ int
 157 00e2 B8EEE77A 		vcvt.f32.s32	s14, s15
 158 00e6 D4ED167A 		vldr.32	s15, [r4, #88]	@ int
 159 00ea 84ED057A 		vstr.32	s14, [r4, #20]
 160 00ee F8EEE77A 		vcvt.f32.s32	s15, s15
 161 00f2 F0EEC76A 		vabs.f32	s13, s14
 162 00f6 77EEA67A 		vadd.f32	s15, s15, s13
 163 00fa F6EE006A 		vmov.f32	s13, #5.0e-1
 164 00fe 67EEA67A 		vmul.f32	s15, s15, s13
 165 0102 B5EEC07A 		vcmpe.f32	s14, #0
 166 0106 FDEEE77A 		vcvt.s32.f32	s15, s15
 167 010a F1EE10FA 		vmrs	APSR_nzcv, FPSCR
 168 010e C4ED167A 		vstr.32	s15, [r4, #88]	@ int
 169 0112 0DD5     		bpl	.L9
 170 0114 B5F8E834 		ldrh	r3, [r5, #1256]
 171 0118 DFED4F6A 		vldr.32	s13, .L28+24
 172 011c 07EE903A 		vmov	s15, r3	@ int
 173 0120 F8EE677A 		vcvt.f32.u32	s15, s15
 174 0124 67EE877A 		vmul.f32	s15, s15, s14
 175 0128 87EEA67A 		vdiv.f32	s14, s15, s13
 176 012c 84ED057A 		vstr.32	s14, [r4, #20]
ARM GAS  /var/folders/b1/22c950295gx2kqj80tvj8wqc0000gn/T//ccnIszk3.s 			page 4


 177              	.L9:
 178 0130 B5F84834 		ldrh	r3, [r5, #1096]
 179 0134 94ED057A 		vldr.32	s14, [r4, #20]
 180 0138 D4ED067A 		vldr.32	s15, [r4, #24]
 181 013c D4ED0F6A 		vldr.32	s13, [r4, #60]
 182 0140 94ED116A 		vldr.32	s12, [r4, #68]
 183 0144 9FED421A 		vldr.32	s2, .L28+16
 184 0148 DFED420A 		vldr.32	s1, .L28+20
 185 014c E7EE267A 		vfma.f32	s15, s14, s13
 186 0150 06EE903A 		vmov	s13, r3	@ int
 187 0154 B5F83434 		ldrh	r3, [r5, #1076]
 188 0158 B8EE662A 		vcvt.f32.u32	s4, s13
 189 015c F8EEE66A 		vcvt.f32.s32	s13, s13
 190 0160 F4EE667A 		vcmp.f32	s15, s13
 191 0164 06EE903A 		vmov	s13, r3	@ int
 192 0168 F1EE10FA 		vmrs	APSR_nzcv, FPSCR
 193 016c F8EEE61A 		vcvt.f32.s32	s3, s13
 194 0170 C8BF     		it	gt
 195 0172 F0EE427A 		vmovgt.f32	s15, s4
 196 0176 F4EEE17A 		vcmpe.f32	s15, s3
 197 017a F1EE10FA 		vmrs	APSR_nzcv, FPSCR
 198 017e 48BF     		it	mi
 199 0180 F8EE666A 		vcvtmi.f32.u32	s13, s13
 200 0184 C4ED067A 		vstr.32	s15, [r4, #24]
 201 0188 48BF     		it	mi
 202 018a C4ED066A 		vstrmi.32	s13, [r4, #24]
 203 018e D4ED077A 		vldr.32	s15, [r4, #28]
 204 0192 D4ED0D6A 		vldr.32	s13, [r4, #52]
 205 0196 84ED077A 		vstr.32	s14, [r4, #28]
 206 019a 77EE677A 		vsub.f32	s15, s14, s15
 207 019e 27EE267A 		vmul.f32	s14, s14, s13
 208 01a2 D4ED066A 		vldr.32	s13, [r4, #24]
 209 01a6 C4ED087A 		vstr.32	s15, [r4, #32]
 210 01aa 37EE268A 		vadd.f32	s16, s14, s13
 211 01ae 67EE867A 		vmul.f32	s15, s15, s12
 212 01b2 84ED0E7A 		vstr.32	s14, [r4, #56]
 213 01b6 38EE278A 		vadd.f32	s16, s16, s15
 214 01ba C4ED106A 		vstr.32	s13, [r4, #64]
 215 01be FDEEC88A 		vcvt.s32.f32	s17, s16
 216 01c2 C4ED127A 		vstr.32	s15, [r4, #72]
 217 01c6 BDEEC77A 		vcvt.s32.f32	s14, s14
 218 01ca FDEEE77A 		vcvt.s32.f32	s15, s15
 219 01ce FDEEE66A 		vcvt.s32.f32	s13, s13
 220 01d2 B8EEE80A 		vcvt.f32.s32	s0, s17
 221 01d6 85ED137A 		vstr.32	s14, [r5, #76]	@ int
 222 01da C5ED146A 		vstr.32	s13, [r5, #80]	@ int
 223 01de C5ED157A 		vstr.32	s15, [r5, #84]	@ int
 224 01e2 FFF7FEFF 		bl	_Z3mapfffff
 225 01e6 B5F84834 		ldrh	r3, [r5, #1096]
 226 01ea 07EE903A 		vmov	s15, r3	@ int
 227 01ee F8EEE77A 		vcvt.f32.s32	s15, s15
 228 01f2 F4EEC87A 		vcmpe.f32	s15, s16
 229 01f6 F1EE10FA 		vmrs	APSR_nzcv, FPSCR
 230 01fa 0DD4     		bmi	.L15
 231 01fc B5F83434 		ldrh	r3, [r5, #1076]
 232 0200 07EE903A 		vmov	s15, r3	@ int
 233 0204 F8EEE77A 		vcvt.f32.s32	s15, s15
ARM GAS  /var/folders/b1/22c950295gx2kqj80tvj8wqc0000gn/T//ccnIszk3.s 			page 5


 234 0208 18EE902A 		vmov	r2, s17	@ int
 235 020c F4EEC87A 		vcmpe.f32	s15, s16
 236 0210 F1EE10FA 		vmrs	APSR_nzcv, FPSCR
 237 0214 D8BF     		it	le
 238 0216 1346     		movle	r3, r2
 239              	.L15:
 240 0218 D5F8D820 		ldr	r2, [r5, #216]
 241 021c E364     		str	r3, [r4, #76]
 242 021e 42B9     		cbnz	r2, .L17
 243 0220 E16A     		ldr	r1, [r4, #44]
 244 0222 0029     		cmp	r1, #0
 245 0224 D4BF     		ite	le
 246 0226 E264     		strle	r2, [r4, #76]
 247 0228 6B63     		strgt	r3, [r5, #52]
 248 022a E36C     		ldr	r3, [r4, #76]
 249 022c D8BF     		it	le
 250 022e 6A63     		strle	r2, [r5, #52]
 251 0230 6B63     		str	r3, [r5, #52]
 252              	.L17:
 253 0232 BDEC028B 		vldm	sp!, {d8}
 254 0236 3378     		ldrb	r3, [r6]	@ zero_extendqisi2
 255 0238 013B     		subs	r3, r3, #1
 256 023a 3370     		strb	r3, [r6]
 257 023c 70BD     		pop	{r4, r5, r6, pc}
 258              	.L29:
 259 023e 00BF     		.align	2
 260              	.L28:
 261 0240 00000000 		.word	.LANCHOR0
 262 0244 00000000 		.word	dtc
 263 0248 00000000 		.word	core
 264 024c 0000803B 		.word	998244352
 265 0250 00C07F44 		.word	1149222912
 266 0254 00000000 		.word	0
 267 0258 0000C842 		.word	1120403456
 268              		.fnend
 270              		.section	.text._ZN16QuantityAdjuster11setPositionEi,"ax",%progbits
 271              		.align	1
 272              		.global	_ZN16QuantityAdjuster11setPositionEi
 273              		.syntax unified
 274              		.thumb
 275              		.thumb_func
 277              	_ZN16QuantityAdjuster11setPositionEi:
 278              		.fnstart
 279              	.LFB931:
 280              		@ args = 0, pretend = 0, frame = 0
 281              		@ frame_needed = 0, uses_anonymous_args = 0
 282              		@ link register save eliminated.
 283 0000 C36D     		ldr	r3, [r0, #92]
 284 0002 8B42     		cmp	r3, r1
 285 0004 B8BF     		it	lt
 286 0006 C165     		strlt	r1, [r0, #92]
 287 0008 036E     		ldr	r3, [r0, #96]
 288 000a 8B42     		cmp	r3, r1
 289 000c 044B     		ldr	r3, .L35
 290 000e C8BF     		it	gt
 291 0010 0166     		strgt	r1, [r0, #96]
 292 0012 A3F85C14 		strh	r1, [r3, #1116]	@ movhi
ARM GAS  /var/folders/b1/22c950295gx2kqj80tvj8wqc0000gn/T//ccnIszk3.s 			page 6


 293 0016 8162     		str	r1, [r0, #40]
 294 0018 09B9     		cbnz	r1, .L33
 295 001a C162     		str	r1, [r0, #44]
 296 001c 7047     		bx	lr
 297              	.L33:
 298 001e 7047     		bx	lr
 299              	.L36:
 300              		.align	2
 301              	.L35:
 302 0020 00000000 		.word	core
 303              		.cantunwind
 304              		.fnend
 306              		.section	.text._ZN16QuantityAdjuster10triggerHitEv,"ax",%progbits
 307              		.align	1
 308              		.global	_ZN16QuantityAdjuster10triggerHitEv
 309              		.syntax unified
 310              		.thumb
 311              		.thumb_func
 313              	_ZN16QuantityAdjuster10triggerHitEv:
 314              		.fnstart
 315              	.LFB932:
 316              		@ args = 0, pretend = 0, frame = 0
 317              		@ frame_needed = 0, uses_anonymous_args = 0
 318              		@ link register save eliminated.
 319 0000 0123     		movs	r3, #1
 320 0002 80F82430 		strb	r3, [r0, #36]
 321 0006 7047     		bx	lr
 322              		.cantunwind
 323              		.fnend
 325              		.section	.bss._ZL7qaCalls,"aw",%nobits
 326              		.set	.LANCHOR0,. + 0
 329              	_ZL7qaCalls:
 330 0000 00       		.space	1
 331              		.ident	"GCC: (Arm GNU Toolchain 11.3.Rel1) 11.3.1 20220712"
ARM GAS  /var/folders/b1/22c950295gx2kqj80tvj8wqc0000gn/T//ccnIszk3.s 			page 7

