ARM GAS  /var/folders/b1/22c950295gx2kqj80tvj8wqc0000gn/T//cctzyARd.s 			page 1


   1              		.cpu cortex-m4
   2              		.arch armv7e-m
   3              		.fpu fpv4-sp-d16
   4              		.eabi_attribute 27, 1
   5              		.eabi_attribute 28, 1
   6              		.eabi_attribute 20, 1
   7              		.eabi_attribute 21, 1
   8              		.eabi_attribute 23, 3
   9              		.eabi_attribute 24, 1
  10              		.eabi_attribute 25, 1
  11              		.eabi_attribute 26, 1
  12              		.eabi_attribute 30, 4
  13              		.eabi_attribute 34, 1
  14              		.eabi_attribute 18, 4
  15              		.file	"RPMDefaultCPS.cpp"
  16              		.text
  17              		.section	.text._ZN13RPMDefaultCps4initEv,"ax",%progbits
  18              		.align	1
  19              		.global	_ZN13RPMDefaultCps4initEv
  20              		.syntax unified
  21              		.thumb
  22              		.thumb_func
  24              	_ZN13RPMDefaultCps4initEv:
  25              		.fnstart
  26              	.LFB135:
  27              		@ args = 0, pretend = 0, frame = 0
  28              		@ frame_needed = 0, uses_anonymous_args = 0
  29              		@ link register save eliminated.
  30 0000 034B     		ldr	r3, .L2
  31 0002 0022     		movs	r2, #0
  32 0004 1A80     		strh	r2, [r3]	@ movhi
  33 0006 034B     		ldr	r3, .L2+4
  34 0008 0122     		movs	r2, #1
  35 000a 1A70     		strb	r2, [r3]
  36 000c 7047     		bx	lr
  37              	.L3:
  38 000e 00BF     		.align	2
  39              	.L2:
  40 0010 00000000 		.word	rpm_duration
  41 0014 00000000 		.word	rpm_overflow
  42              		.cantunwind
  43              		.fnend
  45              		.section	.text._ZN13RPMDefaultCps17getLatestRawValueEv,"ax",%progbits
  46              		.align	1
  47              		.global	_ZN13RPMDefaultCps17getLatestRawValueEv
  48              		.syntax unified
  49              		.thumb
  50              		.thumb_func
  52              	_ZN13RPMDefaultCps17getLatestRawValueEv:
  53              		.fnstart
  54              	.LFB137:
  55              		@ args = 0, pretend = 0, frame = 0
  56              		@ frame_needed = 0, uses_anonymous_args = 0
  57              		@ link register save eliminated.
  58 0000 014B     		ldr	r3, .L5
  59 0002 1888     		ldrh	r0, [r3]
  60 0004 80B2     		uxth	r0, r0
ARM GAS  /var/folders/b1/22c950295gx2kqj80tvj8wqc0000gn/T//cctzyARd.s 			page 2


  61 0006 7047     		bx	lr
  62              	.L6:
  63              		.align	2
  64              	.L5:
  65 0008 00000000 		.word	rpm_duration
  66              		.cantunwind
  67              		.fnend
  69              		.section	.text._ZN13RPMDefaultCps18getInjectionTimingEv,"ax",%progbits
  70              		.align	1
  71              		.global	_ZN13RPMDefaultCps18getInjectionTimingEv
  72              		.syntax unified
  73              		.thumb
  74              		.thumb_func
  76              	_ZN13RPMDefaultCps18getInjectionTimingEv:
  77              		.fnstart
  78              	.LFB138:
  79              		@ args = 0, pretend = 0, frame = 0
  80              		@ frame_needed = 0, uses_anonymous_args = 0
  81 0000 08B5     		push	{r3, lr}
  82              		.save {r3, lr}
  83 0002 FFF7FEFF 		bl	HAL_GetTick
  84 0006 054B     		ldr	r3, .L10
  85 0008 1B68     		ldr	r3, [r3]
  86 000a C01A     		subs	r0, r0, r3
  87 000c B0F5FA7F 		cmp	r0, #500
  88 0010 3BBF     		ittet	cc
  89 0012 034B     		ldrcc	r3, .L10+4
  90 0014 1888     		ldrhcc	r0, [r3]
  91 0016 0020     		movcs	r0, #0
  92 0018 80B2     		uxthcc	r0, r0
  93 001a 08BD     		pop	{r3, pc}
  94              	.L11:
  95              		.align	2
  96              	.L10:
  97 001c 00000000 		.word	trigger_last_hit
  98 0020 00000000 		.word	rpm_injection_trigger
  99              		.fnend
 101              		.section	.text._ZN13RPMDefaultCps16getLatestMeasureEv,"ax",%progbits
 102              		.align	1
 103              		.global	_ZN13RPMDefaultCps16getLatestMeasureEv
 104              		.syntax unified
 105              		.thumb
 106              		.thumb_func
 108              	_ZN13RPMDefaultCps16getLatestMeasureEv:
 109              		.fnstart
 110              	.LFB136:
 111              		@ args = 0, pretend = 0, frame = 0
 112              		@ frame_needed = 0, uses_anonymous_args = 0
 113              		@ link register save eliminated.
 114 0000 074B     		ldr	r3, .L15
 115 0002 1B78     		ldrb	r3, [r3]	@ zero_extendqisi2
 116 0004 53B9     		cbnz	r3, .L14
 117 0006 074B     		ldr	r3, .L15+4
 118 0008 1B88     		ldrh	r3, [r3]
 119 000a 4FF47000 		mov	r0, #15728640
 120 000e 9BB2     		uxth	r3, r3
 121 0010 B0FBF3F0 		udiv	r0, r0, r3
ARM GAS  /var/folders/b1/22c950295gx2kqj80tvj8wqc0000gn/T//cctzyARd.s 			page 3


 122 0014 0523     		movs	r3, #5
 123 0016 B0FBF3F0 		udiv	r0, r0, r3
 124 001a 7047     		bx	lr
 125              	.L14:
 126 001c 0020     		movs	r0, #0
 127 001e 7047     		bx	lr
 128              	.L16:
 129              		.align	2
 130              	.L15:
 131 0020 00000000 		.word	rpm_overflow
 132 0024 00000000 		.word	rpm_duration
 133              		.cantunwind
 134              		.fnend
 136              		.global	_ZTS13RPMDefaultCps
 137              		.global	_ZTI13RPMDefaultCps
 138              		.global	_ZTV13RPMDefaultCps
 139              		.section	.rodata._ZTI13RPMDefaultCps,"a"
 140              		.align	2
 143              	_ZTI13RPMDefaultCps:
 144 0000 08000000 		.word	_ZTVN10__cxxabiv120__si_class_type_infoE+8
 145 0004 00000000 		.word	_ZTS13RPMDefaultCps
 146 0008 00000000 		.word	_ZTI7RPMBase
 147              		.section	.rodata._ZTS13RPMDefaultCps,"a"
 150              	_ZTS13RPMDefaultCps:
 151 0000 31335250 		.ascii	"13RPMDefaultCps\000"
 151      4D446566 
 151      61756C74 
 151      43707300 
 152              		.section	.rodata._ZTV13RPMDefaultCps,"a"
 153              		.align	2
 156              	_ZTV13RPMDefaultCps:
 157 0000 00000000 		.word	0
 158 0004 00000000 		.word	_ZTI13RPMDefaultCps
 159 0008 00000000 		.word	_ZN13RPMDefaultCps4initEv
 160 000c 00000000 		.word	_ZN13RPMDefaultCps16getLatestMeasureEv
 161 0010 00000000 		.word	_ZN13RPMDefaultCps17getLatestRawValueEv
 162 0014 00000000 		.word	_ZN13RPMDefaultCps18getInjectionTimingEv
 163              		.ident	"GCC: (Arm GNU Toolchain 11.3.Rel1) 11.3.1 20220712"
ARM GAS  /var/folders/b1/22c950295gx2kqj80tvj8wqc0000gn/T//cctzyARd.s 			page 4

