ARM GAS  /var/folders/b1/22c950295gx2kqj80tvj8wqc0000gn/T//cc0P8L32.s 			page 1


   1              		.cpu cortex-m4
   2              		.arch armv7e-m
   3              		.fpu fpv4-sp-d16
   4              		.eabi_attribute 27, 1
   5              		.eabi_attribute 28, 1
   6              		.eabi_attribute 20, 1
   7              		.eabi_attribute 21, 1
   8              		.eabi_attribute 23, 3
   9              		.eabi_attribute 24, 1
  10              		.eabi_attribute 25, 1
  11              		.eabi_attribute 26, 1
  12              		.eabi_attribute 30, 4
  13              		.eabi_attribute 34, 1
  14              		.eabi_attribute 18, 4
  15              		.file	"Serial.cpp"
  16              		.text
  17              		.section	.text._ZN6SerialC2Ev,"ax",%progbits
  18              		.align	1
  19              		.global	_ZN6SerialC2Ev
  20              		.syntax unified
  21              		.thumb
  22              		.thumb_func
  24              	_ZN6SerialC2Ev:
  25              		.fnstart
  26              	.LFB1039:
  27              		@ args = 0, pretend = 0, frame = 0
  28              		@ frame_needed = 0, uses_anonymous_args = 0
  29 0000 10B5     		push	{r4, lr}
  30 0002 0023     		movs	r3, #0
  31 0004 A0F88A30 		strh	r3, [r0, #138]	@ movhi
  32 0008 0446     		mov	r4, r0
  33 000a A0F88830 		strh	r3, [r0, #136]	@ movhi
  34 000e 0371     		strb	r3, [r0, #4]
  35 0010 A0F88C30 		strh	r3, [r0, #140]	@ movhi
  36 0014 80F88E30 		strb	r3, [r0, #142]
  37 0018 A020     		movs	r0, #160
  38 001a FFF7FEFF 		bl	malloc
  39 001e 2060     		str	r0, [r4]
  40 0020 2046     		mov	r0, r4
  41 0022 10BD     		pop	{r4, pc}
  42              		.cantunwind
  43              		.fnend
  45              		.global	_ZN6SerialC1Ev
  46              		.thumb_set _ZN6SerialC1Ev,_ZN6SerialC2Ev
  47              		.section	.text._ZN6Serial11enableDmaRxEv,"ax",%progbits
  48              		.align	1
  49              		.global	_ZN6Serial11enableDmaRxEv
  50              		.syntax unified
  51              		.thumb
  52              		.thumb_func
  54              	_ZN6Serial11enableDmaRxEv:
  55              		.fnstart
  56              	.LFB1041:
  57              		@ args = 0, pretend = 0, frame = 0
  58              		@ frame_needed = 0, uses_anonymous_args = 0
  59              		@ link register save eliminated.
  60 0000 0123     		movs	r3, #1
ARM GAS  /var/folders/b1/22c950295gx2kqj80tvj8wqc0000gn/T//cc0P8L32.s 			page 2


  61 0002 0371     		strb	r3, [r0, #4]
  62 0004 411D     		adds	r1, r0, #5
  63 0006 0222     		movs	r2, #2
  64 0008 0148     		ldr	r0, .L3
  65 000a FFF7FEBF 		b	HAL_UART_Receive_DMA
  66              	.L4:
  67 000e 00BF     		.align	2
  68              	.L3:
  69 0010 00000000 		.word	huart2
  70              		.cantunwind
  71              		.fnend
  73              		.section	.text._ZN6Serial5writeEc,"ax",%progbits
  74              		.align	1
  75              		.global	_ZN6Serial5writeEc
  76              		.syntax unified
  77              		.thumb
  78              		.thumb_func
  80              	_ZN6Serial5writeEc:
  81              		.fnstart
  82              	.LFB1042:
  83              		@ args = 0, pretend = 0, frame = 8
  84              		@ frame_needed = 0, uses_anonymous_args = 0
  85 0000 07B5     		push	{r0, r1, r2, lr}
  86              		.save {lr}
  87              		.pad #12
  88 0002 0023     		movs	r3, #0
  89 0004 8DF80710 		strb	r1, [sp, #7]
  90 0008 0122     		movs	r2, #1
  91 000a 0DF10701 		add	r1, sp, #7
  92 000e 0348     		ldr	r0, .L6
  93 0010 FFF7FEFF 		bl	HAL_UART_Transmit
  94 0014 03B0     		add	sp, sp, #12
  95              		@ sp needed
  96 0016 5DF804FB 		ldr	pc, [sp], #4
  97              	.L7:
  98 001a 00BF     		.align	2
  99              	.L6:
 100 001c 00000000 		.word	huart2
 101              		.fnend
 103              		.section	.text._ZN6Serial5printEPKc,"ax",%progbits
 104              		.align	1
 105              		.global	_ZN6Serial5printEPKc
 106              		.syntax unified
 107              		.thumb
 108              		.thumb_func
 110              	_ZN6Serial5printEPKc:
 111              		.fnstart
 112              	.LFB1043:
 113              		@ args = 0, pretend = 0, frame = 8
 114              		@ frame_needed = 0, uses_anonymous_args = 0
 115 0000 07B5     		push	{r0, r1, r2, lr}
 116 0002 0846     		mov	r0, r1
 117 0004 0191     		str	r1, [sp, #4]
 118 0006 FFF7FEFF 		bl	strlen
 119 000a 0199     		ldr	r1, [sp, #4]
 120 000c 82B2     		uxth	r2, r0
 121 000e 0448     		ldr	r0, .L9
ARM GAS  /var/folders/b1/22c950295gx2kqj80tvj8wqc0000gn/T//cc0P8L32.s 			page 3


 122 0010 4FF47A73 		mov	r3, #1000
 123 0014 03B0     		add	sp, sp, #12
 124              		@ sp needed
 125 0016 5DF804EB 		ldr	lr, [sp], #4
 126 001a FFF7FEBF 		b	HAL_UART_Transmit
 127              	.L10:
 128 001e 00BF     		.align	2
 129              	.L9:
 130 0020 00000000 		.word	huart2
 131              		.cantunwind
 132              		.fnend
 134              		.section	.text._ZN6Serial6printfEPKcz,"ax",%progbits
 135              		.align	1
 136              		.global	_ZN6Serial6printfEPKcz
 137              		.syntax unified
 138              		.thumb
 139              		.thumb_func
 141              	_ZN6Serial6printfEPKcz:
 142              		.fnstart
 143              	.LFB1044:
 144              		@ args = 4, pretend = 12, frame = 8
 145              		@ frame_needed = 0, uses_anonymous_args = 1
 146 0000 0EB4     		push	{r1, r2, r3}
 147              		.save {r1, r2, r3}
 148 0002 17B5     		push	{r0, r1, r2, r4, lr}
 149              		.save {r4, lr}
 150              		.pad #12
 151 0004 05AA     		add	r2, sp, #20
 152 0006 0446     		mov	r4, r0
 153 0008 52F8041B 		ldr	r1, [r2], #4
 154 000c 0068     		ldr	r0, [r0]
 155 000e 0192     		str	r2, [sp, #4]
 156 0010 FFF7FEFF 		bl	vsprintf
 157 0014 2168     		ldr	r1, [r4]
 158 0016 82B2     		uxth	r2, r0
 159 0018 4FF47A73 		mov	r3, #1000
 160 001c 0348     		ldr	r0, .L12
 161 001e FFF7FEFF 		bl	HAL_UART_Transmit
 162 0022 03B0     		add	sp, sp, #12
 163              		@ sp needed
 164 0024 BDE81040 		pop	{r4, lr}
 165 0028 03B0     		add	sp, sp, #12
 166 002a 7047     		bx	lr
 167              	.L13:
 168              		.align	2
 169              	.L12:
 170 002c 00000000 		.word	huart2
 171              		.fnend
 173              		.section	.text._ZN6Serial6printfEPKcSt9__va_list,"ax",%progbits
 174              		.align	1
 175              		.global	_ZN6Serial6printfEPKcSt9__va_list
 176              		.syntax unified
 177              		.thumb
 178              		.thumb_func
 180              	_ZN6Serial6printfEPKcSt9__va_list:
 181              		.fnstart
 182              	.LFB1045:
ARM GAS  /var/folders/b1/22c950295gx2kqj80tvj8wqc0000gn/T//cc0P8L32.s 			page 4


 183              		@ args = 0, pretend = 0, frame = 0
 184              		@ frame_needed = 0, uses_anonymous_args = 0
 185 0000 10B5     		push	{r4, lr}
 186 0002 0446     		mov	r4, r0
 187 0004 0068     		ldr	r0, [r0]
 188 0006 FFF7FEFF 		bl	vsprintf
 189 000a 2168     		ldr	r1, [r4]
 190 000c 82B2     		uxth	r2, r0
 191 000e BDE81040 		pop	{r4, lr}
 192 0012 0248     		ldr	r0, .L15
 193 0014 4FF47A73 		mov	r3, #1000
 194 0018 FFF7FEBF 		b	HAL_UART_Transmit
 195              	.L16:
 196              		.align	2
 197              	.L15:
 198 001c 00000000 		.word	huart2
 199              		.cantunwind
 200              		.fnend
 202              		.section	.rodata._ZN6Serial5printEi.str1.1,"aMS",%progbits,1
 203              	.LC0:
 204 0000 256900   		.ascii	"%i\000"
 205              		.section	.text._ZN6Serial5printEi,"ax",%progbits
 206              		.align	1
 207              		.global	_ZN6Serial5printEi
 208              		.syntax unified
 209              		.thumb
 210              		.thumb_func
 212              	_ZN6Serial5printEi:
 213              		.fnstart
 214              	.LFB1046:
 215              		@ args = 0, pretend = 0, frame = 0
 216              		@ frame_needed = 0, uses_anonymous_args = 0
 217              		@ link register save eliminated.
 218 0000 0A46     		mov	r2, r1
 219 0002 0149     		ldr	r1, .L18
 220 0004 FFF7FEBF 		b	_ZN6Serial6printfEPKcz
 221              	.L19:
 222              		.align	2
 223              	.L18:
 224 0008 00000000 		.word	.LC0
 225              		.cantunwind
 226              		.fnend
 228              		.section	.text._ZN6Serial9printPadsEhc,"ax",%progbits
 229              		.align	1
 230              		.global	_ZN6Serial9printPadsEhc
 231              		.syntax unified
 232              		.thumb
 233              		.thumb_func
 235              	_ZN6Serial9printPadsEhc:
 236              		.fnstart
 237              	.LFB1047:
 238              		@ args = 0, pretend = 0, frame = 0
 239              		@ frame_needed = 0, uses_anonymous_args = 0
 240 0000 38B5     		push	{r3, r4, r5, lr}
 241 0002 0446     		mov	r4, r0
 242 0004 0D46     		mov	r5, r1
 243 0006 0068     		ldr	r0, [r0]
ARM GAS  /var/folders/b1/22c950295gx2kqj80tvj8wqc0000gn/T//cc0P8L32.s 			page 5


 244 0008 1146     		mov	r1, r2
 245 000a 2A46     		mov	r2, r5
 246 000c FFF7FEFF 		bl	memset
 247 0010 2368     		ldr	r3, [r4]
 248 0012 0022     		movs	r2, #0
 249 0014 5A55     		strb	r2, [r3, r5]
 250 0016 2046     		mov	r0, r4
 251 0018 2168     		ldr	r1, [r4]
 252 001a BDE83840 		pop	{r3, r4, r5, lr}
 253 001e FFF7FEBF 		b	_ZN6Serial5printEPKc
 254              		.cantunwind
 255              		.fnend
 257              		.section	.text._ZN6Serial16printWithPaddingEihc,"ax",%progbits
 258              		.align	1
 259              		.global	_ZN6Serial16printWithPaddingEihc
 260              		.syntax unified
 261              		.thumb
 262              		.thumb_func
 264              	_ZN6Serial16printWithPaddingEihc:
 265              		.fnstart
 266              	.LFB1048:
 267              		@ args = 0, pretend = 0, frame = 0
 268              		@ frame_needed = 0, uses_anonymous_args = 0
 269 0000 70B5     		push	{r4, r5, r6, lr}
 270              		.save {r4, r5, r6, lr}
 271 0002 0546     		mov	r5, r0
 272 0004 0E46     		mov	r6, r1
 273 0006 1446     		mov	r4, r2
 274 0008 1946     		mov	r1, r3
 275 000a 1E22     		movs	r2, #30
 276 000c 0068     		ldr	r0, [r0]
 277 000e FFF7FEFF 		bl	memset
 278 0012 2968     		ldr	r1, [r5]
 279 0014 0A22     		movs	r2, #10
 280 0016 1E31     		adds	r1, r1, #30
 281 0018 3046     		mov	r0, r6
 282 001a FFF7FEFF 		bl	itoa
 283 001e 2E68     		ldr	r6, [r5]
 284 0020 06F11E00 		add	r0, r6, #30
 285 0024 FFF7FEFF 		bl	strlen
 286 0028 C4F11E04 		rsb	r4, r4, #30
 287 002c 0444     		add	r4, r4, r0
 288 002e 3119     		adds	r1, r6, r4
 289 0030 2846     		mov	r0, r5
 290 0032 BDE87040 		pop	{r4, r5, r6, lr}
 291 0036 FFF7FEBF 		b	_ZN6Serial5printEPKc
 292              		.fnend
 294              		.section	.text._ZN6Serial16printWithPaddingEPKchc,"ax",%progbits
 295              		.align	1
 296              		.global	_ZN6Serial16printWithPaddingEPKchc
 297              		.syntax unified
 298              		.thumb
 299              		.thumb_func
 301              	_ZN6Serial16printWithPaddingEPKchc:
 302              		.fnstart
 303              	.LFB1049:
 304              		@ args = 0, pretend = 0, frame = 0
ARM GAS  /var/folders/b1/22c950295gx2kqj80tvj8wqc0000gn/T//cc0P8L32.s 			page 6


 305              		@ frame_needed = 0, uses_anonymous_args = 0
 306 0000 70B5     		push	{r4, r5, r6, lr}
 307 0002 0546     		mov	r5, r0
 308 0004 0E46     		mov	r6, r1
 309 0006 1446     		mov	r4, r2
 310 0008 1946     		mov	r1, r3
 311 000a 1E22     		movs	r2, #30
 312 000c 0068     		ldr	r0, [r0]
 313 000e FFF7FEFF 		bl	memset
 314 0012 2868     		ldr	r0, [r5]
 315 0014 3146     		mov	r1, r6
 316 0016 1E30     		adds	r0, r0, #30
 317 0018 FFF7FEFF 		bl	strcpy
 318 001c 2E68     		ldr	r6, [r5]
 319 001e 06F11E00 		add	r0, r6, #30
 320 0022 FFF7FEFF 		bl	strlen
 321 0026 C4F11E04 		rsb	r4, r4, #30
 322 002a 0444     		add	r4, r4, r0
 323 002c 3119     		adds	r1, r6, r4
 324 002e 2846     		mov	r0, r5
 325 0030 BDE87040 		pop	{r4, r5, r6, lr}
 326 0034 FFF7FEBF 		b	_ZN6Serial5printEPKc
 327              		.cantunwind
 328              		.fnend
 330              		.section	.rodata._ZN6Serial10ansiGotoXyEcc.str1.1,"aMS",%progbits,1
 331              	.LC1:
 332 0000 1B5B2569 		.ascii	"\033[%i;%iH\000"
 332      3B256948 
 332      00
 333              		.section	.text._ZN6Serial10ansiGotoXyEcc,"ax",%progbits
 334              		.align	1
 335              		.global	_ZN6Serial10ansiGotoXyEcc
 336              		.syntax unified
 337              		.thumb
 338              		.thumb_func
 340              	_ZN6Serial10ansiGotoXyEcc:
 341              		.fnstart
 342              	.LFB1050:
 343              		@ args = 0, pretend = 0, frame = 0
 344              		@ frame_needed = 0, uses_anonymous_args = 0
 345              		@ link register save eliminated.
 346 0000 0B46     		mov	r3, r1
 347 0002 0149     		ldr	r1, .L24
 348 0004 FFF7FEBF 		b	_ZN6Serial6printfEPKcz
 349              	.L25:
 350              		.align	2
 351              	.L24:
 352 0008 00000000 		.word	.LC1
 353              		.cantunwind
 354              		.fnend
 356              		.section	.rodata._ZN6Serial15ansiClearScreenEv.str1.1,"aMS",%progbits,1
 357              	.LC2:
 358 0000 1B5B324A 		.ascii	"\033[2J\033[H\000"
 358      1B5B4800 
 359              		.section	.text._ZN6Serial15ansiClearScreenEv,"ax",%progbits
 360              		.align	1
 361              		.global	_ZN6Serial15ansiClearScreenEv
ARM GAS  /var/folders/b1/22c950295gx2kqj80tvj8wqc0000gn/T//cc0P8L32.s 			page 7


 362              		.syntax unified
 363              		.thumb
 364              		.thumb_func
 366              	_ZN6Serial15ansiClearScreenEv:
 367              		.fnstart
 368              	.LFB1051:
 369              		@ args = 0, pretend = 0, frame = 8
 370              		@ frame_needed = 0, uses_anonymous_args = 0
 371 0000 13B5     		push	{r0, r1, r4, lr}
 372              		.save {r4, lr}
 373              		.pad #8
 374 0002 064A     		ldr	r2, .L27
 375 0004 0446     		mov	r4, r0
 376 0006 5168     		ldr	r1, [r2, #4]	@ unaligned
 377 0008 1068     		ldr	r0, [r2]	@ unaligned
 378 000a 6B46     		mov	r3, sp
 379 000c 03C3     		stmia	r3!, {r0, r1}
 380 000e 6946     		mov	r1, sp
 381 0010 2046     		mov	r0, r4
 382 0012 FFF7FEFF 		bl	_ZN6Serial5printEPKc
 383 0016 02B0     		add	sp, sp, #8
 384              		@ sp needed
 385 0018 10BD     		pop	{r4, pc}
 386              	.L28:
 387 001a 00BF     		.align	2
 388              	.L27:
 389 001c 00000000 		.word	.LC2
 390              		.fnend
 392              		.section	.rodata._ZN6Serial17ansiClearEolAndLfEv.str1.1,"aMS",%progbits,1
 393              	.LC3:
 394 0000 1B5B4B0D 		.ascii	"\033[K\015\012\000"
 394      0A00
 395              		.section	.text._ZN6Serial17ansiClearEolAndLfEv,"ax",%progbits
 396              		.align	1
 397              		.global	_ZN6Serial17ansiClearEolAndLfEv
 398              		.syntax unified
 399              		.thumb
 400              		.thumb_func
 402              	_ZN6Serial17ansiClearEolAndLfEv:
 403              		.fnstart
 404              	.LFB1052:
 405              		@ args = 0, pretend = 0, frame = 8
 406              		@ frame_needed = 0, uses_anonymous_args = 0
 407 0000 07B5     		push	{r0, r1, r2, lr}
 408              		.save {lr}
 409              		.pad #12
 410 0002 074B     		ldr	r3, .L30
 411 0004 0246     		mov	r2, r0
 412 0006 1868     		ldr	r0, [r3]	@ unaligned
 413 0008 0090     		str	r0, [sp]
 414 000a 9B88     		ldrh	r3, [r3, #4]	@ unaligned
 415 000c ADF80430 		strh	r3, [sp, #4]	@ unaligned
 416 0010 6946     		mov	r1, sp
 417 0012 1046     		mov	r0, r2
 418 0014 FFF7FEFF 		bl	_ZN6Serial5printEPKc
 419 0018 03B0     		add	sp, sp, #12
 420              		@ sp needed
ARM GAS  /var/folders/b1/22c950295gx2kqj80tvj8wqc0000gn/T//cc0P8L32.s 			page 8


 421 001a 5DF804FB 		ldr	pc, [sp], #4
 422              	.L31:
 423 001e 00BF     		.align	2
 424              	.L30:
 425 0020 00000000 		.word	.LC3
 426              		.fnend
 428              		.section	.text._ZN6Serial12ansiClearEolEv,"ax",%progbits
 429              		.align	1
 430              		.global	_ZN6Serial12ansiClearEolEv
 431              		.syntax unified
 432              		.thumb
 433              		.thumb_func
 435              	_ZN6Serial12ansiClearEolEv:
 436              		.fnstart
 437              	.LFB1053:
 438              		@ args = 0, pretend = 0, frame = 8
 439              		@ frame_needed = 0, uses_anonymous_args = 0
 440 0000 07B5     		push	{r0, r1, r2, lr}
 441              		.save {lr}
 442              		.pad #12
 443 0002 044B     		ldr	r3, .L33
 444 0004 0193     		str	r3, [sp, #4]
 445 0006 01A9     		add	r1, sp, #4
 446 0008 FFF7FEFF 		bl	_ZN6Serial5printEPKc
 447 000c 03B0     		add	sp, sp, #12
 448              		@ sp needed
 449 000e 5DF804FB 		ldr	pc, [sp], #4
 450              	.L34:
 451 0012 00BF     		.align	2
 452              	.L33:
 453 0014 1B5B4B00 		.word	4938523
 454              		.fnend
 456              		.section	.text._ZN6Serial12ansiClearEosEv,"ax",%progbits
 457              		.align	1
 458              		.global	_ZN6Serial12ansiClearEosEv
 459              		.syntax unified
 460              		.thumb
 461              		.thumb_func
 463              	_ZN6Serial12ansiClearEosEv:
 464              		.fnstart
 465              	.LFB1054:
 466              		@ args = 0, pretend = 0, frame = 8
 467              		@ frame_needed = 0, uses_anonymous_args = 0
 468 0000 07B5     		push	{r0, r1, r2, lr}
 469              		.save {lr}
 470              		.pad #12
 471 0002 044B     		ldr	r3, .L36
 472 0004 0193     		str	r3, [sp, #4]
 473 0006 01A9     		add	r1, sp, #4
 474 0008 FFF7FEFF 		bl	_ZN6Serial5printEPKc
 475 000c 03B0     		add	sp, sp, #12
 476              		@ sp needed
 477 000e 5DF804FB 		ldr	pc, [sp], #4
 478              	.L37:
 479 0012 00BF     		.align	2
 480              	.L36:
 481 0014 1B5B4A00 		.word	4872987
ARM GAS  /var/folders/b1/22c950295gx2kqj80tvj8wqc0000gn/T//cc0P8L32.s 			page 9


 482              		.fnend
 484              		.section	.rodata._ZN6Serial14ansiHideCursorEb.str1.1,"aMS",%progbits,1
 485              	.LC4:
 486 0000 6C00     		.ascii	"l\000"
 487              	.LC5:
 488 0002 6D00     		.ascii	"m\000"
 489              	.LC6:
 490 0004 1B5B3F32 		.ascii	"\033[?25%s\000"
 490      35257300 
 491              		.section	.text._ZN6Serial14ansiHideCursorEb,"ax",%progbits
 492              		.align	1
 493              		.global	_ZN6Serial14ansiHideCursorEb
 494              		.syntax unified
 495              		.thumb
 496              		.thumb_func
 498              	_ZN6Serial14ansiHideCursorEb:
 499              		.fnstart
 500              	.LFB1055:
 501              		@ args = 0, pretend = 0, frame = 0
 502              		@ frame_needed = 0, uses_anonymous_args = 0
 503              		@ link register save eliminated.
 504 0000 10B4     		push	{r4}
 505 0002 054A     		ldr	r2, .L41
 506 0004 054C     		ldr	r4, .L41+4
 507 0006 0029     		cmp	r1, #0
 508 0008 18BF     		it	ne
 509 000a 2246     		movne	r2, r4
 510 000c 0449     		ldr	r1, .L41+8
 511 000e 5DF8044B 		ldr	r4, [sp], #4
 512 0012 FFF7FEBF 		b	_ZN6Serial6printfEPKcz
 513              	.L42:
 514 0016 00BF     		.align	2
 515              	.L41:
 516 0018 02000000 		.word	.LC5
 517 001c 00000000 		.word	.LC4
 518 0020 04000000 		.word	.LC6
 519              		.cantunwind
 520              		.fnend
 522              		.section	.rodata._ZN6Serial14ansiSetReverseEb.str1.1,"aMS",%progbits,1
 523              	.LC7:
 524 0000 3700     		.ascii	"7\000"
 525              	.LC8:
 526 0002 3000     		.ascii	"0\000"
 527              	.LC9:
 528 0004 1B5B2573 		.ascii	"\033[%sm\000"
 528      6D00
 529              		.section	.text._ZN6Serial14ansiSetReverseEb,"ax",%progbits
 530              		.align	1
 531              		.global	_ZN6Serial14ansiSetReverseEb
 532              		.syntax unified
 533              		.thumb
 534              		.thumb_func
 536              	_ZN6Serial14ansiSetReverseEb:
 537              		.fnstart
 538              	.LFB1056:
 539              		@ args = 0, pretend = 0, frame = 0
 540              		@ frame_needed = 0, uses_anonymous_args = 0
ARM GAS  /var/folders/b1/22c950295gx2kqj80tvj8wqc0000gn/T//cc0P8L32.s 			page 10


 541              		@ link register save eliminated.
 542 0000 10B4     		push	{r4}
 543 0002 054A     		ldr	r2, .L46
 544 0004 054C     		ldr	r4, .L46+4
 545 0006 0029     		cmp	r1, #0
 546 0008 18BF     		it	ne
 547 000a 2246     		movne	r2, r4
 548 000c 0449     		ldr	r1, .L46+8
 549 000e 5DF8044B 		ldr	r4, [sp], #4
 550 0012 FFF7FEBF 		b	_ZN6Serial6printfEPKcz
 551              	.L47:
 552 0016 00BF     		.align	2
 553              	.L46:
 554 0018 02000000 		.word	.LC8
 555 001c 00000000 		.word	.LC7
 556 0020 04000000 		.word	.LC9
 557              		.cantunwind
 558              		.fnend
 560              		.section	.rodata._ZN6Serial11ansiSetBoldEb.str1.1,"aMS",%progbits,1
 561              	.LC10:
 562 0000 3100     		.ascii	"1\000"
 563              		.section	.text._ZN6Serial11ansiSetBoldEb,"ax",%progbits
 564              		.align	1
 565              		.global	_ZN6Serial11ansiSetBoldEb
 566              		.syntax unified
 567              		.thumb
 568              		.thumb_func
 570              	_ZN6Serial11ansiSetBoldEb:
 571              		.fnstart
 572              	.LFB1057:
 573              		@ args = 0, pretend = 0, frame = 0
 574              		@ frame_needed = 0, uses_anonymous_args = 0
 575              		@ link register save eliminated.
 576 0000 10B4     		push	{r4}
 577 0002 054A     		ldr	r2, .L51
 578 0004 054C     		ldr	r4, .L51+4
 579 0006 0029     		cmp	r1, #0
 580 0008 18BF     		it	ne
 581 000a 2246     		movne	r2, r4
 582 000c 0449     		ldr	r1, .L51+8
 583 000e 5DF8044B 		ldr	r4, [sp], #4
 584 0012 FFF7FEBF 		b	_ZN6Serial6printfEPKcz
 585              	.L52:
 586 0016 00BF     		.align	2
 587              	.L51:
 588 0018 02000000 		.word	.LC8
 589 001c 00000000 		.word	.LC10
 590 0020 04000000 		.word	.LC9
 591              		.cantunwind
 592              		.fnend
 594              		.section	.rodata._ZN6Serial9ansiResetEv.str1.1,"aMS",%progbits,1
 595              	.LC11:
 596 0000 1B5B306D 		.ascii	"\033[0m\000"
 596      00
 597              		.section	.text._ZN6Serial9ansiResetEv,"ax",%progbits
 598              		.align	1
 599              		.global	_ZN6Serial9ansiResetEv
ARM GAS  /var/folders/b1/22c950295gx2kqj80tvj8wqc0000gn/T//cc0P8L32.s 			page 11


 600              		.syntax unified
 601              		.thumb
 602              		.thumb_func
 604              	_ZN6Serial9ansiResetEv:
 605              		.fnstart
 606              	.LFB1058:
 607              		@ args = 0, pretend = 0, frame = 0
 608              		@ frame_needed = 0, uses_anonymous_args = 0
 609              		@ link register save eliminated.
 610 0000 0149     		ldr	r1, .L54
 611 0002 FFF7FEBF 		b	_ZN6Serial6printfEPKcz
 612              	.L55:
 613 0006 00BF     		.align	2
 614              	.L54:
 615 0008 00000000 		.word	.LC11
 616              		.cantunwind
 617              		.fnend
 619              		.section	.text._ZN6Serial9availableEv,"ax",%progbits
 620              		.align	1
 621              		.global	_ZN6Serial9availableEv
 622              		.syntax unified
 623              		.thumb
 624              		.thumb_func
 626              	_ZN6Serial9availableEv:
 627              		.fnstart
 628              	.LFB1060:
 629              		@ args = 0, pretend = 0, frame = 0
 630              		@ frame_needed = 0, uses_anonymous_args = 0
 631              		@ link register save eliminated.
 632 0000 0379     		ldrb	r3, [r0, #4]	@ zero_extendqisi2
 633 0002 1BB1     		cbz	r3, .L57
 634 0004 B0F88C00 		ldrh	r0, [r0, #140]
 635 0008 80B2     		uxth	r0, r0
 636 000a 7047     		bx	lr
 637              	.L57:
 638 000c 024B     		ldr	r3, .L59
 639 000e 1B68     		ldr	r3, [r3]
 640 0010 D869     		ldr	r0, [r3, #28]
 641 0012 C0F34010 		ubfx	r0, r0, #5, #1
 642 0016 7047     		bx	lr
 643              	.L60:
 644              		.align	2
 645              	.L59:
 646 0018 00000000 		.word	huart2
 647              		.cantunwind
 648              		.fnend
 650              		.section	.text._ZN6Serial4pollEm,"ax",%progbits
 651              		.align	1
 652              		.global	_ZN6Serial4pollEm
 653              		.syntax unified
 654              		.thumb
 655              		.thumb_func
 657              	_ZN6Serial4pollEm:
 658              		.fnstart
 659              	.LFB1059:
 660              		@ args = 0, pretend = 0, frame = 0
 661              		@ frame_needed = 0, uses_anonymous_args = 0
ARM GAS  /var/folders/b1/22c950295gx2kqj80tvj8wqc0000gn/T//cc0P8L32.s 			page 12


 662 0000 38B5     		push	{r3, r4, r5, lr}
 663              		.save {r3, r4, r5, lr}
 664 0002 0379     		ldrb	r3, [r0, #4]	@ zero_extendqisi2
 665 0004 0546     		mov	r5, r0
 666 0006 0C46     		mov	r4, r1
 667 0008 43B1     		cbz	r3, .L62
 668 000a FFF7FEFF 		bl	HAL_GetTick
 669 000e 0444     		add	r4, r4, r0
 670              	.L63:
 671 0010 FFF7FEFF 		bl	HAL_GetTick
 672 0014 8442     		cmp	r4, r0
 673 0016 FBD8     		bhi	.L63
 674              	.L64:
 675 0018 0020     		movs	r0, #0
 676              	.L61:
 677 001a 38BD     		pop	{r3, r4, r5, pc}
 678              	.L62:
 679 001c FFF7FEFF 		bl	HAL_GetTick
 680 0020 0444     		add	r4, r4, r0
 681              	.L66:
 682 0022 FFF7FEFF 		bl	HAL_GetTick
 683 0026 8442     		cmp	r4, r0
 684 0028 F6D9     		bls	.L64
 685 002a 2846     		mov	r0, r5
 686 002c FFF7FEFF 		bl	_ZN6Serial9availableEv
 687 0030 0028     		cmp	r0, #0
 688 0032 F6D0     		beq	.L66
 689 0034 0120     		movs	r0, #1
 690 0036 F0E7     		b	.L61
 691              		.fnend
 693              		.section	.text._ZN6Serial4readEv,"ax",%progbits
 694              		.align	1
 695              		.global	_ZN6Serial4readEv
 696              		.syntax unified
 697              		.thumb
 698              		.thumb_func
 700              	_ZN6Serial4readEv:
 701              		.fnstart
 702              	.LFB1062:
 703              		@ args = 0, pretend = 0, frame = 0
 704              		@ frame_needed = 0, uses_anonymous_args = 0
 705 0000 0379     		ldrb	r3, [r0, #4]	@ zero_extendqisi2
 706 0002 10B5     		push	{r4, lr}
 707              		.save {r4, lr}
 708 0004 0446     		mov	r4, r0
 709 0006 D3B1     		cbz	r3, .L70
 710 0008 0023     		movs	r3, #0
 711 000a 80F88E30 		strb	r3, [r0, #142]
 712 000e B0F88C00 		ldrh	r0, [r0, #140]
 713 0012 80B2     		uxth	r0, r0
 714 0014 90B1     		cbz	r0, .L71
 715 0016 B4F88C30 		ldrh	r3, [r4, #140]
 716 001a 013B     		subs	r3, r3, #1
 717 001c 9BB2     		uxth	r3, r3
 718 001e A4F88C30 		strh	r3, [r4, #140]	@ movhi
 719 0022 B4F88830 		ldrh	r3, [r4, #136]
 720 0026 14FA83F3 		uxtah	r3, r4, r3
ARM GAS  /var/folders/b1/22c950295gx2kqj80tvj8wqc0000gn/T//cc0P8L32.s 			page 13


 721 002a D879     		ldrb	r0, [r3, #7]	@ zero_extendqisi2
 722 002c B4F88830 		ldrh	r3, [r4, #136]
 723 0030 0133     		adds	r3, r3, #1
 724 0032 03F07F03 		and	r3, r3, #127
 725 0036 C0B2     		uxtb	r0, r0
 726 0038 A4F88830 		strh	r3, [r4, #136]	@ movhi
 727              	.L71:
 728 003c 10BD     		pop	{r4, pc}
 729              	.L70:
 730 003e 0648     		ldr	r0, .L73
 731 0040 FFF7FEFF 		bl	HAL_UART_AbortReceive
 732 0044 0448     		ldr	r0, .L73
 733 0046 6423     		movs	r3, #100
 734 0048 0122     		movs	r2, #1
 735 004a E11D     		adds	r1, r4, #7
 736 004c FFF7FEFF 		bl	HAL_UART_Receive
 737 0050 E079     		ldrb	r0, [r4, #7]	@ zero_extendqisi2
 738 0052 C0B2     		uxtb	r0, r0
 739 0054 F2E7     		b	.L71
 740              	.L74:
 741 0056 00BF     		.align	2
 742              	.L73:
 743 0058 00000000 		.word	huart2
 744              		.fnend
 746              		.section	.text._ZN6Serial4readEPhm,"ax",%progbits
 747              		.align	1
 748              		.global	_ZN6Serial4readEPhm
 749              		.syntax unified
 750              		.thumb
 751              		.thumb_func
 753              	_ZN6Serial4readEPhm:
 754              		.fnstart
 755              	.LFB1061:
 756              		@ args = 0, pretend = 0, frame = 0
 757              		@ frame_needed = 0, uses_anonymous_args = 0
 758 0000 F8B5     		push	{r3, r4, r5, r6, r7, lr}
 759              		.save {r3, r4, r5, r6, r7, lr}
 760 0002 B0F88C30 		ldrh	r3, [r0, #140]
 761 0006 9BB2     		uxth	r3, r3
 762 0008 9342     		cmp	r3, r2
 763 000a 1446     		mov	r4, r2
 764 000c 3CBF     		itt	cc
 765 000e B0F88C40 		ldrhcc	r4, [r0, #140]
 766 0012 A4B2     		uxthcc	r4, r4
 767 0014 0646     		mov	r6, r0
 768 0016 0D46     		mov	r5, r1
 769 0018 0F19     		adds	r7, r1, r4
 770              	.L77:
 771 001a BD42     		cmp	r5, r7
 772 001c 01D1     		bne	.L78
 773 001e 2046     		mov	r0, r4
 774 0020 F8BD     		pop	{r3, r4, r5, r6, r7, pc}
 775              	.L78:
 776 0022 3046     		mov	r0, r6
 777 0024 FFF7FEFF 		bl	_ZN6Serial4readEv
 778 0028 05F8010B 		strb	r0, [r5], #1
 779 002c F5E7     		b	.L77
ARM GAS  /var/folders/b1/22c950295gx2kqj80tvj8wqc0000gn/T//cc0P8L32.s 			page 14


 780              		.fnend
 782              		.section	.text._ZN6Serial23appendReceiveRingBufferEh,"ax",%progbits
 783              		.align	1
 784              		.global	_ZN6Serial23appendReceiveRingBufferEh
 785              		.syntax unified
 786              		.thumb
 787              		.thumb_func
 789              	_ZN6Serial23appendReceiveRingBufferEh:
 790              		.fnstart
 791              	.LFB1063:
 792              		@ args = 0, pretend = 0, frame = 0
 793              		@ frame_needed = 0, uses_anonymous_args = 0
 794              		@ link register save eliminated.
 795 0000 B0F88C30 		ldrh	r3, [r0, #140]
 796 0004 9BB2     		uxth	r3, r3
 797 0006 7F2B     		cmp	r3, #127
 798 0008 12D8     		bhi	.L80
 799 000a B0F88A30 		ldrh	r3, [r0, #138]
 800 000e 10FA83F3 		uxtah	r3, r0, r3
 801 0012 D971     		strb	r1, [r3, #7]
 802 0014 B0F88C30 		ldrh	r3, [r0, #140]
 803 0018 0133     		adds	r3, r3, #1
 804 001a 9BB2     		uxth	r3, r3
 805 001c A0F88C30 		strh	r3, [r0, #140]	@ movhi
 806 0020 B0F88A30 		ldrh	r3, [r0, #138]
 807 0024 0133     		adds	r3, r3, #1
 808 0026 03F07F03 		and	r3, r3, #127
 809 002a A0F88A30 		strh	r3, [r0, #138]	@ movhi
 810 002e 7047     		bx	lr
 811              	.L80:
 812 0030 0123     		movs	r3, #1
 813 0032 80F88E30 		strb	r3, [r0, #142]
 814 0036 7047     		bx	lr
 815              		.cantunwind
 816              		.fnend
 818              		.section	.text.HAL_UART_RxCpltCallback,"ax",%progbits
 819              		.align	1
 820              		.global	HAL_UART_RxCpltCallback
 821              		.syntax unified
 822              		.thumb
 823              		.thumb_func
 825              	HAL_UART_RxCpltCallback:
 826              		.fnstart
 827              	.LFB1064:
 828              		@ args = 0, pretend = 0, frame = 0
 829              		@ frame_needed = 0, uses_anonymous_args = 0
 830              		@ link register save eliminated.
 831 0000 0148     		ldr	r0, .L83
 832 0002 8179     		ldrb	r1, [r0, #6]	@ zero_extendqisi2
 833 0004 FFF7FEBF 		b	_ZN6Serial23appendReceiveRingBufferEh
 834              	.L84:
 835              		.align	2
 836              	.L83:
 837 0008 00000000 		.word	.LANCHOR0
 838              		.cantunwind
 839              		.fnend
 841              		.section	.text.HAL_UART_RxHalfCpltCallback,"ax",%progbits
ARM GAS  /var/folders/b1/22c950295gx2kqj80tvj8wqc0000gn/T//cc0P8L32.s 			page 15


 842              		.align	1
 843              		.global	HAL_UART_RxHalfCpltCallback
 844              		.syntax unified
 845              		.thumb
 846              		.thumb_func
 848              	HAL_UART_RxHalfCpltCallback:
 849              		.fnstart
 850              	.LFB1065:
 851              		@ args = 0, pretend = 0, frame = 0
 852              		@ frame_needed = 0, uses_anonymous_args = 0
 853              		@ link register save eliminated.
 854 0000 0148     		ldr	r0, .L86
 855 0002 4179     		ldrb	r1, [r0, #5]	@ zero_extendqisi2
 856 0004 FFF7FEBF 		b	_ZN6Serial23appendReceiveRingBufferEh
 857              	.L87:
 858              		.align	2
 859              	.L86:
 860 0008 00000000 		.word	.LANCHOR0
 861              		.cantunwind
 862              		.fnend
 864              		.section	.text.startup._GLOBAL__sub_I_serial,"ax",%progbits
 865              		.align	1
 866              		.syntax unified
 867              		.thumb
 868              		.thumb_func
 870              	_GLOBAL__sub_I_serial:
 871              		.fnstart
 872              	.LFB1217:
 873              		@ args = 0, pretend = 0, frame = 0
 874              		@ frame_needed = 0, uses_anonymous_args = 0
 875              		@ link register save eliminated.
 876 0000 0148     		ldr	r0, .L89
 877 0002 FFF7FEBF 		b	_ZN6SerialC1Ev
 878              	.L90:
 879 0006 00BF     		.align	2
 880              	.L89:
 881 0008 00000000 		.word	.LANCHOR0
 882              		.cantunwind
 883              		.fnend
 885              		.section	.init_array,"aw",%init_array
 886              		.align	2
 887 0000 00000000 		.word	_GLOBAL__sub_I_serial(target1)
 888              		.global	serial
 889              		.section	.bss.serial,"aw",%nobits
 890              		.align	2
 891              		.set	.LANCHOR0,. + 0
 894              	serial:
 895 0000 00000000 		.space	144
 895      00000000 
 895      00000000 
 895      00000000 
 895      00000000 
 896              		.ident	"GCC: (Arm GNU Toolchain 11.3.Rel1) 11.3.1 20220712"
ARM GAS  /var/folders/b1/22c950295gx2kqj80tvj8wqc0000gn/T//cc0P8L32.s 			page 16

