ARM GAS  /var/folders/b1/22c950295gx2kqj80tvj8wqc0000gn/T//ccepvbUo.s 			page 1


   1              		.cpu cortex-m4
   2              		.arch armv7e-m
   3              		.fpu fpv4-sp-d16
   4              		.eabi_attribute 27, 1
   5              		.eabi_attribute 28, 1
   6              		.eabi_attribute 20, 1
   7              		.eabi_attribute 21, 1
   8              		.eabi_attribute 23, 3
   9              		.eabi_attribute 24, 1
  10              		.eabi_attribute 25, 1
  11              		.eabi_attribute 26, 1
  12              		.eabi_attribute 30, 2
  13              		.eabi_attribute 34, 1
  14              		.eabi_attribute 18, 4
  15              		.file	"stm32f3xx_hal_comp.c"
  16              		.text
  17              	.Ltext0:
  18              		.cfi_sections	.debug_frame
  19              		.section	.text.HAL_COMP_MspInit,"ax",%progbits
  20              		.align	1
  21              		.p2align 2,,3
  22              		.weak	HAL_COMP_MspInit
  23              		.syntax unified
  24              		.thumb
  25              		.thumb_func
  27              	HAL_COMP_MspInit:
  28              	.LVL0:
  29              	.LFB125:
  30              		.file 1 "Drivers/STM32F3xx_HAL_Driver/Src/stm32f3xx_hal_comp.c"
   1:Drivers/STM32F3xx_HAL_Driver/Src/stm32f3xx_hal_comp.c **** /**
   2:Drivers/STM32F3xx_HAL_Driver/Src/stm32f3xx_hal_comp.c ****   ******************************************************************************
   3:Drivers/STM32F3xx_HAL_Driver/Src/stm32f3xx_hal_comp.c ****   * @file    stm32f3xx_hal_comp.c
   4:Drivers/STM32F3xx_HAL_Driver/Src/stm32f3xx_hal_comp.c ****   * @author  MCD Application Team
   5:Drivers/STM32F3xx_HAL_Driver/Src/stm32f3xx_hal_comp.c ****   * @brief   COMP HAL module driver.
   6:Drivers/STM32F3xx_HAL_Driver/Src/stm32f3xx_hal_comp.c ****   *          This file provides firmware functions to manage the following
   7:Drivers/STM32F3xx_HAL_Driver/Src/stm32f3xx_hal_comp.c ****   *          functionalities of the COMP peripheral:
   8:Drivers/STM32F3xx_HAL_Driver/Src/stm32f3xx_hal_comp.c ****   *           + Initialization and de-initialization functions
   9:Drivers/STM32F3xx_HAL_Driver/Src/stm32f3xx_hal_comp.c ****   *           + Start/Stop operation functions in polling mode.
  10:Drivers/STM32F3xx_HAL_Driver/Src/stm32f3xx_hal_comp.c ****   *           + Start/Stop operation functions in interrupt mode.
  11:Drivers/STM32F3xx_HAL_Driver/Src/stm32f3xx_hal_comp.c ****   *           + Peripheral Control functions
  12:Drivers/STM32F3xx_HAL_Driver/Src/stm32f3xx_hal_comp.c ****   *           + Peripheral State functions
  13:Drivers/STM32F3xx_HAL_Driver/Src/stm32f3xx_hal_comp.c ****   *
  14:Drivers/STM32F3xx_HAL_Driver/Src/stm32f3xx_hal_comp.c ****   @verbatim
  15:Drivers/STM32F3xx_HAL_Driver/Src/stm32f3xx_hal_comp.c **** ================================================================================
  16:Drivers/STM32F3xx_HAL_Driver/Src/stm32f3xx_hal_comp.c ****           ##### COMP Peripheral features #####
  17:Drivers/STM32F3xx_HAL_Driver/Src/stm32f3xx_hal_comp.c **** ================================================================================
  18:Drivers/STM32F3xx_HAL_Driver/Src/stm32f3xx_hal_comp.c **** 
  19:Drivers/STM32F3xx_HAL_Driver/Src/stm32f3xx_hal_comp.c ****   [..]
  20:Drivers/STM32F3xx_HAL_Driver/Src/stm32f3xx_hal_comp.c ****       The STM32F3xx device family integrates up to 7 analog comparators COMP1, COMP2...COMP7:
  21:Drivers/STM32F3xx_HAL_Driver/Src/stm32f3xx_hal_comp.c ****       (#) The non inverting input and inverting input can be set to GPIO pins.
  22:Drivers/STM32F3xx_HAL_Driver/Src/stm32f3xx_hal_comp.c ****           For STM32F3xx devices please refer to the COMP peripheral section in corresponding
  23:Drivers/STM32F3xx_HAL_Driver/Src/stm32f3xx_hal_comp.c ****           Reference Manual.
  24:Drivers/STM32F3xx_HAL_Driver/Src/stm32f3xx_hal_comp.c **** 
  25:Drivers/STM32F3xx_HAL_Driver/Src/stm32f3xx_hal_comp.c ****       (#) The COMP output is available using HAL_COMP_GetOutputLevel()
  26:Drivers/STM32F3xx_HAL_Driver/Src/stm32f3xx_hal_comp.c ****           and can be set on GPIO pins.
  27:Drivers/STM32F3xx_HAL_Driver/Src/stm32f3xx_hal_comp.c ****           For STM32F3xx devices please refer to the COMP peripheral section in corresponding
  28:Drivers/STM32F3xx_HAL_Driver/Src/stm32f3xx_hal_comp.c ****           Reference Manual.
ARM GAS  /var/folders/b1/22c950295gx2kqj80tvj8wqc0000gn/T//ccepvbUo.s 			page 2


  29:Drivers/STM32F3xx_HAL_Driver/Src/stm32f3xx_hal_comp.c **** 
  30:Drivers/STM32F3xx_HAL_Driver/Src/stm32f3xx_hal_comp.c ****       (#) The COMP output can be redirected to embedded timers (TIM1, TIM2, TIM3...).
  31:Drivers/STM32F3xx_HAL_Driver/Src/stm32f3xx_hal_comp.c ****           For STM32F3xx devices please refer to the COMP peripheral section in corresponding
  32:Drivers/STM32F3xx_HAL_Driver/Src/stm32f3xx_hal_comp.c ****           Reference Manual.
  33:Drivers/STM32F3xx_HAL_Driver/Src/stm32f3xx_hal_comp.c **** 
  34:Drivers/STM32F3xx_HAL_Driver/Src/stm32f3xx_hal_comp.c ****       (#) Each couple of comparators COMP1 and COMP2, COMP3 and COMP4, COMP5 and COMP6 can be combi
  35:Drivers/STM32F3xx_HAL_Driver/Src/stm32f3xx_hal_comp.c ****           mode and respectively COMP1, COMP3 and COMP5 non inverting input is used as common non-in
  36:Drivers/STM32F3xx_HAL_Driver/Src/stm32f3xx_hal_comp.c **** 
  37:Drivers/STM32F3xx_HAL_Driver/Src/stm32f3xx_hal_comp.c ****       (#) The seven comparators have interrupt capability with wake-up
  38:Drivers/STM32F3xx_HAL_Driver/Src/stm32f3xx_hal_comp.c ****           from Sleep and Stop modes (through the EXTI controller):
  39:Drivers/STM32F3xx_HAL_Driver/Src/stm32f3xx_hal_comp.c ****           (++) COMP1 is internally connected to EXTI Line 21
  40:Drivers/STM32F3xx_HAL_Driver/Src/stm32f3xx_hal_comp.c ****           (++) COMP2 is internally connected to EXTI Line 22
  41:Drivers/STM32F3xx_HAL_Driver/Src/stm32f3xx_hal_comp.c ****           (++) COMP3 is internally connected to EXTI Line 29
  42:Drivers/STM32F3xx_HAL_Driver/Src/stm32f3xx_hal_comp.c ****           (++) COMP4 is internally connected to EXTI Line 30
  43:Drivers/STM32F3xx_HAL_Driver/Src/stm32f3xx_hal_comp.c ****           (++) COMP5 is internally connected to EXTI Line 31
  44:Drivers/STM32F3xx_HAL_Driver/Src/stm32f3xx_hal_comp.c ****           (++) COMP6 is internally connected to EXTI Line 32
  45:Drivers/STM32F3xx_HAL_Driver/Src/stm32f3xx_hal_comp.c ****           (++) COMP7 is internally connected to EXTI Line 33.
  46:Drivers/STM32F3xx_HAL_Driver/Src/stm32f3xx_hal_comp.c **** 
  47:Drivers/STM32F3xx_HAL_Driver/Src/stm32f3xx_hal_comp.c ****           From the corresponding IRQ handler, the right interrupt source can be retrieved with the
  48:Drivers/STM32F3xx_HAL_Driver/Src/stm32f3xx_hal_comp.c ****           adequate macro __HAL_COMP_COMPx_EXTI_GET_FLAG().
  49:Drivers/STM32F3xx_HAL_Driver/Src/stm32f3xx_hal_comp.c **** 
  50:Drivers/STM32F3xx_HAL_Driver/Src/stm32f3xx_hal_comp.c **** 
  51:Drivers/STM32F3xx_HAL_Driver/Src/stm32f3xx_hal_comp.c ****             ##### How to use this driver #####
  52:Drivers/STM32F3xx_HAL_Driver/Src/stm32f3xx_hal_comp.c **** ================================================================================
  53:Drivers/STM32F3xx_HAL_Driver/Src/stm32f3xx_hal_comp.c ****   [..]
  54:Drivers/STM32F3xx_HAL_Driver/Src/stm32f3xx_hal_comp.c ****       This driver provides functions to configure and program the Comparators of all STM32F3xx devi
  55:Drivers/STM32F3xx_HAL_Driver/Src/stm32f3xx_hal_comp.c **** 
  56:Drivers/STM32F3xx_HAL_Driver/Src/stm32f3xx_hal_comp.c ****       To use the comparator, perform the following steps:
  57:Drivers/STM32F3xx_HAL_Driver/Src/stm32f3xx_hal_comp.c **** 
  58:Drivers/STM32F3xx_HAL_Driver/Src/stm32f3xx_hal_comp.c ****       (#) Fill in the HAL_COMP_MspInit() to
  59:Drivers/STM32F3xx_HAL_Driver/Src/stm32f3xx_hal_comp.c ****       (++) Configure the comparator input in analog mode using HAL_GPIO_Init()
  60:Drivers/STM32F3xx_HAL_Driver/Src/stm32f3xx_hal_comp.c ****       (++) Configure the comparator output in alternate function mode using HAL_GPIO_Init() to map 
  61:Drivers/STM32F3xx_HAL_Driver/Src/stm32f3xx_hal_comp.c ****            output to the GPIO pin
  62:Drivers/STM32F3xx_HAL_Driver/Src/stm32f3xx_hal_comp.c ****       (++) If required enable the COMP interrupt (EXTI line Interrupt): by configuring and enabling
  63:Drivers/STM32F3xx_HAL_Driver/Src/stm32f3xx_hal_comp.c ****            selecting the desired sensitivity level using HAL_GPIO_Init() function. After that enabl
  64:Drivers/STM32F3xx_HAL_Driver/Src/stm32f3xx_hal_comp.c ****            interrupt vector using HAL_NVIC_SetPriority() and HAL_NVIC_EnableIRQ() functions.
  65:Drivers/STM32F3xx_HAL_Driver/Src/stm32f3xx_hal_comp.c **** 
  66:Drivers/STM32F3xx_HAL_Driver/Src/stm32f3xx_hal_comp.c ****       (#) Configure the comparator using HAL_COMP_Init() function:
  67:Drivers/STM32F3xx_HAL_Driver/Src/stm32f3xx_hal_comp.c ****       (++) Select the inverting input (input minus)
  68:Drivers/STM32F3xx_HAL_Driver/Src/stm32f3xx_hal_comp.c ****       (++) Select the non-inverting input (input plus)
  69:Drivers/STM32F3xx_HAL_Driver/Src/stm32f3xx_hal_comp.c ****       (++) Select the output polarity
  70:Drivers/STM32F3xx_HAL_Driver/Src/stm32f3xx_hal_comp.c ****       (++) Select the output redirection
  71:Drivers/STM32F3xx_HAL_Driver/Src/stm32f3xx_hal_comp.c ****       (++) Select the hysteresis level
  72:Drivers/STM32F3xx_HAL_Driver/Src/stm32f3xx_hal_comp.c ****       (++) Select the power mode
  73:Drivers/STM32F3xx_HAL_Driver/Src/stm32f3xx_hal_comp.c ****       (++) Select the event/interrupt mode
  74:Drivers/STM32F3xx_HAL_Driver/Src/stm32f3xx_hal_comp.c **** 
  75:Drivers/STM32F3xx_HAL_Driver/Src/stm32f3xx_hal_comp.c ****       -@@- HAL_COMP_Init() calls internally __HAL_RCC_SYSCFG_CLK_ENABLE() in order
  76:Drivers/STM32F3xx_HAL_Driver/Src/stm32f3xx_hal_comp.c ****           to enable the comparator(s).
  77:Drivers/STM32F3xx_HAL_Driver/Src/stm32f3xx_hal_comp.c **** 
  78:Drivers/STM32F3xx_HAL_Driver/Src/stm32f3xx_hal_comp.c ****       (#) On-the-fly reconfiguration of comparator(s) may be done by calling again HAL_COMP_Init(
  79:Drivers/STM32F3xx_HAL_Driver/Src/stm32f3xx_hal_comp.c ****           function with new input parameter values; HAL_COMP_MspInit() function shall be adapted
  80:Drivers/STM32F3xx_HAL_Driver/Src/stm32f3xx_hal_comp.c ****           to support multi configurations.
  81:Drivers/STM32F3xx_HAL_Driver/Src/stm32f3xx_hal_comp.c **** 
  82:Drivers/STM32F3xx_HAL_Driver/Src/stm32f3xx_hal_comp.c ****       (#) Enable the comparator using HAL_COMP_Start() or HAL_COMP_Start_IT() functions.
  83:Drivers/STM32F3xx_HAL_Driver/Src/stm32f3xx_hal_comp.c **** 
  84:Drivers/STM32F3xx_HAL_Driver/Src/stm32f3xx_hal_comp.c ****       (#) Use HAL_COMP_TriggerCallback() and/or HAL_COMP_GetOutputLevel() functions
  85:Drivers/STM32F3xx_HAL_Driver/Src/stm32f3xx_hal_comp.c ****           to manage comparator outputs (events and output level).
ARM GAS  /var/folders/b1/22c950295gx2kqj80tvj8wqc0000gn/T//ccepvbUo.s 			page 3


  86:Drivers/STM32F3xx_HAL_Driver/Src/stm32f3xx_hal_comp.c **** 
  87:Drivers/STM32F3xx_HAL_Driver/Src/stm32f3xx_hal_comp.c ****       (#) Disable the comparator using HAL_COMP_Stop() or HAL_COMP_Stop_IT()
  88:Drivers/STM32F3xx_HAL_Driver/Src/stm32f3xx_hal_comp.c ****           function.
  89:Drivers/STM32F3xx_HAL_Driver/Src/stm32f3xx_hal_comp.c **** 
  90:Drivers/STM32F3xx_HAL_Driver/Src/stm32f3xx_hal_comp.c ****       (#) De-initialize the comparator using HAL_COMP_DeInit() function.
  91:Drivers/STM32F3xx_HAL_Driver/Src/stm32f3xx_hal_comp.c **** 
  92:Drivers/STM32F3xx_HAL_Driver/Src/stm32f3xx_hal_comp.c ****       (#) For safety purposes comparator(s) can be locked using HAL_COMP_Lock() function.
  93:Drivers/STM32F3xx_HAL_Driver/Src/stm32f3xx_hal_comp.c ****           Only a MCU reset can reset that protection.
  94:Drivers/STM32F3xx_HAL_Driver/Src/stm32f3xx_hal_comp.c **** 
  95:Drivers/STM32F3xx_HAL_Driver/Src/stm32f3xx_hal_comp.c ****     *** Callback registration ***
  96:Drivers/STM32F3xx_HAL_Driver/Src/stm32f3xx_hal_comp.c ****     =============================================
  97:Drivers/STM32F3xx_HAL_Driver/Src/stm32f3xx_hal_comp.c ****     [..]
  98:Drivers/STM32F3xx_HAL_Driver/Src/stm32f3xx_hal_comp.c **** 
  99:Drivers/STM32F3xx_HAL_Driver/Src/stm32f3xx_hal_comp.c ****      The compilation flag USE_HAL_COMP_REGISTER_CALLBACKS, when set to 1,
 100:Drivers/STM32F3xx_HAL_Driver/Src/stm32f3xx_hal_comp.c ****      allows the user to configure dynamically the driver callbacks.
 101:Drivers/STM32F3xx_HAL_Driver/Src/stm32f3xx_hal_comp.c ****      Use Functions HAL_COMP_RegisterCallback()
 102:Drivers/STM32F3xx_HAL_Driver/Src/stm32f3xx_hal_comp.c ****      to register an interrupt callback.
 103:Drivers/STM32F3xx_HAL_Driver/Src/stm32f3xx_hal_comp.c ****     [..]
 104:Drivers/STM32F3xx_HAL_Driver/Src/stm32f3xx_hal_comp.c **** 
 105:Drivers/STM32F3xx_HAL_Driver/Src/stm32f3xx_hal_comp.c ****      Function HAL_COMP_RegisterCallback() allows to register following callbacks:
 106:Drivers/STM32F3xx_HAL_Driver/Src/stm32f3xx_hal_comp.c ****        (+) OperationCpltCallback : callback for End of operation.
 107:Drivers/STM32F3xx_HAL_Driver/Src/stm32f3xx_hal_comp.c ****        (+) ErrorCallback         : callback for error detection.
 108:Drivers/STM32F3xx_HAL_Driver/Src/stm32f3xx_hal_comp.c ****        (+) MspInitCallback       : callback for Msp Init.
 109:Drivers/STM32F3xx_HAL_Driver/Src/stm32f3xx_hal_comp.c ****        (+) MspDeInitCallback     : callback for Msp DeInit.
 110:Drivers/STM32F3xx_HAL_Driver/Src/stm32f3xx_hal_comp.c ****      This function takes as parameters the HAL peripheral handle, the Callback ID
 111:Drivers/STM32F3xx_HAL_Driver/Src/stm32f3xx_hal_comp.c ****      and a pointer to the user callback function.
 112:Drivers/STM32F3xx_HAL_Driver/Src/stm32f3xx_hal_comp.c ****     [..]
 113:Drivers/STM32F3xx_HAL_Driver/Src/stm32f3xx_hal_comp.c **** 
 114:Drivers/STM32F3xx_HAL_Driver/Src/stm32f3xx_hal_comp.c ****      Use function HAL_COMP_UnRegisterCallback to reset a callback to the default
 115:Drivers/STM32F3xx_HAL_Driver/Src/stm32f3xx_hal_comp.c ****      weak function.
 116:Drivers/STM32F3xx_HAL_Driver/Src/stm32f3xx_hal_comp.c ****     [..]
 117:Drivers/STM32F3xx_HAL_Driver/Src/stm32f3xx_hal_comp.c **** 
 118:Drivers/STM32F3xx_HAL_Driver/Src/stm32f3xx_hal_comp.c ****      HAL_COMP_UnRegisterCallback takes as parameters the HAL peripheral handle,
 119:Drivers/STM32F3xx_HAL_Driver/Src/stm32f3xx_hal_comp.c ****      and the Callback ID.
 120:Drivers/STM32F3xx_HAL_Driver/Src/stm32f3xx_hal_comp.c ****      This function allows to reset following callbacks:
 121:Drivers/STM32F3xx_HAL_Driver/Src/stm32f3xx_hal_comp.c ****        (+) OperationCpltCallback : callback for End of operation.
 122:Drivers/STM32F3xx_HAL_Driver/Src/stm32f3xx_hal_comp.c ****        (+) ErrorCallback         : callback for error detection.
 123:Drivers/STM32F3xx_HAL_Driver/Src/stm32f3xx_hal_comp.c ****        (+) MspInitCallback       : callback for Msp Init.
 124:Drivers/STM32F3xx_HAL_Driver/Src/stm32f3xx_hal_comp.c ****        (+) MspDeInitCallback     : callback for Msp DeInit.
 125:Drivers/STM32F3xx_HAL_Driver/Src/stm32f3xx_hal_comp.c ****      [..]
 126:Drivers/STM32F3xx_HAL_Driver/Src/stm32f3xx_hal_comp.c **** 
 127:Drivers/STM32F3xx_HAL_Driver/Src/stm32f3xx_hal_comp.c ****      By default, after the HAL_COMP_Init() and when the state is HAL_COMP_STATE_RESET
 128:Drivers/STM32F3xx_HAL_Driver/Src/stm32f3xx_hal_comp.c ****      all callbacks are set to the corresponding weak functions:
 129:Drivers/STM32F3xx_HAL_Driver/Src/stm32f3xx_hal_comp.c ****      examples HAL_COMP_OperationCpltCallback(), HAL_COMP_ErrorCallback().
 130:Drivers/STM32F3xx_HAL_Driver/Src/stm32f3xx_hal_comp.c ****      Exception done for MspInit and MspDeInit functions that are
 131:Drivers/STM32F3xx_HAL_Driver/Src/stm32f3xx_hal_comp.c ****      reset to the legacy weak functions in the HAL_COMP_Init()/ HAL_COMP_DeInit() only when
 132:Drivers/STM32F3xx_HAL_Driver/Src/stm32f3xx_hal_comp.c ****      these callbacks are null (not registered beforehand).
 133:Drivers/STM32F3xx_HAL_Driver/Src/stm32f3xx_hal_comp.c ****     [..]
 134:Drivers/STM32F3xx_HAL_Driver/Src/stm32f3xx_hal_comp.c **** 
 135:Drivers/STM32F3xx_HAL_Driver/Src/stm32f3xx_hal_comp.c ****      If MspInit or MspDeInit are not null, the HAL_COMP_Init()/ HAL_COMP_DeInit()
 136:Drivers/STM32F3xx_HAL_Driver/Src/stm32f3xx_hal_comp.c ****      keep and use the user MspInit/MspDeInit callbacks (registered beforehand) whatever the state.
 137:Drivers/STM32F3xx_HAL_Driver/Src/stm32f3xx_hal_comp.c ****      [..]
 138:Drivers/STM32F3xx_HAL_Driver/Src/stm32f3xx_hal_comp.c **** 
 139:Drivers/STM32F3xx_HAL_Driver/Src/stm32f3xx_hal_comp.c ****      Callbacks can be registered/unregistered in HAL_COMP_STATE_READY state only.
 140:Drivers/STM32F3xx_HAL_Driver/Src/stm32f3xx_hal_comp.c ****      Exception done MspInit/MspDeInit functions that can be registered/unregistered
 141:Drivers/STM32F3xx_HAL_Driver/Src/stm32f3xx_hal_comp.c ****      in HAL_COMP_STATE_READY or HAL_COMP_STATE_RESET state,
 142:Drivers/STM32F3xx_HAL_Driver/Src/stm32f3xx_hal_comp.c ****      thus registered (user) MspInit/DeInit callbacks can be used during the Init/DeInit.
ARM GAS  /var/folders/b1/22c950295gx2kqj80tvj8wqc0000gn/T//ccepvbUo.s 			page 4


 143:Drivers/STM32F3xx_HAL_Driver/Src/stm32f3xx_hal_comp.c ****     [..]
 144:Drivers/STM32F3xx_HAL_Driver/Src/stm32f3xx_hal_comp.c **** 
 145:Drivers/STM32F3xx_HAL_Driver/Src/stm32f3xx_hal_comp.c ****      Then, the user first registers the MspInit/MspDeInit user callbacks
 146:Drivers/STM32F3xx_HAL_Driver/Src/stm32f3xx_hal_comp.c ****      using HAL_COMP_RegisterCallback() before calling HAL_COMP_DeInit()
 147:Drivers/STM32F3xx_HAL_Driver/Src/stm32f3xx_hal_comp.c ****      or HAL_COMP_Init() function.
 148:Drivers/STM32F3xx_HAL_Driver/Src/stm32f3xx_hal_comp.c ****      [..]
 149:Drivers/STM32F3xx_HAL_Driver/Src/stm32f3xx_hal_comp.c **** 
 150:Drivers/STM32F3xx_HAL_Driver/Src/stm32f3xx_hal_comp.c ****      When the compilation flag USE_HAL_COMP_REGISTER_CALLBACKS is set to 0 or
 151:Drivers/STM32F3xx_HAL_Driver/Src/stm32f3xx_hal_comp.c ****      not defined, the callback registration feature is not available and all callbacks
 152:Drivers/STM32F3xx_HAL_Driver/Src/stm32f3xx_hal_comp.c ****      are set to the corresponding weak functions.
 153:Drivers/STM32F3xx_HAL_Driver/Src/stm32f3xx_hal_comp.c **** 
 154:Drivers/STM32F3xx_HAL_Driver/Src/stm32f3xx_hal_comp.c ****   @endverbatim
 155:Drivers/STM32F3xx_HAL_Driver/Src/stm32f3xx_hal_comp.c ****   ******************************************************************************
 156:Drivers/STM32F3xx_HAL_Driver/Src/stm32f3xx_hal_comp.c ****   * @attention
 157:Drivers/STM32F3xx_HAL_Driver/Src/stm32f3xx_hal_comp.c ****   *
 158:Drivers/STM32F3xx_HAL_Driver/Src/stm32f3xx_hal_comp.c ****   * <h2><center>&copy; Copyright (c) 2016 STMicroelectronics.
 159:Drivers/STM32F3xx_HAL_Driver/Src/stm32f3xx_hal_comp.c ****   * All rights reserved.</center></h2>
 160:Drivers/STM32F3xx_HAL_Driver/Src/stm32f3xx_hal_comp.c ****   *
 161:Drivers/STM32F3xx_HAL_Driver/Src/stm32f3xx_hal_comp.c ****   * This software component is licensed by ST under BSD 3-Clause license,
 162:Drivers/STM32F3xx_HAL_Driver/Src/stm32f3xx_hal_comp.c ****   * the "License"; You may not use this file except in compliance with the
 163:Drivers/STM32F3xx_HAL_Driver/Src/stm32f3xx_hal_comp.c ****   * License. You may obtain a copy of the License at:
 164:Drivers/STM32F3xx_HAL_Driver/Src/stm32f3xx_hal_comp.c ****   *                        opensource.org/licenses/BSD-3-Clause
 165:Drivers/STM32F3xx_HAL_Driver/Src/stm32f3xx_hal_comp.c ****   *
 166:Drivers/STM32F3xx_HAL_Driver/Src/stm32f3xx_hal_comp.c ****   ******************************************************************************
 167:Drivers/STM32F3xx_HAL_Driver/Src/stm32f3xx_hal_comp.c ****   */
 168:Drivers/STM32F3xx_HAL_Driver/Src/stm32f3xx_hal_comp.c **** 
 169:Drivers/STM32F3xx_HAL_Driver/Src/stm32f3xx_hal_comp.c **** /*
 170:Drivers/STM32F3xx_HAL_Driver/Src/stm32f3xx_hal_comp.c ****   Additional Tables:
 171:Drivers/STM32F3xx_HAL_Driver/Src/stm32f3xx_hal_comp.c **** 
 172:Drivers/STM32F3xx_HAL_Driver/Src/stm32f3xx_hal_comp.c ****     Table 1. COMP Inputs for the STM32F303xB/STM32F303xC/STM32F303xE devices
 173:Drivers/STM32F3xx_HAL_Driver/Src/stm32f3xx_hal_comp.c ****     +------------------------------------------------------------------------------------------+
 174:Drivers/STM32F3xx_HAL_Driver/Src/stm32f3xx_hal_comp.c ****     |                 |                | COMP1 | COMP2 | COMP3 | COMP4 | COMP5 | COMP6 | COMP7 |
 175:Drivers/STM32F3xx_HAL_Driver/Src/stm32f3xx_hal_comp.c ****     |-----------------|----------------|---------------|---------------------------------------|
 176:Drivers/STM32F3xx_HAL_Driver/Src/stm32f3xx_hal_comp.c ****     |                 | 1U/4 VREFINT    |  OK   |  OK   |  OK   |  OK   |  OK   |  OK   |  OK   |
 177:Drivers/STM32F3xx_HAL_Driver/Src/stm32f3xx_hal_comp.c ****     |                 | 1U/2 VREFINT    |  OK   |  OK   |  OK   |  OK   |  OK   |  OK   |  OK   |
 178:Drivers/STM32F3xx_HAL_Driver/Src/stm32f3xx_hal_comp.c ****     |                 | 3U/4 VREFINT    |  OK   |  OK   |  OK   |  OK   |  OK   |  OK   |  OK   |
 179:Drivers/STM32F3xx_HAL_Driver/Src/stm32f3xx_hal_comp.c ****     | Inverting Input | VREFINT        |  OK   |  OK   |  OK   |  OK   |  OK   |  OK   |  OK   |
 180:Drivers/STM32F3xx_HAL_Driver/Src/stm32f3xx_hal_comp.c ****     |                 | DAC1 OUT (PA4) |  OK   |  OK   |  OK   |  OK   |  OK   |  OK   |  OK   |
 181:Drivers/STM32F3xx_HAL_Driver/Src/stm32f3xx_hal_comp.c ****     |                 | DAC2 OUT (PA5) |  OK   |  OK   |  OK   |  OK   |  OK   |  OK   |  OK   |
 182:Drivers/STM32F3xx_HAL_Driver/Src/stm32f3xx_hal_comp.c ****     |                 | IO1            |  PA0  |  PA2  |  PD15U |  PE8  |  PD13U |  PD10U |  PC0  |
 183:Drivers/STM32F3xx_HAL_Driver/Src/stm32f3xx_hal_comp.c ****     |                 | IO2            |  ---  |  ---  |  PB12U |  PB2  |  PB10U |  PB15U |  ---  |
 184:Drivers/STM32F3xx_HAL_Driver/Src/stm32f3xx_hal_comp.c ****     |-----------------|----------------|-------|-------|-------|-------|-------|-------|-------|
 185:Drivers/STM32F3xx_HAL_Driver/Src/stm32f3xx_hal_comp.c ****     |  Non Inverting  | IO1            |  PA1  |  PA7  |  PB14U |  PB0  |  PD12U |  PD11U |  PA0  |
 186:Drivers/STM32F3xx_HAL_Driver/Src/stm32f3xx_hal_comp.c ****     |    Input        | IO2            |  ---  |  PA3  |  PD14U |  PE7  |  PB13U |  PB11U |  PC1  |
 187:Drivers/STM32F3xx_HAL_Driver/Src/stm32f3xx_hal_comp.c ****     +------------------------------------------------------------------------------------------+
 188:Drivers/STM32F3xx_HAL_Driver/Src/stm32f3xx_hal_comp.c **** 
 189:Drivers/STM32F3xx_HAL_Driver/Src/stm32f3xx_hal_comp.c ****     Table 2. COMP Outputs for the STM32F303xB/STM32F303xC/STM32F303xE devices
 190:Drivers/STM32F3xx_HAL_Driver/Src/stm32f3xx_hal_comp.c ****     +-------------------------------------------------------+
 191:Drivers/STM32F3xx_HAL_Driver/Src/stm32f3xx_hal_comp.c ****     | COMP1 | COMP2 | COMP3 | COMP4 | COMP5 | COMP6 | COMP7 |
 192:Drivers/STM32F3xx_HAL_Driver/Src/stm32f3xx_hal_comp.c ****     |-------|-------|-------|-------|-------|-------|-------|
 193:Drivers/STM32F3xx_HAL_Driver/Src/stm32f3xx_hal_comp.c ****     |  PA0  |  PA2  |  PB1  |  PC8  |  PC7  |  PA10U |  PC2  |
 194:Drivers/STM32F3xx_HAL_Driver/Src/stm32f3xx_hal_comp.c ****     |  PF4  |  PA7  |  ---  |  PA8  |  PA9  |  PC6  |  ---  |
 195:Drivers/STM32F3xx_HAL_Driver/Src/stm32f3xx_hal_comp.c ****     |  PA6  |  PA12U |  ---  |  ---  |  ---  |  ---  |  ---  |
 196:Drivers/STM32F3xx_HAL_Driver/Src/stm32f3xx_hal_comp.c ****     |  PA11U |  PB9  |  ---  |  ---  |  ---  |  ---  |  ---  |
 197:Drivers/STM32F3xx_HAL_Driver/Src/stm32f3xx_hal_comp.c ****     |  PB8  |  ---  |  ---  |  ---  |  ---  |  ---  |  ---  |
 198:Drivers/STM32F3xx_HAL_Driver/Src/stm32f3xx_hal_comp.c ****     +-------------------------------------------------------+
 199:Drivers/STM32F3xx_HAL_Driver/Src/stm32f3xx_hal_comp.c **** 
ARM GAS  /var/folders/b1/22c950295gx2kqj80tvj8wqc0000gn/T//ccepvbUo.s 			page 5


 200:Drivers/STM32F3xx_HAL_Driver/Src/stm32f3xx_hal_comp.c ****     Table 3. COMP Outputs redirection to embedded timers for the STM32F303xB/STM32F303xC devices
 201:Drivers/STM32F3xx_HAL_Driver/Src/stm32f3xx_hal_comp.c ****     +----------------------------------------------------------------------------------------------
 202:Drivers/STM32F3xx_HAL_Driver/Src/stm32f3xx_hal_comp.c ****     |     COMP1      |     COMP2      |     COMP3      |     COMP4      |     COMP5      |     COMP
 203:Drivers/STM32F3xx_HAL_Driver/Src/stm32f3xx_hal_comp.c ****     |----------------|----------------|----------------|----------------|----------------|---------
 204:Drivers/STM32F3xx_HAL_Driver/Src/stm32f3xx_hal_comp.c ****     |  TIM1 BKIN     |  TIM1 BKIN     |  TIM1 BKIN     |  TIM1 BKIN     |  TIM1 BKIN     |  TIM1 BK
 205:Drivers/STM32F3xx_HAL_Driver/Src/stm32f3xx_hal_comp.c ****     |                |                |                |                |                |         
 206:Drivers/STM32F3xx_HAL_Driver/Src/stm32f3xx_hal_comp.c ****     |  TIM1 BKIN2    |  TIM1 BKIN2    |  TIM1 BKIN2    |  TIM1 BKIN2    |  TIM1 BKIN2    |  TIM1 BK
 207:Drivers/STM32F3xx_HAL_Driver/Src/stm32f3xx_hal_comp.c ****     |                |                |                |                |                |         
 208:Drivers/STM32F3xx_HAL_Driver/Src/stm32f3xx_hal_comp.c ****     |  TIM8 BKIN     |  TIM8 BKIN     |  TIM8 BKIN     |  TIM8 BKIN     |  TIM8 BKIN     |  TIM8 BK
 209:Drivers/STM32F3xx_HAL_Driver/Src/stm32f3xx_hal_comp.c ****     |                |                |                |                |                |         
 210:Drivers/STM32F3xx_HAL_Driver/Src/stm32f3xx_hal_comp.c ****     |  TIM8 BKIN2    |  TIM8 BKIN2    |  TIM8 BKIN2    |  TIM8 BKIN2    |  TIM8 BKIN2    |  TIM8 BK
 211:Drivers/STM32F3xx_HAL_Driver/Src/stm32f3xx_hal_comp.c ****     |                |                |                |                |                |         
 212:Drivers/STM32F3xx_HAL_Driver/Src/stm32f3xx_hal_comp.c ****     |  TIM1 BKIN2    |  TIM1 BKIN2    |  TIM1 BKIN2    |  TIM1 BKIN2    |  TIM1 BKIN2    |  TIM1 BK
 213:Drivers/STM32F3xx_HAL_Driver/Src/stm32f3xx_hal_comp.c ****     |     +          |     +          |     +          |     +          |     +          |     +   
 214:Drivers/STM32F3xx_HAL_Driver/Src/stm32f3xx_hal_comp.c ****     |  TIM8BKIN2     |  TIM8BKIN2     |  TIM8BKIN2     |  TIM8BKIN2     |  TIM8BKIN2     |  TIM8BKI
 215:Drivers/STM32F3xx_HAL_Driver/Src/stm32f3xx_hal_comp.c ****     |                |                |                |                |                |         
 216:Drivers/STM32F3xx_HAL_Driver/Src/stm32f3xx_hal_comp.c ****     |  TIM1 OCREFCLR |  TIM1 OCREFCLR |  TIM1 OCREFCLR |  TIM8 OCREFCLR |  TIM8 OCREFCLR |  TIM8 OC
 217:Drivers/STM32F3xx_HAL_Driver/Src/stm32f3xx_hal_comp.c ****     |                |                |                |                |                |         
 218:Drivers/STM32F3xx_HAL_Driver/Src/stm32f3xx_hal_comp.c ****     |  TIM1 IC1      |  TIM1 IC1      |  TIM2 OCREFCLR |  TIM3 IC3      |  TIM2 IC1      |  TIM2 IC
 219:Drivers/STM32F3xx_HAL_Driver/Src/stm32f3xx_hal_comp.c ****     |                |                |                |                |                |         
 220:Drivers/STM32F3xx_HAL_Driver/Src/stm32f3xx_hal_comp.c ****     |  TIM2 IC4      |  TIM2 IC4      |  TIM3 IC2      |  TIM3 OCREFCLR |  TIM3 OCREFCLR |  TIM2 OC
 221:Drivers/STM32F3xx_HAL_Driver/Src/stm32f3xx_hal_comp.c ****     |                |                |                |                |                |         
 222:Drivers/STM32F3xx_HAL_Driver/Src/stm32f3xx_hal_comp.c ****     |  TIM2 OCREFCLR |  TIM2 OCREFCLR |  TIM4 IC1      |  TIM4 IC2      |  TIM4 IC3      |  TIM16 O
 223:Drivers/STM32F3xx_HAL_Driver/Src/stm32f3xx_hal_comp.c ****     |                |                |                |                |                |         
 224:Drivers/STM32F3xx_HAL_Driver/Src/stm32f3xx_hal_comp.c ****     |  TIM3 IC1      |  TIM3 IC1      |  TIM15 IC1     |  TIM15 OCREFCLR|  TIM16 BKIN    |  TIM16 I
 225:Drivers/STM32F3xx_HAL_Driver/Src/stm32f3xx_hal_comp.c ****     |                |                |                |                |                |         
 226:Drivers/STM32F3xx_HAL_Driver/Src/stm32f3xx_hal_comp.c ****     |  TIM3 OCREFCLR |  TIM3 OCREFCLR |  TIM15 BKIN    |  TIM15 IC2     |  TIM17 IC1     |  TIM4 IC
 227:Drivers/STM32F3xx_HAL_Driver/Src/stm32f3xx_hal_comp.c ****     +----------------------------------------------------------------------------------------------
 228:Drivers/STM32F3xx_HAL_Driver/Src/stm32f3xx_hal_comp.c **** 
 229:Drivers/STM32F3xx_HAL_Driver/Src/stm32f3xx_hal_comp.c ****     Table 4. COMP Outputs redirection to embedded timers for the STM32F303xE devices
 230:Drivers/STM32F3xx_HAL_Driver/Src/stm32f3xx_hal_comp.c ****     +----------------------------------------------------------------------------------------------
 231:Drivers/STM32F3xx_HAL_Driver/Src/stm32f3xx_hal_comp.c ****     |     COMP1      |     COMP2      |     COMP3      |     COMP4      |     COMP5      |     COMP
 232:Drivers/STM32F3xx_HAL_Driver/Src/stm32f3xx_hal_comp.c ****     |----------------|----------------|----------------|----------------|----------------|---------
 233:Drivers/STM32F3xx_HAL_Driver/Src/stm32f3xx_hal_comp.c ****     |  TIM1 BKIN     |  TIM1 BKIN     |  TIM1 BKIN     |  TIM1 BKIN (1U) |  TIM1 BKIN     |  TIM1 B
 234:Drivers/STM32F3xx_HAL_Driver/Src/stm32f3xx_hal_comp.c ****     |                |                |                |                |                |         
 235:Drivers/STM32F3xx_HAL_Driver/Src/stm32f3xx_hal_comp.c ****     |  TIM1 BKIN2    |  TIM1 BKIN2    |  TIM1 BKIN2    |  TIM1 BKIN2    |  TIM1 BKIN2    |  TIM1 BK
 236:Drivers/STM32F3xx_HAL_Driver/Src/stm32f3xx_hal_comp.c ****     |                |                |                |                |                |         
 237:Drivers/STM32F3xx_HAL_Driver/Src/stm32f3xx_hal_comp.c ****     |  TIM8 BKIN     |  TIM8 BKIN     |  TIM8 BKIN     |  TIM8 BKIN (1U) |  TIM8 BKIN     |  TIM8 B
 238:Drivers/STM32F3xx_HAL_Driver/Src/stm32f3xx_hal_comp.c ****     |                |                |                |                |                |         
 239:Drivers/STM32F3xx_HAL_Driver/Src/stm32f3xx_hal_comp.c ****     |  TIM8 BKIN2    |  TIM8 BKIN2    |  TIM8 BKIN2    |  TIM8 BKIN2    |  TIM8 BKIN2    |  TIM8 BK
 240:Drivers/STM32F3xx_HAL_Driver/Src/stm32f3xx_hal_comp.c ****     |                |                |                |                |                |         
 241:Drivers/STM32F3xx_HAL_Driver/Src/stm32f3xx_hal_comp.c ****     |  TIM1 BKIN2    |  TIM1 BKIN2    |  TIM1 BKIN2    |  TIM1 BKIN2    |  TIM1 BKIN2    |  TIM1 BK
 242:Drivers/STM32F3xx_HAL_Driver/Src/stm32f3xx_hal_comp.c ****     |     +          |     +          |     +          |     +          |     +          |     +   
 243:Drivers/STM32F3xx_HAL_Driver/Src/stm32f3xx_hal_comp.c ****     |  TIM8BKIN2     |  TIM8BKIN2     |  TIM8BKIN2     |  TIM8BKIN2     |  TIM8BKIN2     |  TIM8BKI
 244:Drivers/STM32F3xx_HAL_Driver/Src/stm32f3xx_hal_comp.c ****     |                |                |                |                |                |         
 245:Drivers/STM32F3xx_HAL_Driver/Src/stm32f3xx_hal_comp.c ****     |  TIM1 OCREFCLR |  TIM1 OCREFCLR |  TIM1 OCREFCLR |  TIM8 OCREFCLR |  TIM8 OCREFCLR |  TIM8 OC
 246:Drivers/STM32F3xx_HAL_Driver/Src/stm32f3xx_hal_comp.c ****     |                |                |                |                |                |         
 247:Drivers/STM32F3xx_HAL_Driver/Src/stm32f3xx_hal_comp.c ****     |  TIM1 IC1      |  TIM1 IC1      |  TIM2 OCREFCLR |  TIM3 IC3      |  TIM2 IC1      |  TIM2 IC
 248:Drivers/STM32F3xx_HAL_Driver/Src/stm32f3xx_hal_comp.c ****     |                |                |                |                |                |         
 249:Drivers/STM32F3xx_HAL_Driver/Src/stm32f3xx_hal_comp.c ****     |  TIM2 IC4      |  TIM2 IC4      |  TIM3 IC2      |  TIM3 OCREFCLR |  TIM3 OCREFCLR |  TIM2 OC
 250:Drivers/STM32F3xx_HAL_Driver/Src/stm32f3xx_hal_comp.c ****     |                |                |                |                |                |         
 251:Drivers/STM32F3xx_HAL_Driver/Src/stm32f3xx_hal_comp.c ****     |  TIM2 OCREFCLR |  TIM2 OCREFCLR |  TIM4 IC1      |  TIM4 IC2      |  TIM4 IC3      |  TIM16 O
 252:Drivers/STM32F3xx_HAL_Driver/Src/stm32f3xx_hal_comp.c ****     |                |                |                |                |                |         
 253:Drivers/STM32F3xx_HAL_Driver/Src/stm32f3xx_hal_comp.c ****     |  TIM3 IC1      |  TIM3 IC1      |  TIM15 IC1     |  TIM15 OCREFCLR|  TIM16 BKIN    |  TIM16 I
 254:Drivers/STM32F3xx_HAL_Driver/Src/stm32f3xx_hal_comp.c ****     |                |                |                |                |                |         
 255:Drivers/STM32F3xx_HAL_Driver/Src/stm32f3xx_hal_comp.c ****     |  TIM3 OCREFCLR |  TIM3 OCREFCLR |  TIM15 BKIN    |  TIM15 IC2     |  TIM17 IC1     |  TIM4 IC
 256:Drivers/STM32F3xx_HAL_Driver/Src/stm32f3xx_hal_comp.c ****     |                |                |                |                |                |         
ARM GAS  /var/folders/b1/22c950295gx2kqj80tvj8wqc0000gn/T//ccepvbUo.s 			page 6


 257:Drivers/STM32F3xx_HAL_Driver/Src/stm32f3xx_hal_comp.c ****     |  TIM20 BKIN    |  TIM20 BKIN    |  TIM20 BKIN    |  TIM20 BKIN (1U)|  TIM20 BKIN    |  TIM20 
 258:Drivers/STM32F3xx_HAL_Driver/Src/stm32f3xx_hal_comp.c ****     |                |                |                |                |                |         
 259:Drivers/STM32F3xx_HAL_Driver/Src/stm32f3xx_hal_comp.c ****     |  TIM20 BKIN2   |  TIM20 BKIN2   |  TIM20 BKIN2   |  TIM20 BKIN2   |  TIM20 BKIN2   |  TIM20 B
 260:Drivers/STM32F3xx_HAL_Driver/Src/stm32f3xx_hal_comp.c ****     |                |                |                |                |                |         
 261:Drivers/STM32F3xx_HAL_Driver/Src/stm32f3xx_hal_comp.c ****     |  TIM1 BKIN2    |  TIM1 BKIN2    |  TIM1 BKIN2    |  TIM1 BKIN2    |  TIM1 BKIN2    |  TIM1 BK
 262:Drivers/STM32F3xx_HAL_Driver/Src/stm32f3xx_hal_comp.c ****     |     +          |     +          |     +          |     +          |     +          |     +   
 263:Drivers/STM32F3xx_HAL_Driver/Src/stm32f3xx_hal_comp.c ****     |  TIM8 BKIN2    |  TIM8 BKIN2    |  TIM8 BKIN2    |  TIM8 BKIN2    |  TIM8 BKIN2    |  TIM8 BK
 264:Drivers/STM32F3xx_HAL_Driver/Src/stm32f3xx_hal_comp.c ****     |     +          |     +          |     +          |     +          |     +          |     +   
 265:Drivers/STM32F3xx_HAL_Driver/Src/stm32f3xx_hal_comp.c ****     |  TIM20 BKIN2   |  TIM20 BKIN2   |  TIM20 BKIN2   |  TIM20 BKIN2   |  TIM20 BKIN2   |  TIM20 B
 266:Drivers/STM32F3xx_HAL_Driver/Src/stm32f3xx_hal_comp.c ****     |                |                |                |                |                |         
 267:Drivers/STM32F3xx_HAL_Driver/Src/stm32f3xx_hal_comp.c ****     +----------------------------------------------------------------------------------------------
 268:Drivers/STM32F3xx_HAL_Driver/Src/stm32f3xx_hal_comp.c ****     (1U):  This connection consists of connecting both GPIO and COMP output to TIM1/8U/20 BRK input
 269:Drivers/STM32F3xx_HAL_Driver/Src/stm32f3xx_hal_comp.c ****           of connecting the GPIO to the TIM1/8U/20 BRK input and the COMP output to the TIM1/8U/20 
 270:Drivers/STM32F3xx_HAL_Driver/Src/stm32f3xx_hal_comp.c ****           add a digital filter (3  bits) on the COMP output.
 271:Drivers/STM32F3xx_HAL_Driver/Src/stm32f3xx_hal_comp.c **** 
 272:Drivers/STM32F3xx_HAL_Driver/Src/stm32f3xx_hal_comp.c ****     Table 5. COMP Outputs blanking sources for the STM32F303xB/STM32F303xC/STM32F303xE devices
 273:Drivers/STM32F3xx_HAL_Driver/Src/stm32f3xx_hal_comp.c ****     +----------------------------------------------------------------------------------------------
 274:Drivers/STM32F3xx_HAL_Driver/Src/stm32f3xx_hal_comp.c ****     |     COMP1      |     COMP2      |     COMP3      |     COMP4      |     COMP5      |     COMP
 275:Drivers/STM32F3xx_HAL_Driver/Src/stm32f3xx_hal_comp.c ****     |----------------|----------------|----------------|----------------|----------------|---------
 276:Drivers/STM32F3xx_HAL_Driver/Src/stm32f3xx_hal_comp.c ****     |  TIM1 OC5      |  TIM1 OC5      |  TIM1 OC5      |  TIM3 OC4      |  --------      |  TIM8 OC
 277:Drivers/STM32F3xx_HAL_Driver/Src/stm32f3xx_hal_comp.c ****     |                |                |                |                |                |         
 278:Drivers/STM32F3xx_HAL_Driver/Src/stm32f3xx_hal_comp.c ****     |  TIM2 OC3      |  TIM2 OC3      |  --------      |  TIM8 OC5      |  TIM3 OC3      |  TIM2 OC
 279:Drivers/STM32F3xx_HAL_Driver/Src/stm32f3xx_hal_comp.c ****     |                |                |                |                |                |         
 280:Drivers/STM32F3xx_HAL_Driver/Src/stm32f3xx_hal_comp.c ****     |  TIM3 OC3      |  TIM3 OC3      |  TIM2 OC4      |  TIM15 OC1     |  TIM8 OC5      |  TIM15 O
 281:Drivers/STM32F3xx_HAL_Driver/Src/stm32f3xx_hal_comp.c ****     |                |                |                |                |                |         
 282:Drivers/STM32F3xx_HAL_Driver/Src/stm32f3xx_hal_comp.c ****     +----------------------------------------------------------------------------------------------
 283:Drivers/STM32F3xx_HAL_Driver/Src/stm32f3xx_hal_comp.c **** 
 284:Drivers/STM32F3xx_HAL_Driver/Src/stm32f3xx_hal_comp.c **** */
 285:Drivers/STM32F3xx_HAL_Driver/Src/stm32f3xx_hal_comp.c **** 
 286:Drivers/STM32F3xx_HAL_Driver/Src/stm32f3xx_hal_comp.c **** /* Includes ------------------------------------------------------------------*/
 287:Drivers/STM32F3xx_HAL_Driver/Src/stm32f3xx_hal_comp.c **** #include "stm32f3xx_hal.h"
 288:Drivers/STM32F3xx_HAL_Driver/Src/stm32f3xx_hal_comp.c **** 
 289:Drivers/STM32F3xx_HAL_Driver/Src/stm32f3xx_hal_comp.c **** /** @addtogroup STM32F3xx_HAL_Driver
 290:Drivers/STM32F3xx_HAL_Driver/Src/stm32f3xx_hal_comp.c ****   * @{
 291:Drivers/STM32F3xx_HAL_Driver/Src/stm32f3xx_hal_comp.c ****   */
 292:Drivers/STM32F3xx_HAL_Driver/Src/stm32f3xx_hal_comp.c **** 
 293:Drivers/STM32F3xx_HAL_Driver/Src/stm32f3xx_hal_comp.c **** /** @defgroup COMP COMP
 294:Drivers/STM32F3xx_HAL_Driver/Src/stm32f3xx_hal_comp.c ****   * @brief COMP HAL module driver
 295:Drivers/STM32F3xx_HAL_Driver/Src/stm32f3xx_hal_comp.c ****   * @{
 296:Drivers/STM32F3xx_HAL_Driver/Src/stm32f3xx_hal_comp.c ****   */
 297:Drivers/STM32F3xx_HAL_Driver/Src/stm32f3xx_hal_comp.c **** 
 298:Drivers/STM32F3xx_HAL_Driver/Src/stm32f3xx_hal_comp.c **** #ifdef HAL_COMP_MODULE_ENABLED
 299:Drivers/STM32F3xx_HAL_Driver/Src/stm32f3xx_hal_comp.c **** 
 300:Drivers/STM32F3xx_HAL_Driver/Src/stm32f3xx_hal_comp.c **** /* Private typedef -----------------------------------------------------------*/
 301:Drivers/STM32F3xx_HAL_Driver/Src/stm32f3xx_hal_comp.c **** /* Private define ------------------------------------------------------------*/
 302:Drivers/STM32F3xx_HAL_Driver/Src/stm32f3xx_hal_comp.c **** /** @defgroup COMP_Private_Constants COMP Private Constants
 303:Drivers/STM32F3xx_HAL_Driver/Src/stm32f3xx_hal_comp.c ****   * @{
 304:Drivers/STM32F3xx_HAL_Driver/Src/stm32f3xx_hal_comp.c ****   */
 305:Drivers/STM32F3xx_HAL_Driver/Src/stm32f3xx_hal_comp.c **** #define COMP_LOCK_DISABLE                      (0x00000000U)
 306:Drivers/STM32F3xx_HAL_Driver/Src/stm32f3xx_hal_comp.c **** #define COMP_LOCK_ENABLE                       COMP_CSR_COMPxLOCK
 307:Drivers/STM32F3xx_HAL_Driver/Src/stm32f3xx_hal_comp.c **** /**
 308:Drivers/STM32F3xx_HAL_Driver/Src/stm32f3xx_hal_comp.c ****   * @}
 309:Drivers/STM32F3xx_HAL_Driver/Src/stm32f3xx_hal_comp.c ****   */
 310:Drivers/STM32F3xx_HAL_Driver/Src/stm32f3xx_hal_comp.c **** 
 311:Drivers/STM32F3xx_HAL_Driver/Src/stm32f3xx_hal_comp.c **** /* Private macro -------------------------------------------------------------*/
 312:Drivers/STM32F3xx_HAL_Driver/Src/stm32f3xx_hal_comp.c **** /* Private variables ---------------------------------------------------------*/
 313:Drivers/STM32F3xx_HAL_Driver/Src/stm32f3xx_hal_comp.c **** /* Private function prototypes -----------------------------------------------*/
ARM GAS  /var/folders/b1/22c950295gx2kqj80tvj8wqc0000gn/T//ccepvbUo.s 			page 7


 314:Drivers/STM32F3xx_HAL_Driver/Src/stm32f3xx_hal_comp.c **** /* Exported functions --------------------------------------------------------*/
 315:Drivers/STM32F3xx_HAL_Driver/Src/stm32f3xx_hal_comp.c **** 
 316:Drivers/STM32F3xx_HAL_Driver/Src/stm32f3xx_hal_comp.c **** /** @defgroup COMP_Exported_Functions COMP Exported Functions
 317:Drivers/STM32F3xx_HAL_Driver/Src/stm32f3xx_hal_comp.c ****   * @{
 318:Drivers/STM32F3xx_HAL_Driver/Src/stm32f3xx_hal_comp.c ****   */
 319:Drivers/STM32F3xx_HAL_Driver/Src/stm32f3xx_hal_comp.c **** 
 320:Drivers/STM32F3xx_HAL_Driver/Src/stm32f3xx_hal_comp.c **** /** @defgroup COMP_Exported_Functions_Group1 Initialization/de-initialization functions
 321:Drivers/STM32F3xx_HAL_Driver/Src/stm32f3xx_hal_comp.c ****  *  @brief    Initialization and de-initialization functions.
 322:Drivers/STM32F3xx_HAL_Driver/Src/stm32f3xx_hal_comp.c ****  *
 323:Drivers/STM32F3xx_HAL_Driver/Src/stm32f3xx_hal_comp.c **** @verbatim
 324:Drivers/STM32F3xx_HAL_Driver/Src/stm32f3xx_hal_comp.c ****  ===============================================================================
 325:Drivers/STM32F3xx_HAL_Driver/Src/stm32f3xx_hal_comp.c ****               ##### Initialization and de-initialization functions #####
 326:Drivers/STM32F3xx_HAL_Driver/Src/stm32f3xx_hal_comp.c ****  ===============================================================================
 327:Drivers/STM32F3xx_HAL_Driver/Src/stm32f3xx_hal_comp.c ****     [..]  This section provides functions to initialize and de-initialize comparators.
 328:Drivers/STM32F3xx_HAL_Driver/Src/stm32f3xx_hal_comp.c **** 
 329:Drivers/STM32F3xx_HAL_Driver/Src/stm32f3xx_hal_comp.c **** @endverbatim
 330:Drivers/STM32F3xx_HAL_Driver/Src/stm32f3xx_hal_comp.c ****   * @{
 331:Drivers/STM32F3xx_HAL_Driver/Src/stm32f3xx_hal_comp.c ****   */
 332:Drivers/STM32F3xx_HAL_Driver/Src/stm32f3xx_hal_comp.c **** 
 333:Drivers/STM32F3xx_HAL_Driver/Src/stm32f3xx_hal_comp.c **** /**
 334:Drivers/STM32F3xx_HAL_Driver/Src/stm32f3xx_hal_comp.c ****   * @brief  Initialize the COMP peripheral according to the specified
 335:Drivers/STM32F3xx_HAL_Driver/Src/stm32f3xx_hal_comp.c ****   *         parameters in the COMP_InitTypeDef and initialize the associated handle.
 336:Drivers/STM32F3xx_HAL_Driver/Src/stm32f3xx_hal_comp.c ****   * @note   If the selected comparator is locked, initialization cannot be performed.
 337:Drivers/STM32F3xx_HAL_Driver/Src/stm32f3xx_hal_comp.c ****   *         To unlock the configuration, perform a system reset.
 338:Drivers/STM32F3xx_HAL_Driver/Src/stm32f3xx_hal_comp.c ****   * @param  hcomp  COMP handle
 339:Drivers/STM32F3xx_HAL_Driver/Src/stm32f3xx_hal_comp.c ****   * @retval HAL status
 340:Drivers/STM32F3xx_HAL_Driver/Src/stm32f3xx_hal_comp.c ****   */
 341:Drivers/STM32F3xx_HAL_Driver/Src/stm32f3xx_hal_comp.c **** HAL_StatusTypeDef HAL_COMP_Init(COMP_HandleTypeDef *hcomp)
 342:Drivers/STM32F3xx_HAL_Driver/Src/stm32f3xx_hal_comp.c **** {
 343:Drivers/STM32F3xx_HAL_Driver/Src/stm32f3xx_hal_comp.c ****   HAL_StatusTypeDef status = HAL_OK;
 344:Drivers/STM32F3xx_HAL_Driver/Src/stm32f3xx_hal_comp.c **** 
 345:Drivers/STM32F3xx_HAL_Driver/Src/stm32f3xx_hal_comp.c ****   /* Check the COMP handle allocation and lock status */
 346:Drivers/STM32F3xx_HAL_Driver/Src/stm32f3xx_hal_comp.c ****   if ((hcomp == NULL) || ((hcomp->State & COMP_STATE_BIT_LOCK) != RESET))
 347:Drivers/STM32F3xx_HAL_Driver/Src/stm32f3xx_hal_comp.c ****   {
 348:Drivers/STM32F3xx_HAL_Driver/Src/stm32f3xx_hal_comp.c ****     status = HAL_ERROR;
 349:Drivers/STM32F3xx_HAL_Driver/Src/stm32f3xx_hal_comp.c ****   }
 350:Drivers/STM32F3xx_HAL_Driver/Src/stm32f3xx_hal_comp.c ****   else
 351:Drivers/STM32F3xx_HAL_Driver/Src/stm32f3xx_hal_comp.c ****   {
 352:Drivers/STM32F3xx_HAL_Driver/Src/stm32f3xx_hal_comp.c ****     /* Check the parameters */
 353:Drivers/STM32F3xx_HAL_Driver/Src/stm32f3xx_hal_comp.c ****     assert_param(IS_COMP_ALL_INSTANCE(hcomp->Instance));
 354:Drivers/STM32F3xx_HAL_Driver/Src/stm32f3xx_hal_comp.c ****     assert_param(IS_COMP_INVERTINGINPUT(hcomp->Init.InvertingInput));
 355:Drivers/STM32F3xx_HAL_Driver/Src/stm32f3xx_hal_comp.c ****     assert_param(IS_COMP_NONINVERTINGINPUT(hcomp->Init.NonInvertingInput));
 356:Drivers/STM32F3xx_HAL_Driver/Src/stm32f3xx_hal_comp.c ****     assert_param(IS_COMP_NONINVERTINGINPUT_INSTANCE(hcomp->Instance, hcomp->Init.NonInvertingInput)
 357:Drivers/STM32F3xx_HAL_Driver/Src/stm32f3xx_hal_comp.c ****     assert_param(IS_COMP_OUTPUT(hcomp->Init.Output));
 358:Drivers/STM32F3xx_HAL_Driver/Src/stm32f3xx_hal_comp.c ****     assert_param(IS_COMP_OUTPUT_INSTANCE(hcomp->Instance, hcomp->Init.Output));
 359:Drivers/STM32F3xx_HAL_Driver/Src/stm32f3xx_hal_comp.c ****     assert_param(IS_COMP_OUTPUTPOL(hcomp->Init.OutputPol));
 360:Drivers/STM32F3xx_HAL_Driver/Src/stm32f3xx_hal_comp.c ****     assert_param(IS_COMP_HYSTERESIS(hcomp->Init.Hysteresis));
 361:Drivers/STM32F3xx_HAL_Driver/Src/stm32f3xx_hal_comp.c ****     assert_param(IS_COMP_MODE(hcomp->Init.Mode));
 362:Drivers/STM32F3xx_HAL_Driver/Src/stm32f3xx_hal_comp.c ****     assert_param(IS_COMP_BLANKINGSRCE(hcomp->Init.BlankingSrce));
 363:Drivers/STM32F3xx_HAL_Driver/Src/stm32f3xx_hal_comp.c ****     assert_param(IS_COMP_BLANKINGSRCE_INSTANCE(hcomp->Instance, hcomp->Init.BlankingSrce));
 364:Drivers/STM32F3xx_HAL_Driver/Src/stm32f3xx_hal_comp.c ****     assert_param(IS_COMP_TRIGGERMODE(hcomp->Init.TriggerMode));
 365:Drivers/STM32F3xx_HAL_Driver/Src/stm32f3xx_hal_comp.c **** 
 366:Drivers/STM32F3xx_HAL_Driver/Src/stm32f3xx_hal_comp.c ****     if (hcomp->Init.WindowMode != COMP_WINDOWMODE_DISABLE)
 367:Drivers/STM32F3xx_HAL_Driver/Src/stm32f3xx_hal_comp.c ****     {
 368:Drivers/STM32F3xx_HAL_Driver/Src/stm32f3xx_hal_comp.c ****       assert_param(IS_COMP_WINDOWMODE_INSTANCE(hcomp->Instance));
 369:Drivers/STM32F3xx_HAL_Driver/Src/stm32f3xx_hal_comp.c ****       assert_param(IS_COMP_WINDOWMODE(hcomp->Init.WindowMode));
 370:Drivers/STM32F3xx_HAL_Driver/Src/stm32f3xx_hal_comp.c ****     }
ARM GAS  /var/folders/b1/22c950295gx2kqj80tvj8wqc0000gn/T//ccepvbUo.s 			page 8


 371:Drivers/STM32F3xx_HAL_Driver/Src/stm32f3xx_hal_comp.c **** 
 372:Drivers/STM32F3xx_HAL_Driver/Src/stm32f3xx_hal_comp.c ****     /* Init SYSCFG and the low level hardware to access comparators */
 373:Drivers/STM32F3xx_HAL_Driver/Src/stm32f3xx_hal_comp.c ****     __HAL_RCC_SYSCFG_CLK_ENABLE();
 374:Drivers/STM32F3xx_HAL_Driver/Src/stm32f3xx_hal_comp.c **** 
 375:Drivers/STM32F3xx_HAL_Driver/Src/stm32f3xx_hal_comp.c **** #if (USE_HAL_COMP_REGISTER_CALLBACKS == 1)
 376:Drivers/STM32F3xx_HAL_Driver/Src/stm32f3xx_hal_comp.c ****       /* Init the COMP Callback settings */
 377:Drivers/STM32F3xx_HAL_Driver/Src/stm32f3xx_hal_comp.c ****       hcomp->TriggerCallback = HAL_COMP_TriggerCallback; /* Legacy weak callback */
 378:Drivers/STM32F3xx_HAL_Driver/Src/stm32f3xx_hal_comp.c **** 
 379:Drivers/STM32F3xx_HAL_Driver/Src/stm32f3xx_hal_comp.c ****       if (hcomp->MspInitCallback == NULL)
 380:Drivers/STM32F3xx_HAL_Driver/Src/stm32f3xx_hal_comp.c ****       {
 381:Drivers/STM32F3xx_HAL_Driver/Src/stm32f3xx_hal_comp.c ****         hcomp->MspInitCallback = HAL_COMP_MspInit; /* Legacy weak MspInit  */
 382:Drivers/STM32F3xx_HAL_Driver/Src/stm32f3xx_hal_comp.c ****       }
 383:Drivers/STM32F3xx_HAL_Driver/Src/stm32f3xx_hal_comp.c ****       
 384:Drivers/STM32F3xx_HAL_Driver/Src/stm32f3xx_hal_comp.c ****       /* Init the low level hardware */
 385:Drivers/STM32F3xx_HAL_Driver/Src/stm32f3xx_hal_comp.c ****       hcomp->MspInitCallback(hcomp);
 386:Drivers/STM32F3xx_HAL_Driver/Src/stm32f3xx_hal_comp.c **** #else
 387:Drivers/STM32F3xx_HAL_Driver/Src/stm32f3xx_hal_comp.c ****     /* Init the low level hardware : SYSCFG to access comparators */
 388:Drivers/STM32F3xx_HAL_Driver/Src/stm32f3xx_hal_comp.c ****       HAL_COMP_MspInit(hcomp);
 389:Drivers/STM32F3xx_HAL_Driver/Src/stm32f3xx_hal_comp.c **** #endif /* USE_HAL_COMP_REGISTER_CALLBACKS */
 390:Drivers/STM32F3xx_HAL_Driver/Src/stm32f3xx_hal_comp.c **** 
 391:Drivers/STM32F3xx_HAL_Driver/Src/stm32f3xx_hal_comp.c ****     if (hcomp->State == HAL_COMP_STATE_RESET)
 392:Drivers/STM32F3xx_HAL_Driver/Src/stm32f3xx_hal_comp.c ****     {
 393:Drivers/STM32F3xx_HAL_Driver/Src/stm32f3xx_hal_comp.c ****       /* Allocate lock resource and initialize it */
 394:Drivers/STM32F3xx_HAL_Driver/Src/stm32f3xx_hal_comp.c ****       hcomp->Lock = HAL_UNLOCKED;
 395:Drivers/STM32F3xx_HAL_Driver/Src/stm32f3xx_hal_comp.c ****     }
 396:Drivers/STM32F3xx_HAL_Driver/Src/stm32f3xx_hal_comp.c **** 
 397:Drivers/STM32F3xx_HAL_Driver/Src/stm32f3xx_hal_comp.c ****     /* Manage inverting input comparator inverting input connected to a GPIO  */
 398:Drivers/STM32F3xx_HAL_Driver/Src/stm32f3xx_hal_comp.c ****     /* for STM32F302x, STM32F32xx, STM32F33x.                                 */
 399:Drivers/STM32F3xx_HAL_Driver/Src/stm32f3xx_hal_comp.c ****     hcomp->Init.InvertingInput = COMP_INVERTINGINPUT_SELECTION(hcomp->Instance, hcomp->Init.Inverti
 400:Drivers/STM32F3xx_HAL_Driver/Src/stm32f3xx_hal_comp.c **** 
 401:Drivers/STM32F3xx_HAL_Driver/Src/stm32f3xx_hal_comp.c ****     /* Set COMP parameters */
 402:Drivers/STM32F3xx_HAL_Driver/Src/stm32f3xx_hal_comp.c ****     /*     Set COMPxINSEL bits according to hcomp->Init.InvertingInput value        */
 403:Drivers/STM32F3xx_HAL_Driver/Src/stm32f3xx_hal_comp.c ****     /*     Set COMPxNONINSEL bits according to hcomp->Init.NonInvertingInput value  */
 404:Drivers/STM32F3xx_HAL_Driver/Src/stm32f3xx_hal_comp.c ****     /*     Set COMPxBLANKING bits according to hcomp->Init.BlankingSrce value       */
 405:Drivers/STM32F3xx_HAL_Driver/Src/stm32f3xx_hal_comp.c ****     /*     Set COMPxOUTSEL bits according to hcomp->Init.Output value               */
 406:Drivers/STM32F3xx_HAL_Driver/Src/stm32f3xx_hal_comp.c ****     /*     Set COMPxPOL bit according to hcomp->Init.OutputPol value                */
 407:Drivers/STM32F3xx_HAL_Driver/Src/stm32f3xx_hal_comp.c ****     /*     Set COMPxHYST bits according to hcomp->Init.Hysteresis value             */
 408:Drivers/STM32F3xx_HAL_Driver/Src/stm32f3xx_hal_comp.c ****     /*     Set COMPxMODE bits according to hcomp->Init.Mode value                   */
 409:Drivers/STM32F3xx_HAL_Driver/Src/stm32f3xx_hal_comp.c ****     COMP_INIT(hcomp);
 410:Drivers/STM32F3xx_HAL_Driver/Src/stm32f3xx_hal_comp.c **** 
 411:Drivers/STM32F3xx_HAL_Driver/Src/stm32f3xx_hal_comp.c ****     /* Initialize the COMP state*/
 412:Drivers/STM32F3xx_HAL_Driver/Src/stm32f3xx_hal_comp.c ****     hcomp->State = HAL_COMP_STATE_READY;
 413:Drivers/STM32F3xx_HAL_Driver/Src/stm32f3xx_hal_comp.c ****   }
 414:Drivers/STM32F3xx_HAL_Driver/Src/stm32f3xx_hal_comp.c **** 
 415:Drivers/STM32F3xx_HAL_Driver/Src/stm32f3xx_hal_comp.c ****   return status;
 416:Drivers/STM32F3xx_HAL_Driver/Src/stm32f3xx_hal_comp.c **** }
 417:Drivers/STM32F3xx_HAL_Driver/Src/stm32f3xx_hal_comp.c **** 
 418:Drivers/STM32F3xx_HAL_Driver/Src/stm32f3xx_hal_comp.c **** /**
 419:Drivers/STM32F3xx_HAL_Driver/Src/stm32f3xx_hal_comp.c ****   * @brief  DeInitialize the COMP peripheral.
 420:Drivers/STM32F3xx_HAL_Driver/Src/stm32f3xx_hal_comp.c ****   * @note   If the selected comparator is locked, deinitialization cannot be performed.
 421:Drivers/STM32F3xx_HAL_Driver/Src/stm32f3xx_hal_comp.c ****   *         To unlock the configuration, perform a system reset.
 422:Drivers/STM32F3xx_HAL_Driver/Src/stm32f3xx_hal_comp.c ****   * @param  hcomp  COMP handle
 423:Drivers/STM32F3xx_HAL_Driver/Src/stm32f3xx_hal_comp.c ****   * @retval HAL status
 424:Drivers/STM32F3xx_HAL_Driver/Src/stm32f3xx_hal_comp.c ****   */
 425:Drivers/STM32F3xx_HAL_Driver/Src/stm32f3xx_hal_comp.c **** HAL_StatusTypeDef HAL_COMP_DeInit(COMP_HandleTypeDef *hcomp)
 426:Drivers/STM32F3xx_HAL_Driver/Src/stm32f3xx_hal_comp.c **** {
 427:Drivers/STM32F3xx_HAL_Driver/Src/stm32f3xx_hal_comp.c ****   HAL_StatusTypeDef status = HAL_OK;
ARM GAS  /var/folders/b1/22c950295gx2kqj80tvj8wqc0000gn/T//ccepvbUo.s 			page 9


 428:Drivers/STM32F3xx_HAL_Driver/Src/stm32f3xx_hal_comp.c **** 
 429:Drivers/STM32F3xx_HAL_Driver/Src/stm32f3xx_hal_comp.c ****   /* Check the COMP handle allocation and lock status */
 430:Drivers/STM32F3xx_HAL_Driver/Src/stm32f3xx_hal_comp.c ****   if ((hcomp == NULL) || ((hcomp->State & COMP_STATE_BIT_LOCK) != RESET))
 431:Drivers/STM32F3xx_HAL_Driver/Src/stm32f3xx_hal_comp.c ****   {
 432:Drivers/STM32F3xx_HAL_Driver/Src/stm32f3xx_hal_comp.c ****     status = HAL_ERROR;
 433:Drivers/STM32F3xx_HAL_Driver/Src/stm32f3xx_hal_comp.c ****   }
 434:Drivers/STM32F3xx_HAL_Driver/Src/stm32f3xx_hal_comp.c ****   else
 435:Drivers/STM32F3xx_HAL_Driver/Src/stm32f3xx_hal_comp.c ****   {
 436:Drivers/STM32F3xx_HAL_Driver/Src/stm32f3xx_hal_comp.c ****     /* Check the parameter */
 437:Drivers/STM32F3xx_HAL_Driver/Src/stm32f3xx_hal_comp.c ****     assert_param(IS_COMP_ALL_INSTANCE(hcomp->Instance));
 438:Drivers/STM32F3xx_HAL_Driver/Src/stm32f3xx_hal_comp.c **** 
 439:Drivers/STM32F3xx_HAL_Driver/Src/stm32f3xx_hal_comp.c ****     /* Set COMP_CSR register to reset value */
 440:Drivers/STM32F3xx_HAL_Driver/Src/stm32f3xx_hal_comp.c ****     COMP_DEINIT(hcomp);
 441:Drivers/STM32F3xx_HAL_Driver/Src/stm32f3xx_hal_comp.c **** 
 442:Drivers/STM32F3xx_HAL_Driver/Src/stm32f3xx_hal_comp.c **** #if (USE_HAL_COMP_REGISTER_CALLBACKS == 1)
 443:Drivers/STM32F3xx_HAL_Driver/Src/stm32f3xx_hal_comp.c ****     if (hcomp->MspDeInitCallback == NULL)
 444:Drivers/STM32F3xx_HAL_Driver/Src/stm32f3xx_hal_comp.c ****     {
 445:Drivers/STM32F3xx_HAL_Driver/Src/stm32f3xx_hal_comp.c ****       hcomp->MspDeInitCallback = HAL_COMP_MspDeInit; /* Legacy weak MspDeInit  */
 446:Drivers/STM32F3xx_HAL_Driver/Src/stm32f3xx_hal_comp.c ****     }
 447:Drivers/STM32F3xx_HAL_Driver/Src/stm32f3xx_hal_comp.c ****     
 448:Drivers/STM32F3xx_HAL_Driver/Src/stm32f3xx_hal_comp.c ****     /* DeInit the low level hardware: SYSCFG, GPIO, CLOCK and NVIC */
 449:Drivers/STM32F3xx_HAL_Driver/Src/stm32f3xx_hal_comp.c ****     hcomp->MspDeInitCallback(hcomp);
 450:Drivers/STM32F3xx_HAL_Driver/Src/stm32f3xx_hal_comp.c **** #else
 451:Drivers/STM32F3xx_HAL_Driver/Src/stm32f3xx_hal_comp.c ****     /* DeInit the low level hardware: SYSCFG, GPIO, CLOCK and NVIC */
 452:Drivers/STM32F3xx_HAL_Driver/Src/stm32f3xx_hal_comp.c ****     HAL_COMP_MspDeInit(hcomp);
 453:Drivers/STM32F3xx_HAL_Driver/Src/stm32f3xx_hal_comp.c **** #endif /* USE_HAL_COMP_REGISTER_CALLBACKS */
 454:Drivers/STM32F3xx_HAL_Driver/Src/stm32f3xx_hal_comp.c **** 
 455:Drivers/STM32F3xx_HAL_Driver/Src/stm32f3xx_hal_comp.c ****     hcomp->State = HAL_COMP_STATE_RESET;
 456:Drivers/STM32F3xx_HAL_Driver/Src/stm32f3xx_hal_comp.c **** 
 457:Drivers/STM32F3xx_HAL_Driver/Src/stm32f3xx_hal_comp.c ****     /* Release Lock */
 458:Drivers/STM32F3xx_HAL_Driver/Src/stm32f3xx_hal_comp.c ****     __HAL_UNLOCK(hcomp);
 459:Drivers/STM32F3xx_HAL_Driver/Src/stm32f3xx_hal_comp.c ****   }
 460:Drivers/STM32F3xx_HAL_Driver/Src/stm32f3xx_hal_comp.c **** 
 461:Drivers/STM32F3xx_HAL_Driver/Src/stm32f3xx_hal_comp.c ****   return status;
 462:Drivers/STM32F3xx_HAL_Driver/Src/stm32f3xx_hal_comp.c **** }
 463:Drivers/STM32F3xx_HAL_Driver/Src/stm32f3xx_hal_comp.c **** 
 464:Drivers/STM32F3xx_HAL_Driver/Src/stm32f3xx_hal_comp.c **** /**
 465:Drivers/STM32F3xx_HAL_Driver/Src/stm32f3xx_hal_comp.c ****   * @brief  Initialize the COMP MSP.
 466:Drivers/STM32F3xx_HAL_Driver/Src/stm32f3xx_hal_comp.c ****   * @param  hcomp  COMP handle
 467:Drivers/STM32F3xx_HAL_Driver/Src/stm32f3xx_hal_comp.c ****   * @retval None
 468:Drivers/STM32F3xx_HAL_Driver/Src/stm32f3xx_hal_comp.c ****   */
 469:Drivers/STM32F3xx_HAL_Driver/Src/stm32f3xx_hal_comp.c **** __weak void HAL_COMP_MspInit(COMP_HandleTypeDef *hcomp)
 470:Drivers/STM32F3xx_HAL_Driver/Src/stm32f3xx_hal_comp.c **** {
  31              		.loc 1 470 1 view -0
  32              		.cfi_startproc
  33              		@ args = 0, pretend = 0, frame = 0
  34              		@ frame_needed = 0, uses_anonymous_args = 0
  35              		@ link register save eliminated.
 471:Drivers/STM32F3xx_HAL_Driver/Src/stm32f3xx_hal_comp.c ****   /* Prevent unused argument(s) compilation warning */
 472:Drivers/STM32F3xx_HAL_Driver/Src/stm32f3xx_hal_comp.c ****   UNUSED(hcomp);
  36              		.loc 1 472 3 view .LVU1
 473:Drivers/STM32F3xx_HAL_Driver/Src/stm32f3xx_hal_comp.c **** 
 474:Drivers/STM32F3xx_HAL_Driver/Src/stm32f3xx_hal_comp.c ****   /* NOTE : This function should not be modified, when the callback is needed,
 475:Drivers/STM32F3xx_HAL_Driver/Src/stm32f3xx_hal_comp.c ****             the HAL_COMP_MspInit could be implemented in the user file
 476:Drivers/STM32F3xx_HAL_Driver/Src/stm32f3xx_hal_comp.c ****    */
 477:Drivers/STM32F3xx_HAL_Driver/Src/stm32f3xx_hal_comp.c **** }
  37              		.loc 1 477 1 is_stmt 0 view .LVU2
ARM GAS  /var/folders/b1/22c950295gx2kqj80tvj8wqc0000gn/T//ccepvbUo.s 			page 10


  38 0000 7047     		bx	lr
  39              		.cfi_endproc
  40              	.LFE125:
  42 0002 00BF     		.section	.text.HAL_COMP_Init,"ax",%progbits
  43              		.align	1
  44              		.p2align 2,,3
  45              		.global	HAL_COMP_Init
  46              		.syntax unified
  47              		.thumb
  48              		.thumb_func
  50              	HAL_COMP_Init:
  51              	.LVL1:
  52              	.LFB123:
 342:Drivers/STM32F3xx_HAL_Driver/Src/stm32f3xx_hal_comp.c ****   HAL_StatusTypeDef status = HAL_OK;
  53              		.loc 1 342 1 is_stmt 1 view -0
  54              		.cfi_startproc
  55              		@ args = 0, pretend = 0, frame = 8
  56              		@ frame_needed = 0, uses_anonymous_args = 0
 343:Drivers/STM32F3xx_HAL_Driver/Src/stm32f3xx_hal_comp.c **** 
  57              		.loc 1 343 3 view .LVU4
 346:Drivers/STM32F3xx_HAL_Driver/Src/stm32f3xx_hal_comp.c ****   {
  58              		.loc 1 346 3 view .LVU5
 342:Drivers/STM32F3xx_HAL_Driver/Src/stm32f3xx_hal_comp.c ****   HAL_StatusTypeDef status = HAL_OK;
  59              		.loc 1 342 1 is_stmt 0 view .LVU6
  60 0000 30B5     		push	{r4, r5, lr}
  61              	.LCFI0:
  62              		.cfi_def_cfa_offset 12
  63              		.cfi_offset 4, -12
  64              		.cfi_offset 5, -8
  65              		.cfi_offset 14, -4
  66 0002 83B0     		sub	sp, sp, #12
  67              	.LCFI1:
  68              		.cfi_def_cfa_offset 24
 346:Drivers/STM32F3xx_HAL_Driver/Src/stm32f3xx_hal_comp.c ****   {
  69              		.loc 1 346 6 view .LVU7
  70 0004 28B1     		cbz	r0, .L9
 346:Drivers/STM32F3xx_HAL_Driver/Src/stm32f3xx_hal_comp.c ****   {
  71              		.loc 1 346 33 discriminator 1 view .LVU8
  72 0006 90F82950 		ldrb	r5, [r0, #41]	@ zero_extendqisi2
 346:Drivers/STM32F3xx_HAL_Driver/Src/stm32f3xx_hal_comp.c ****   {
  73              		.loc 1 346 23 discriminator 1 view .LVU9
  74 000a 15F01005 		ands	r5, r5, #16
  75 000e 0446     		mov	r4, r0
  76 0010 03D0     		beq	.L12
  77              	.L9:
 348:Drivers/STM32F3xx_HAL_Driver/Src/stm32f3xx_hal_comp.c ****   }
  78              		.loc 1 348 12 view .LVU10
  79 0012 0125     		movs	r5, #1
  80              	.LVL2:
 415:Drivers/STM32F3xx_HAL_Driver/Src/stm32f3xx_hal_comp.c **** }
  81              		.loc 1 415 3 is_stmt 1 view .LVU11
 416:Drivers/STM32F3xx_HAL_Driver/Src/stm32f3xx_hal_comp.c **** 
  82              		.loc 1 416 1 is_stmt 0 view .LVU12
  83 0014 2846     		mov	r0, r5
  84              	.LVL3:
 416:Drivers/STM32F3xx_HAL_Driver/Src/stm32f3xx_hal_comp.c **** 
  85              		.loc 1 416 1 view .LVU13
ARM GAS  /var/folders/b1/22c950295gx2kqj80tvj8wqc0000gn/T//ccepvbUo.s 			page 11


  86 0016 03B0     		add	sp, sp, #12
  87              	.LCFI2:
  88              		.cfi_remember_state
  89              		.cfi_def_cfa_offset 12
  90              		@ sp needed
  91 0018 30BD     		pop	{r4, r5, pc}
  92              	.LVL4:
  93              	.L12:
  94              	.LCFI3:
  95              		.cfi_restore_state
 353:Drivers/STM32F3xx_HAL_Driver/Src/stm32f3xx_hal_comp.c ****     assert_param(IS_COMP_INVERTINGINPUT(hcomp->Init.InvertingInput));
  96              		.loc 1 353 5 is_stmt 1 view .LVU14
 354:Drivers/STM32F3xx_HAL_Driver/Src/stm32f3xx_hal_comp.c ****     assert_param(IS_COMP_NONINVERTINGINPUT(hcomp->Init.NonInvertingInput));
  97              		.loc 1 354 5 view .LVU15
 355:Drivers/STM32F3xx_HAL_Driver/Src/stm32f3xx_hal_comp.c ****     assert_param(IS_COMP_NONINVERTINGINPUT_INSTANCE(hcomp->Instance, hcomp->Init.NonInvertingInput)
  98              		.loc 1 355 5 view .LVU16
 356:Drivers/STM32F3xx_HAL_Driver/Src/stm32f3xx_hal_comp.c ****     assert_param(IS_COMP_OUTPUT(hcomp->Init.Output));
  99              		.loc 1 356 5 view .LVU17
 357:Drivers/STM32F3xx_HAL_Driver/Src/stm32f3xx_hal_comp.c ****     assert_param(IS_COMP_OUTPUT_INSTANCE(hcomp->Instance, hcomp->Init.Output));
 100              		.loc 1 357 5 view .LVU18
 358:Drivers/STM32F3xx_HAL_Driver/Src/stm32f3xx_hal_comp.c ****     assert_param(IS_COMP_OUTPUTPOL(hcomp->Init.OutputPol));
 101              		.loc 1 358 5 view .LVU19
 359:Drivers/STM32F3xx_HAL_Driver/Src/stm32f3xx_hal_comp.c ****     assert_param(IS_COMP_HYSTERESIS(hcomp->Init.Hysteresis));
 102              		.loc 1 359 5 view .LVU20
 360:Drivers/STM32F3xx_HAL_Driver/Src/stm32f3xx_hal_comp.c ****     assert_param(IS_COMP_MODE(hcomp->Init.Mode));
 103              		.loc 1 360 5 view .LVU21
 361:Drivers/STM32F3xx_HAL_Driver/Src/stm32f3xx_hal_comp.c ****     assert_param(IS_COMP_BLANKINGSRCE(hcomp->Init.BlankingSrce));
 104              		.loc 1 361 5 view .LVU22
 362:Drivers/STM32F3xx_HAL_Driver/Src/stm32f3xx_hal_comp.c ****     assert_param(IS_COMP_BLANKINGSRCE_INSTANCE(hcomp->Instance, hcomp->Init.BlankingSrce));
 105              		.loc 1 362 5 view .LVU23
 363:Drivers/STM32F3xx_HAL_Driver/Src/stm32f3xx_hal_comp.c ****     assert_param(IS_COMP_TRIGGERMODE(hcomp->Init.TriggerMode));
 106              		.loc 1 363 5 view .LVU24
 364:Drivers/STM32F3xx_HAL_Driver/Src/stm32f3xx_hal_comp.c **** 
 107              		.loc 1 364 5 view .LVU25
 366:Drivers/STM32F3xx_HAL_Driver/Src/stm32f3xx_hal_comp.c ****     {
 108              		.loc 1 366 5 view .LVU26
 368:Drivers/STM32F3xx_HAL_Driver/Src/stm32f3xx_hal_comp.c ****       assert_param(IS_COMP_WINDOWMODE(hcomp->Init.WindowMode));
 109              		.loc 1 368 7 view .LVU27
 369:Drivers/STM32F3xx_HAL_Driver/Src/stm32f3xx_hal_comp.c ****     }
 110              		.loc 1 369 7 view .LVU28
 373:Drivers/STM32F3xx_HAL_Driver/Src/stm32f3xx_hal_comp.c **** 
 111              		.loc 1 373 5 view .LVU29
 112              	.LBB2:
 373:Drivers/STM32F3xx_HAL_Driver/Src/stm32f3xx_hal_comp.c **** 
 113              		.loc 1 373 5 view .LVU30
 373:Drivers/STM32F3xx_HAL_Driver/Src/stm32f3xx_hal_comp.c **** 
 114              		.loc 1 373 5 view .LVU31
 115 001a 294B     		ldr	r3, .L13
 116 001c 9A69     		ldr	r2, [r3, #24]
 117 001e 42F00102 		orr	r2, r2, #1
 118 0022 9A61     		str	r2, [r3, #24]
 373:Drivers/STM32F3xx_HAL_Driver/Src/stm32f3xx_hal_comp.c **** 
 119              		.loc 1 373 5 view .LVU32
 120 0024 9B69     		ldr	r3, [r3, #24]
 121 0026 03F00103 		and	r3, r3, #1
 122 002a 0093     		str	r3, [sp]
 373:Drivers/STM32F3xx_HAL_Driver/Src/stm32f3xx_hal_comp.c **** 
ARM GAS  /var/folders/b1/22c950295gx2kqj80tvj8wqc0000gn/T//ccepvbUo.s 			page 12


 123              		.loc 1 373 5 view .LVU33
 124 002c 009B     		ldr	r3, [sp]
 125              	.LBE2:
 373:Drivers/STM32F3xx_HAL_Driver/Src/stm32f3xx_hal_comp.c **** 
 126              		.loc 1 373 5 view .LVU34
 388:Drivers/STM32F3xx_HAL_Driver/Src/stm32f3xx_hal_comp.c **** #endif /* USE_HAL_COMP_REGISTER_CALLBACKS */
 127              		.loc 1 388 7 view .LVU35
 128 002e FFF7FEFF 		bl	HAL_COMP_MspInit
 129              	.LVL5:
 391:Drivers/STM32F3xx_HAL_Driver/Src/stm32f3xx_hal_comp.c ****     {
 130              		.loc 1 391 5 view .LVU36
 391:Drivers/STM32F3xx_HAL_Driver/Src/stm32f3xx_hal_comp.c ****     {
 131              		.loc 1 391 14 is_stmt 0 view .LVU37
 132 0032 94F82930 		ldrb	r3, [r4, #41]	@ zero_extendqisi2
 391:Drivers/STM32F3xx_HAL_Driver/Src/stm32f3xx_hal_comp.c ****     {
 133              		.loc 1 391 8 view .LVU38
 134 0036 0BB9     		cbnz	r3, .L5
 394:Drivers/STM32F3xx_HAL_Driver/Src/stm32f3xx_hal_comp.c ****     }
 135              		.loc 1 394 7 is_stmt 1 view .LVU39
 394:Drivers/STM32F3xx_HAL_Driver/Src/stm32f3xx_hal_comp.c ****     }
 136              		.loc 1 394 19 is_stmt 0 view .LVU40
 137 0038 84F82850 		strb	r5, [r4, #40]
 138              	.L5:
 399:Drivers/STM32F3xx_HAL_Driver/Src/stm32f3xx_hal_comp.c **** 
 139              		.loc 1 399 5 is_stmt 1 view .LVU41
 399:Drivers/STM32F3xx_HAL_Driver/Src/stm32f3xx_hal_comp.c **** 
 140              		.loc 1 399 34 is_stmt 0 view .LVU42
 141 003c D4E90021 		ldrd	r2, r1, [r4]
 142 0040 6029     		cmp	r1, #96
 143 0042 37D0     		beq	.L6
 144              	.L7:
 145              	.LBB3:
 409:Drivers/STM32F3xx_HAL_Driver/Src/stm32f3xx_hal_comp.c **** 
 146              		.loc 1 409 5 discriminator 8 view .LVU43
 147 0044 0023     		movs	r3, #0
 148 0046 0193     		str	r3, [sp, #4]
 149 0048 1368     		ldr	r3, [r2]
 150 004a 0193     		str	r3, [sp, #4]
 151 004c 019B     		ldr	r3, [sp, #4]
 152              	.LBE3:
 399:Drivers/STM32F3xx_HAL_Driver/Src/stm32f3xx_hal_comp.c **** 
 153              		.loc 1 399 32 discriminator 8 view .LVU44
 154 004e 6160     		str	r1, [r4, #4]
 409:Drivers/STM32F3xx_HAL_Driver/Src/stm32f3xx_hal_comp.c **** 
 155              		.loc 1 409 5 is_stmt 1 discriminator 8 view .LVU45
 156              	.LBB4:
 409:Drivers/STM32F3xx_HAL_Driver/Src/stm32f3xx_hal_comp.c **** 
 157              		.loc 1 409 5 discriminator 8 view .LVU46
 409:Drivers/STM32F3xx_HAL_Driver/Src/stm32f3xx_hal_comp.c **** 
 158              		.loc 1 409 5 discriminator 8 view .LVU47
 409:Drivers/STM32F3xx_HAL_Driver/Src/stm32f3xx_hal_comp.c **** 
 159              		.loc 1 409 5 discriminator 8 view .LVU48
 160 0050 23F48003 		bic	r3, r3, #4194304
 161 0054 23F07003 		bic	r3, r3, #112
 162 0058 0B43     		orrs	r3, r3, r1
 163 005a 0193     		str	r3, [sp, #4]
 409:Drivers/STM32F3xx_HAL_Driver/Src/stm32f3xx_hal_comp.c **** 
ARM GAS  /var/folders/b1/22c950295gx2kqj80tvj8wqc0000gn/T//ccepvbUo.s 			page 13


 164              		.loc 1 409 5 discriminator 8 view .LVU49
 165 005c 019B     		ldr	r3, [sp, #4]
 166 005e A168     		ldr	r1, [r4, #8]
 167 0060 0B43     		orrs	r3, r3, r1
 168 0062 0193     		str	r3, [sp, #4]
 409:Drivers/STM32F3xx_HAL_Driver/Src/stm32f3xx_hal_comp.c **** 
 169              		.loc 1 409 5 discriminator 8 view .LVU50
 170 0064 019B     		ldr	r3, [sp, #4]
 171 0066 A169     		ldr	r1, [r4, #24]
 172 0068 23F44023 		bic	r3, r3, #786432
 173 006c 0B43     		orrs	r3, r3, r1
 174 006e 0193     		str	r3, [sp, #4]
 409:Drivers/STM32F3xx_HAL_Driver/Src/stm32f3xx_hal_comp.c **** 
 175              		.loc 1 409 5 discriminator 8 view .LVU51
 176 0070 0199     		ldr	r1, [sp, #4]
 177 0072 E368     		ldr	r3, [r4, #12]
 178 0074 21F47051 		bic	r1, r1, #15360
 179 0078 03F47053 		and	r3, r3, #15360
 180 007c 0B43     		orrs	r3, r3, r1
 181 007e 0193     		str	r3, [sp, #4]
 409:Drivers/STM32F3xx_HAL_Driver/Src/stm32f3xx_hal_comp.c **** 
 182              		.loc 1 409 5 discriminator 8 view .LVU52
 183 0080 019B     		ldr	r3, [sp, #4]
 184 0082 2169     		ldr	r1, [r4, #16]
 185 0084 23F40043 		bic	r3, r3, #32768
 186 0088 0B43     		orrs	r3, r3, r1
 187 008a 0193     		str	r3, [sp, #4]
 409:Drivers/STM32F3xx_HAL_Driver/Src/stm32f3xx_hal_comp.c **** 
 188              		.loc 1 409 5 discriminator 8 view .LVU53
 189 008c 019B     		ldr	r3, [sp, #4]
 190 008e 6169     		ldr	r1, [r4, #20]
 191 0090 0B43     		orrs	r3, r3, r1
 192 0092 0193     		str	r3, [sp, #4]
 409:Drivers/STM32F3xx_HAL_Driver/Src/stm32f3xx_hal_comp.c **** 
 193              		.loc 1 409 5 discriminator 8 view .LVU54
 194 0094 019B     		ldr	r3, [sp, #4]
 195 0096 E169     		ldr	r1, [r4, #28]
 196 0098 0B43     		orrs	r3, r3, r1
 197 009a 0193     		str	r3, [sp, #4]
 409:Drivers/STM32F3xx_HAL_Driver/Src/stm32f3xx_hal_comp.c **** 
 198              		.loc 1 409 5 discriminator 8 view .LVU55
 199 009c 019B     		ldr	r3, [sp, #4]
 200 009e 216A     		ldr	r1, [r4, #32]
 201 00a0 0B43     		orrs	r3, r3, r1
 202 00a2 0193     		str	r3, [sp, #4]
 409:Drivers/STM32F3xx_HAL_Driver/Src/stm32f3xx_hal_comp.c **** 
 203              		.loc 1 409 5 discriminator 8 view .LVU56
 204 00a4 0199     		ldr	r1, [sp, #4]
 205 00a6 1160     		str	r1, [r2]
 206              	.LBE4:
 409:Drivers/STM32F3xx_HAL_Driver/Src/stm32f3xx_hal_comp.c **** 
 207              		.loc 1 409 5 discriminator 8 view .LVU57
 412:Drivers/STM32F3xx_HAL_Driver/Src/stm32f3xx_hal_comp.c ****   }
 208              		.loc 1 412 5 discriminator 8 view .LVU58
 412:Drivers/STM32F3xx_HAL_Driver/Src/stm32f3xx_hal_comp.c ****   }
 209              		.loc 1 412 18 is_stmt 0 discriminator 8 view .LVU59
 210 00a8 0123     		movs	r3, #1
ARM GAS  /var/folders/b1/22c950295gx2kqj80tvj8wqc0000gn/T//ccepvbUo.s 			page 14


 416:Drivers/STM32F3xx_HAL_Driver/Src/stm32f3xx_hal_comp.c **** 
 211              		.loc 1 416 1 discriminator 8 view .LVU60
 212 00aa 2846     		mov	r0, r5
 412:Drivers/STM32F3xx_HAL_Driver/Src/stm32f3xx_hal_comp.c ****   }
 213              		.loc 1 412 18 discriminator 8 view .LVU61
 214 00ac 84F82930 		strb	r3, [r4, #41]
 215              	.LVL6:
 415:Drivers/STM32F3xx_HAL_Driver/Src/stm32f3xx_hal_comp.c **** }
 216              		.loc 1 415 3 is_stmt 1 discriminator 8 view .LVU62
 416:Drivers/STM32F3xx_HAL_Driver/Src/stm32f3xx_hal_comp.c **** 
 217              		.loc 1 416 1 is_stmt 0 discriminator 8 view .LVU63
 218 00b0 03B0     		add	sp, sp, #12
 219              	.LCFI4:
 220              		.cfi_remember_state
 221              		.cfi_def_cfa_offset 12
 222              		@ sp needed
 223 00b2 30BD     		pop	{r4, r5, pc}
 224              	.LVL7:
 225              	.L6:
 226              	.LCFI5:
 227              		.cfi_restore_state
 399:Drivers/STM32F3xx_HAL_Driver/Src/stm32f3xx_hal_comp.c **** 
 228              		.loc 1 399 34 discriminator 2 view .LVU64
 229 00b4 0348     		ldr	r0, .L13+4
 230 00b6 044B     		ldr	r3, .L13+8
 231 00b8 8242     		cmp	r2, r0
 232 00ba 18BF     		it	ne
 233 00bc 1946     		movne	r1, r3
 234 00be C1E7     		b	.L7
 235              	.L14:
 236              		.align	2
 237              	.L13:
 238 00c0 00100240 		.word	1073876992
 239 00c4 20000140 		.word	1073807392
 240 00c8 70004000 		.word	4194416
 241              		.cfi_endproc
 242              	.LFE123:
 244              		.section	.text.HAL_COMP_MspDeInit,"ax",%progbits
 245              		.align	1
 246              		.p2align 2,,3
 247              		.weak	HAL_COMP_MspDeInit
 248              		.syntax unified
 249              		.thumb
 250              		.thumb_func
 252              	HAL_COMP_MspDeInit:
 253              	.LFB139:
 254              		.cfi_startproc
 255              		@ args = 0, pretend = 0, frame = 0
 256              		@ frame_needed = 0, uses_anonymous_args = 0
 257              		@ link register save eliminated.
 258 0000 7047     		bx	lr
 259              		.cfi_endproc
 260              	.LFE139:
 262 0002 00BF     		.section	.text.HAL_COMP_DeInit,"ax",%progbits
 263              		.align	1
 264              		.p2align 2,,3
 265              		.global	HAL_COMP_DeInit
ARM GAS  /var/folders/b1/22c950295gx2kqj80tvj8wqc0000gn/T//ccepvbUo.s 			page 15


 266              		.syntax unified
 267              		.thumb
 268              		.thumb_func
 270              	HAL_COMP_DeInit:
 271              	.LVL8:
 272              	.LFB124:
 426:Drivers/STM32F3xx_HAL_Driver/Src/stm32f3xx_hal_comp.c ****   HAL_StatusTypeDef status = HAL_OK;
 273              		.loc 1 426 1 is_stmt 1 view -0
 274              		.cfi_startproc
 275              		@ args = 0, pretend = 0, frame = 0
 276              		@ frame_needed = 0, uses_anonymous_args = 0
 427:Drivers/STM32F3xx_HAL_Driver/Src/stm32f3xx_hal_comp.c **** 
 277              		.loc 1 427 3 view .LVU66
 430:Drivers/STM32F3xx_HAL_Driver/Src/stm32f3xx_hal_comp.c ****   {
 278              		.loc 1 430 3 view .LVU67
 426:Drivers/STM32F3xx_HAL_Driver/Src/stm32f3xx_hal_comp.c ****   HAL_StatusTypeDef status = HAL_OK;
 279              		.loc 1 426 1 is_stmt 0 view .LVU68
 280 0000 38B5     		push	{r3, r4, r5, lr}
 281              	.LCFI6:
 282              		.cfi_def_cfa_offset 16
 283              		.cfi_offset 3, -16
 284              		.cfi_offset 4, -12
 285              		.cfi_offset 5, -8
 286              		.cfi_offset 14, -4
 430:Drivers/STM32F3xx_HAL_Driver/Src/stm32f3xx_hal_comp.c ****   {
 287              		.loc 1 430 6 view .LVU69
 288 0002 28B1     		cbz	r0, .L19
 430:Drivers/STM32F3xx_HAL_Driver/Src/stm32f3xx_hal_comp.c ****   {
 289              		.loc 1 430 33 discriminator 1 view .LVU70
 290 0004 90F82950 		ldrb	r5, [r0, #41]	@ zero_extendqisi2
 430:Drivers/STM32F3xx_HAL_Driver/Src/stm32f3xx_hal_comp.c ****   {
 291              		.loc 1 430 23 discriminator 1 view .LVU71
 292 0008 15F01005 		ands	r5, r5, #16
 293 000c 0446     		mov	r4, r0
 294 000e 02D0     		beq	.L21
 295              	.L19:
 432:Drivers/STM32F3xx_HAL_Driver/Src/stm32f3xx_hal_comp.c ****   }
 296              		.loc 1 432 12 view .LVU72
 297 0010 0125     		movs	r5, #1
 298              	.LVL9:
 458:Drivers/STM32F3xx_HAL_Driver/Src/stm32f3xx_hal_comp.c ****   }
 299              		.loc 1 458 5 is_stmt 1 view .LVU73
 461:Drivers/STM32F3xx_HAL_Driver/Src/stm32f3xx_hal_comp.c **** }
 300              		.loc 1 461 3 view .LVU74
 462:Drivers/STM32F3xx_HAL_Driver/Src/stm32f3xx_hal_comp.c **** 
 301              		.loc 1 462 1 is_stmt 0 view .LVU75
 302 0012 2846     		mov	r0, r5
 303              	.LVL10:
 462:Drivers/STM32F3xx_HAL_Driver/Src/stm32f3xx_hal_comp.c **** 
 304              		.loc 1 462 1 view .LVU76
 305 0014 38BD     		pop	{r3, r4, r5, pc}
 306              	.LVL11:
 307              	.L21:
 437:Drivers/STM32F3xx_HAL_Driver/Src/stm32f3xx_hal_comp.c **** 
 308              		.loc 1 437 5 is_stmt 1 view .LVU77
 440:Drivers/STM32F3xx_HAL_Driver/Src/stm32f3xx_hal_comp.c **** 
 309              		.loc 1 440 5 view .LVU78
ARM GAS  /var/folders/b1/22c950295gx2kqj80tvj8wqc0000gn/T//ccepvbUo.s 			page 16


 310 0016 0368     		ldr	r3, [r0]
 311 0018 1D60     		str	r5, [r3]
 452:Drivers/STM32F3xx_HAL_Driver/Src/stm32f3xx_hal_comp.c **** #endif /* USE_HAL_COMP_REGISTER_CALLBACKS */
 312              		.loc 1 452 5 view .LVU79
 313 001a FFF7FEFF 		bl	HAL_COMP_MspDeInit
 314              	.LVL12:
 455:Drivers/STM32F3xx_HAL_Driver/Src/stm32f3xx_hal_comp.c **** 
 315              		.loc 1 455 5 view .LVU80
 455:Drivers/STM32F3xx_HAL_Driver/Src/stm32f3xx_hal_comp.c **** 
 316              		.loc 1 455 18 is_stmt 0 view .LVU81
 317 001e 84F82950 		strb	r5, [r4, #41]
 458:Drivers/STM32F3xx_HAL_Driver/Src/stm32f3xx_hal_comp.c ****   }
 318              		.loc 1 458 5 is_stmt 1 view .LVU82
 458:Drivers/STM32F3xx_HAL_Driver/Src/stm32f3xx_hal_comp.c ****   }
 319              		.loc 1 458 5 view .LVU83
 320 0022 84F82850 		strb	r5, [r4, #40]
 321              	.LVL13:
 458:Drivers/STM32F3xx_HAL_Driver/Src/stm32f3xx_hal_comp.c ****   }
 322              		.loc 1 458 5 view .LVU84
 461:Drivers/STM32F3xx_HAL_Driver/Src/stm32f3xx_hal_comp.c **** }
 323              		.loc 1 461 3 view .LVU85
 462:Drivers/STM32F3xx_HAL_Driver/Src/stm32f3xx_hal_comp.c **** 
 324              		.loc 1 462 1 is_stmt 0 view .LVU86
 325 0026 2846     		mov	r0, r5
 326 0028 38BD     		pop	{r3, r4, r5, pc}
 462:Drivers/STM32F3xx_HAL_Driver/Src/stm32f3xx_hal_comp.c **** 
 327              		.loc 1 462 1 view .LVU87
 328              		.cfi_endproc
 329              	.LFE124:
 331 002a 00BF     		.section	.text.HAL_COMP_Start,"ax",%progbits
 332              		.align	1
 333              		.p2align 2,,3
 334              		.global	HAL_COMP_Start
 335              		.syntax unified
 336              		.thumb
 337              		.thumb_func
 339              	HAL_COMP_Start:
 340              	.LVL14:
 341              	.LFB127:
 478:Drivers/STM32F3xx_HAL_Driver/Src/stm32f3xx_hal_comp.c **** 
 479:Drivers/STM32F3xx_HAL_Driver/Src/stm32f3xx_hal_comp.c **** /**
 480:Drivers/STM32F3xx_HAL_Driver/Src/stm32f3xx_hal_comp.c ****   * @brief  DeInitialize the COMP MSP.
 481:Drivers/STM32F3xx_HAL_Driver/Src/stm32f3xx_hal_comp.c ****   * @param  hcomp  COMP handle
 482:Drivers/STM32F3xx_HAL_Driver/Src/stm32f3xx_hal_comp.c ****   * @retval None
 483:Drivers/STM32F3xx_HAL_Driver/Src/stm32f3xx_hal_comp.c ****   */
 484:Drivers/STM32F3xx_HAL_Driver/Src/stm32f3xx_hal_comp.c **** __weak void HAL_COMP_MspDeInit(COMP_HandleTypeDef *hcomp)
 485:Drivers/STM32F3xx_HAL_Driver/Src/stm32f3xx_hal_comp.c **** {
 486:Drivers/STM32F3xx_HAL_Driver/Src/stm32f3xx_hal_comp.c ****   /* Prevent unused argument(s) compilation warning */
 487:Drivers/STM32F3xx_HAL_Driver/Src/stm32f3xx_hal_comp.c ****   UNUSED(hcomp);
 488:Drivers/STM32F3xx_HAL_Driver/Src/stm32f3xx_hal_comp.c **** 
 489:Drivers/STM32F3xx_HAL_Driver/Src/stm32f3xx_hal_comp.c ****   /* NOTE : This function should not be modified, when the callback is needed,
 490:Drivers/STM32F3xx_HAL_Driver/Src/stm32f3xx_hal_comp.c ****             the HAL_COMP_MspDeInit could be implemented in the user file
 491:Drivers/STM32F3xx_HAL_Driver/Src/stm32f3xx_hal_comp.c ****    */
 492:Drivers/STM32F3xx_HAL_Driver/Src/stm32f3xx_hal_comp.c **** }
 493:Drivers/STM32F3xx_HAL_Driver/Src/stm32f3xx_hal_comp.c **** 
 494:Drivers/STM32F3xx_HAL_Driver/Src/stm32f3xx_hal_comp.c **** #if (USE_HAL_COMP_REGISTER_CALLBACKS == 1)
 495:Drivers/STM32F3xx_HAL_Driver/Src/stm32f3xx_hal_comp.c **** /**
ARM GAS  /var/folders/b1/22c950295gx2kqj80tvj8wqc0000gn/T//ccepvbUo.s 			page 17


 496:Drivers/STM32F3xx_HAL_Driver/Src/stm32f3xx_hal_comp.c ****   * @brief  Register a User COMP Callback
 497:Drivers/STM32F3xx_HAL_Driver/Src/stm32f3xx_hal_comp.c ****   *         To be used instead of the weak predefined callback
 498:Drivers/STM32F3xx_HAL_Driver/Src/stm32f3xx_hal_comp.c ****   * @param  hcomp Pointer to a COMP_HandleTypeDef structure that contains
 499:Drivers/STM32F3xx_HAL_Driver/Src/stm32f3xx_hal_comp.c ****   *                the configuration information for the specified COMP.
 500:Drivers/STM32F3xx_HAL_Driver/Src/stm32f3xx_hal_comp.c ****   * @param  CallbackID ID of the callback to be registered
 501:Drivers/STM32F3xx_HAL_Driver/Src/stm32f3xx_hal_comp.c ****   *         This parameter can be one of the following values:
 502:Drivers/STM32F3xx_HAL_Driver/Src/stm32f3xx_hal_comp.c ****   *          @arg @ref HAL_COMP_TRIGGER_CB_ID Trigger callback ID
 503:Drivers/STM32F3xx_HAL_Driver/Src/stm32f3xx_hal_comp.c ****   *          @arg @ref HAL_COMP_MSPINIT_CB_ID MspInit callback ID
 504:Drivers/STM32F3xx_HAL_Driver/Src/stm32f3xx_hal_comp.c ****   *          @arg @ref HAL_COMP_MSPDEINIT_CB_ID MspDeInit callback ID
 505:Drivers/STM32F3xx_HAL_Driver/Src/stm32f3xx_hal_comp.c ****   * @param  pCallback pointer to the Callback function
 506:Drivers/STM32F3xx_HAL_Driver/Src/stm32f3xx_hal_comp.c ****   * @retval HAL status
 507:Drivers/STM32F3xx_HAL_Driver/Src/stm32f3xx_hal_comp.c ****   */
 508:Drivers/STM32F3xx_HAL_Driver/Src/stm32f3xx_hal_comp.c **** HAL_StatusTypeDef HAL_COMP_RegisterCallback(COMP_HandleTypeDef *hcomp, HAL_COMP_CallbackIDTypeDef C
 509:Drivers/STM32F3xx_HAL_Driver/Src/stm32f3xx_hal_comp.c **** {
 510:Drivers/STM32F3xx_HAL_Driver/Src/stm32f3xx_hal_comp.c ****   HAL_StatusTypeDef status = HAL_OK;
 511:Drivers/STM32F3xx_HAL_Driver/Src/stm32f3xx_hal_comp.c ****   
 512:Drivers/STM32F3xx_HAL_Driver/Src/stm32f3xx_hal_comp.c ****   if (pCallback == NULL)
 513:Drivers/STM32F3xx_HAL_Driver/Src/stm32f3xx_hal_comp.c ****   {
 514:Drivers/STM32F3xx_HAL_Driver/Src/stm32f3xx_hal_comp.c ****     /* Update the error code */
 515:Drivers/STM32F3xx_HAL_Driver/Src/stm32f3xx_hal_comp.c ****     hcomp->ErrorCode |= HAL_COMP_ERROR_INVALID_CALLBACK;
 516:Drivers/STM32F3xx_HAL_Driver/Src/stm32f3xx_hal_comp.c **** 
 517:Drivers/STM32F3xx_HAL_Driver/Src/stm32f3xx_hal_comp.c ****     return HAL_ERROR;
 518:Drivers/STM32F3xx_HAL_Driver/Src/stm32f3xx_hal_comp.c ****   }
 519:Drivers/STM32F3xx_HAL_Driver/Src/stm32f3xx_hal_comp.c ****   
 520:Drivers/STM32F3xx_HAL_Driver/Src/stm32f3xx_hal_comp.c ****   if (HAL_COMP_STATE_READY == hcomp->State)
 521:Drivers/STM32F3xx_HAL_Driver/Src/stm32f3xx_hal_comp.c ****   {
 522:Drivers/STM32F3xx_HAL_Driver/Src/stm32f3xx_hal_comp.c ****     switch (CallbackID)
 523:Drivers/STM32F3xx_HAL_Driver/Src/stm32f3xx_hal_comp.c ****     {
 524:Drivers/STM32F3xx_HAL_Driver/Src/stm32f3xx_hal_comp.c ****       case HAL_COMP_TRIGGER_CB_ID :
 525:Drivers/STM32F3xx_HAL_Driver/Src/stm32f3xx_hal_comp.c ****         hcomp->TriggerCallback = pCallback;
 526:Drivers/STM32F3xx_HAL_Driver/Src/stm32f3xx_hal_comp.c ****         break;
 527:Drivers/STM32F3xx_HAL_Driver/Src/stm32f3xx_hal_comp.c ****       
 528:Drivers/STM32F3xx_HAL_Driver/Src/stm32f3xx_hal_comp.c ****       case HAL_COMP_MSPINIT_CB_ID :
 529:Drivers/STM32F3xx_HAL_Driver/Src/stm32f3xx_hal_comp.c ****         hcomp->MspInitCallback = pCallback;
 530:Drivers/STM32F3xx_HAL_Driver/Src/stm32f3xx_hal_comp.c ****         break;
 531:Drivers/STM32F3xx_HAL_Driver/Src/stm32f3xx_hal_comp.c ****       
 532:Drivers/STM32F3xx_HAL_Driver/Src/stm32f3xx_hal_comp.c ****       case HAL_COMP_MSPDEINIT_CB_ID :
 533:Drivers/STM32F3xx_HAL_Driver/Src/stm32f3xx_hal_comp.c ****         hcomp->MspDeInitCallback = pCallback;
 534:Drivers/STM32F3xx_HAL_Driver/Src/stm32f3xx_hal_comp.c ****         break;
 535:Drivers/STM32F3xx_HAL_Driver/Src/stm32f3xx_hal_comp.c ****       
 536:Drivers/STM32F3xx_HAL_Driver/Src/stm32f3xx_hal_comp.c ****       default :
 537:Drivers/STM32F3xx_HAL_Driver/Src/stm32f3xx_hal_comp.c ****         /* Update the error code */
 538:Drivers/STM32F3xx_HAL_Driver/Src/stm32f3xx_hal_comp.c ****         hcomp->ErrorCode |= HAL_COMP_ERROR_INVALID_CALLBACK;
 539:Drivers/STM32F3xx_HAL_Driver/Src/stm32f3xx_hal_comp.c ****         
 540:Drivers/STM32F3xx_HAL_Driver/Src/stm32f3xx_hal_comp.c ****         /* Return error status */
 541:Drivers/STM32F3xx_HAL_Driver/Src/stm32f3xx_hal_comp.c ****         status = HAL_ERROR;
 542:Drivers/STM32F3xx_HAL_Driver/Src/stm32f3xx_hal_comp.c ****         break;
 543:Drivers/STM32F3xx_HAL_Driver/Src/stm32f3xx_hal_comp.c ****     }
 544:Drivers/STM32F3xx_HAL_Driver/Src/stm32f3xx_hal_comp.c ****   }
 545:Drivers/STM32F3xx_HAL_Driver/Src/stm32f3xx_hal_comp.c ****   else if (HAL_COMP_STATE_RESET == hcomp->State)
 546:Drivers/STM32F3xx_HAL_Driver/Src/stm32f3xx_hal_comp.c ****   {
 547:Drivers/STM32F3xx_HAL_Driver/Src/stm32f3xx_hal_comp.c ****     switch (CallbackID)
 548:Drivers/STM32F3xx_HAL_Driver/Src/stm32f3xx_hal_comp.c ****     {
 549:Drivers/STM32F3xx_HAL_Driver/Src/stm32f3xx_hal_comp.c ****       case HAL_COMP_MSPINIT_CB_ID :
 550:Drivers/STM32F3xx_HAL_Driver/Src/stm32f3xx_hal_comp.c ****         hcomp->MspInitCallback = pCallback;
 551:Drivers/STM32F3xx_HAL_Driver/Src/stm32f3xx_hal_comp.c ****         break;
 552:Drivers/STM32F3xx_HAL_Driver/Src/stm32f3xx_hal_comp.c ****       
ARM GAS  /var/folders/b1/22c950295gx2kqj80tvj8wqc0000gn/T//ccepvbUo.s 			page 18


 553:Drivers/STM32F3xx_HAL_Driver/Src/stm32f3xx_hal_comp.c ****       case HAL_COMP_MSPDEINIT_CB_ID :
 554:Drivers/STM32F3xx_HAL_Driver/Src/stm32f3xx_hal_comp.c ****         hcomp->MspDeInitCallback = pCallback;
 555:Drivers/STM32F3xx_HAL_Driver/Src/stm32f3xx_hal_comp.c ****         break;
 556:Drivers/STM32F3xx_HAL_Driver/Src/stm32f3xx_hal_comp.c ****       
 557:Drivers/STM32F3xx_HAL_Driver/Src/stm32f3xx_hal_comp.c ****       default :
 558:Drivers/STM32F3xx_HAL_Driver/Src/stm32f3xx_hal_comp.c ****         /* Update the error code */
 559:Drivers/STM32F3xx_HAL_Driver/Src/stm32f3xx_hal_comp.c ****         hcomp->ErrorCode |= HAL_COMP_ERROR_INVALID_CALLBACK;
 560:Drivers/STM32F3xx_HAL_Driver/Src/stm32f3xx_hal_comp.c ****         
 561:Drivers/STM32F3xx_HAL_Driver/Src/stm32f3xx_hal_comp.c ****         /* Return error status */
 562:Drivers/STM32F3xx_HAL_Driver/Src/stm32f3xx_hal_comp.c ****         status = HAL_ERROR;
 563:Drivers/STM32F3xx_HAL_Driver/Src/stm32f3xx_hal_comp.c ****         break;
 564:Drivers/STM32F3xx_HAL_Driver/Src/stm32f3xx_hal_comp.c ****     }
 565:Drivers/STM32F3xx_HAL_Driver/Src/stm32f3xx_hal_comp.c ****   }
 566:Drivers/STM32F3xx_HAL_Driver/Src/stm32f3xx_hal_comp.c ****   else
 567:Drivers/STM32F3xx_HAL_Driver/Src/stm32f3xx_hal_comp.c ****   {
 568:Drivers/STM32F3xx_HAL_Driver/Src/stm32f3xx_hal_comp.c ****     /* Update the error code */
 569:Drivers/STM32F3xx_HAL_Driver/Src/stm32f3xx_hal_comp.c ****     hcomp->ErrorCode |= HAL_COMP_ERROR_INVALID_CALLBACK;
 570:Drivers/STM32F3xx_HAL_Driver/Src/stm32f3xx_hal_comp.c ****     
 571:Drivers/STM32F3xx_HAL_Driver/Src/stm32f3xx_hal_comp.c ****     /* Return error status */
 572:Drivers/STM32F3xx_HAL_Driver/Src/stm32f3xx_hal_comp.c ****     status =  HAL_ERROR;
 573:Drivers/STM32F3xx_HAL_Driver/Src/stm32f3xx_hal_comp.c ****   }
 574:Drivers/STM32F3xx_HAL_Driver/Src/stm32f3xx_hal_comp.c ****   
 575:Drivers/STM32F3xx_HAL_Driver/Src/stm32f3xx_hal_comp.c ****   return status;
 576:Drivers/STM32F3xx_HAL_Driver/Src/stm32f3xx_hal_comp.c **** }
 577:Drivers/STM32F3xx_HAL_Driver/Src/stm32f3xx_hal_comp.c **** 
 578:Drivers/STM32F3xx_HAL_Driver/Src/stm32f3xx_hal_comp.c **** /**
 579:Drivers/STM32F3xx_HAL_Driver/Src/stm32f3xx_hal_comp.c ****   * @brief  Unregister a COMP Callback
 580:Drivers/STM32F3xx_HAL_Driver/Src/stm32f3xx_hal_comp.c ****   *         COMP callback is redirected to the weak predefined callback
 581:Drivers/STM32F3xx_HAL_Driver/Src/stm32f3xx_hal_comp.c ****   * @param  hcomp Pointer to a COMP_HandleTypeDef structure that contains
 582:Drivers/STM32F3xx_HAL_Driver/Src/stm32f3xx_hal_comp.c ****   *                the configuration information for the specified COMP.
 583:Drivers/STM32F3xx_HAL_Driver/Src/stm32f3xx_hal_comp.c ****   * @param  CallbackID ID of the callback to be unregistered
 584:Drivers/STM32F3xx_HAL_Driver/Src/stm32f3xx_hal_comp.c ****   *         This parameter can be one of the following values:
 585:Drivers/STM32F3xx_HAL_Driver/Src/stm32f3xx_hal_comp.c ****   *          @arg @ref HAL_COMP_TRIGGER_CB_ID Trigger callback ID
 586:Drivers/STM32F3xx_HAL_Driver/Src/stm32f3xx_hal_comp.c ****   *          @arg @ref HAL_COMP_MSPINIT_CB_ID MspInit callback ID
 587:Drivers/STM32F3xx_HAL_Driver/Src/stm32f3xx_hal_comp.c ****   *          @arg @ref HAL_COMP_MSPDEINIT_CB_ID MspDeInit callback ID
 588:Drivers/STM32F3xx_HAL_Driver/Src/stm32f3xx_hal_comp.c ****   * @retval HAL status
 589:Drivers/STM32F3xx_HAL_Driver/Src/stm32f3xx_hal_comp.c ****   */
 590:Drivers/STM32F3xx_HAL_Driver/Src/stm32f3xx_hal_comp.c **** HAL_StatusTypeDef HAL_COMP_UnRegisterCallback(COMP_HandleTypeDef *hcomp, HAL_COMP_CallbackIDTypeDef
 591:Drivers/STM32F3xx_HAL_Driver/Src/stm32f3xx_hal_comp.c **** {
 592:Drivers/STM32F3xx_HAL_Driver/Src/stm32f3xx_hal_comp.c ****   HAL_StatusTypeDef status = HAL_OK;
 593:Drivers/STM32F3xx_HAL_Driver/Src/stm32f3xx_hal_comp.c **** 
 594:Drivers/STM32F3xx_HAL_Driver/Src/stm32f3xx_hal_comp.c ****   if (HAL_COMP_STATE_READY == hcomp->State)
 595:Drivers/STM32F3xx_HAL_Driver/Src/stm32f3xx_hal_comp.c ****   {
 596:Drivers/STM32F3xx_HAL_Driver/Src/stm32f3xx_hal_comp.c ****     switch (CallbackID)
 597:Drivers/STM32F3xx_HAL_Driver/Src/stm32f3xx_hal_comp.c ****     {
 598:Drivers/STM32F3xx_HAL_Driver/Src/stm32f3xx_hal_comp.c ****       case HAL_COMP_TRIGGER_CB_ID :
 599:Drivers/STM32F3xx_HAL_Driver/Src/stm32f3xx_hal_comp.c ****         hcomp->TriggerCallback = HAL_COMP_TriggerCallback;         /* Legacy weak callback */
 600:Drivers/STM32F3xx_HAL_Driver/Src/stm32f3xx_hal_comp.c ****         break;
 601:Drivers/STM32F3xx_HAL_Driver/Src/stm32f3xx_hal_comp.c ****       
 602:Drivers/STM32F3xx_HAL_Driver/Src/stm32f3xx_hal_comp.c ****       case HAL_COMP_MSPINIT_CB_ID :
 603:Drivers/STM32F3xx_HAL_Driver/Src/stm32f3xx_hal_comp.c ****         hcomp->MspInitCallback = HAL_COMP_MspInit;                 /* Legacy weak MspInit */
 604:Drivers/STM32F3xx_HAL_Driver/Src/stm32f3xx_hal_comp.c ****         break;
 605:Drivers/STM32F3xx_HAL_Driver/Src/stm32f3xx_hal_comp.c **** 
 606:Drivers/STM32F3xx_HAL_Driver/Src/stm32f3xx_hal_comp.c ****       case HAL_COMP_MSPDEINIT_CB_ID :
 607:Drivers/STM32F3xx_HAL_Driver/Src/stm32f3xx_hal_comp.c ****         hcomp->MspDeInitCallback = HAL_COMP_MspDeInit;             /* Legacy weak MspDeInit */
 608:Drivers/STM32F3xx_HAL_Driver/Src/stm32f3xx_hal_comp.c ****         break;
 609:Drivers/STM32F3xx_HAL_Driver/Src/stm32f3xx_hal_comp.c **** 
ARM GAS  /var/folders/b1/22c950295gx2kqj80tvj8wqc0000gn/T//ccepvbUo.s 			page 19


 610:Drivers/STM32F3xx_HAL_Driver/Src/stm32f3xx_hal_comp.c ****       default :
 611:Drivers/STM32F3xx_HAL_Driver/Src/stm32f3xx_hal_comp.c ****         /* Update the error code */
 612:Drivers/STM32F3xx_HAL_Driver/Src/stm32f3xx_hal_comp.c ****         hcomp->ErrorCode |= HAL_COMP_ERROR_INVALID_CALLBACK;
 613:Drivers/STM32F3xx_HAL_Driver/Src/stm32f3xx_hal_comp.c **** 
 614:Drivers/STM32F3xx_HAL_Driver/Src/stm32f3xx_hal_comp.c ****         /* Return error status */
 615:Drivers/STM32F3xx_HAL_Driver/Src/stm32f3xx_hal_comp.c ****         status =  HAL_ERROR;
 616:Drivers/STM32F3xx_HAL_Driver/Src/stm32f3xx_hal_comp.c ****         break;
 617:Drivers/STM32F3xx_HAL_Driver/Src/stm32f3xx_hal_comp.c ****     }
 618:Drivers/STM32F3xx_HAL_Driver/Src/stm32f3xx_hal_comp.c ****   }
 619:Drivers/STM32F3xx_HAL_Driver/Src/stm32f3xx_hal_comp.c ****   else if (HAL_COMP_STATE_RESET == hcomp->State)
 620:Drivers/STM32F3xx_HAL_Driver/Src/stm32f3xx_hal_comp.c ****   {
 621:Drivers/STM32F3xx_HAL_Driver/Src/stm32f3xx_hal_comp.c ****     switch (CallbackID)
 622:Drivers/STM32F3xx_HAL_Driver/Src/stm32f3xx_hal_comp.c ****     {
 623:Drivers/STM32F3xx_HAL_Driver/Src/stm32f3xx_hal_comp.c ****       case HAL_COMP_MSPINIT_CB_ID :
 624:Drivers/STM32F3xx_HAL_Driver/Src/stm32f3xx_hal_comp.c ****         hcomp->MspInitCallback = HAL_COMP_MspInit;                 /* Legacy weak MspInit */
 625:Drivers/STM32F3xx_HAL_Driver/Src/stm32f3xx_hal_comp.c ****         break;
 626:Drivers/STM32F3xx_HAL_Driver/Src/stm32f3xx_hal_comp.c **** 
 627:Drivers/STM32F3xx_HAL_Driver/Src/stm32f3xx_hal_comp.c ****       case HAL_COMP_MSPDEINIT_CB_ID :
 628:Drivers/STM32F3xx_HAL_Driver/Src/stm32f3xx_hal_comp.c ****         hcomp->MspDeInitCallback = HAL_COMP_MspDeInit;             /* Legacy weak MspDeInit */
 629:Drivers/STM32F3xx_HAL_Driver/Src/stm32f3xx_hal_comp.c ****         break;
 630:Drivers/STM32F3xx_HAL_Driver/Src/stm32f3xx_hal_comp.c **** 
 631:Drivers/STM32F3xx_HAL_Driver/Src/stm32f3xx_hal_comp.c ****       default :
 632:Drivers/STM32F3xx_HAL_Driver/Src/stm32f3xx_hal_comp.c ****         /* Update the error code */
 633:Drivers/STM32F3xx_HAL_Driver/Src/stm32f3xx_hal_comp.c ****         hcomp->ErrorCode |= HAL_COMP_ERROR_INVALID_CALLBACK;
 634:Drivers/STM32F3xx_HAL_Driver/Src/stm32f3xx_hal_comp.c **** 
 635:Drivers/STM32F3xx_HAL_Driver/Src/stm32f3xx_hal_comp.c ****         /* Return error status */
 636:Drivers/STM32F3xx_HAL_Driver/Src/stm32f3xx_hal_comp.c ****         status =  HAL_ERROR;
 637:Drivers/STM32F3xx_HAL_Driver/Src/stm32f3xx_hal_comp.c ****         break;
 638:Drivers/STM32F3xx_HAL_Driver/Src/stm32f3xx_hal_comp.c ****     }
 639:Drivers/STM32F3xx_HAL_Driver/Src/stm32f3xx_hal_comp.c ****   }
 640:Drivers/STM32F3xx_HAL_Driver/Src/stm32f3xx_hal_comp.c ****   else
 641:Drivers/STM32F3xx_HAL_Driver/Src/stm32f3xx_hal_comp.c ****   {
 642:Drivers/STM32F3xx_HAL_Driver/Src/stm32f3xx_hal_comp.c ****     /* Update the error code */
 643:Drivers/STM32F3xx_HAL_Driver/Src/stm32f3xx_hal_comp.c ****     hcomp->ErrorCode |= HAL_COMP_ERROR_INVALID_CALLBACK;
 644:Drivers/STM32F3xx_HAL_Driver/Src/stm32f3xx_hal_comp.c **** 
 645:Drivers/STM32F3xx_HAL_Driver/Src/stm32f3xx_hal_comp.c ****     /* Return error status */
 646:Drivers/STM32F3xx_HAL_Driver/Src/stm32f3xx_hal_comp.c ****     status =  HAL_ERROR;
 647:Drivers/STM32F3xx_HAL_Driver/Src/stm32f3xx_hal_comp.c ****   }
 648:Drivers/STM32F3xx_HAL_Driver/Src/stm32f3xx_hal_comp.c **** 
 649:Drivers/STM32F3xx_HAL_Driver/Src/stm32f3xx_hal_comp.c ****   return status;
 650:Drivers/STM32F3xx_HAL_Driver/Src/stm32f3xx_hal_comp.c **** }
 651:Drivers/STM32F3xx_HAL_Driver/Src/stm32f3xx_hal_comp.c **** 
 652:Drivers/STM32F3xx_HAL_Driver/Src/stm32f3xx_hal_comp.c **** #endif /* USE_HAL_COMP_REGISTER_CALLBACKS */
 653:Drivers/STM32F3xx_HAL_Driver/Src/stm32f3xx_hal_comp.c **** 
 654:Drivers/STM32F3xx_HAL_Driver/Src/stm32f3xx_hal_comp.c **** /**
 655:Drivers/STM32F3xx_HAL_Driver/Src/stm32f3xx_hal_comp.c ****   * @}
 656:Drivers/STM32F3xx_HAL_Driver/Src/stm32f3xx_hal_comp.c ****   */
 657:Drivers/STM32F3xx_HAL_Driver/Src/stm32f3xx_hal_comp.c **** 
 658:Drivers/STM32F3xx_HAL_Driver/Src/stm32f3xx_hal_comp.c **** /** @defgroup COMP_Exported_Functions_Group2 Start Stop operation functions
 659:Drivers/STM32F3xx_HAL_Driver/Src/stm32f3xx_hal_comp.c ****  *  @brief   Start-Stop operation functions.
 660:Drivers/STM32F3xx_HAL_Driver/Src/stm32f3xx_hal_comp.c ****  *
 661:Drivers/STM32F3xx_HAL_Driver/Src/stm32f3xx_hal_comp.c **** @verbatim
 662:Drivers/STM32F3xx_HAL_Driver/Src/stm32f3xx_hal_comp.c ****  ===============================================================================
 663:Drivers/STM32F3xx_HAL_Driver/Src/stm32f3xx_hal_comp.c ****                       ##### Start Stop operation functions #####
 664:Drivers/STM32F3xx_HAL_Driver/Src/stm32f3xx_hal_comp.c ****  ===============================================================================
 665:Drivers/STM32F3xx_HAL_Driver/Src/stm32f3xx_hal_comp.c ****     [..]  This section provides functions allowing to:
 666:Drivers/STM32F3xx_HAL_Driver/Src/stm32f3xx_hal_comp.c ****       (+) Start a comparator without interrupt generation.
ARM GAS  /var/folders/b1/22c950295gx2kqj80tvj8wqc0000gn/T//ccepvbUo.s 			page 20


 667:Drivers/STM32F3xx_HAL_Driver/Src/stm32f3xx_hal_comp.c ****       (+) Stop a comparator without interrupt generation.
 668:Drivers/STM32F3xx_HAL_Driver/Src/stm32f3xx_hal_comp.c ****       (+) Start a comparator with interrupt generation.
 669:Drivers/STM32F3xx_HAL_Driver/Src/stm32f3xx_hal_comp.c ****       (+) Stop a comparator with interrupt generation.
 670:Drivers/STM32F3xx_HAL_Driver/Src/stm32f3xx_hal_comp.c ****       (+) Handle interrupts from a comparator with associated callback function.
 671:Drivers/STM32F3xx_HAL_Driver/Src/stm32f3xx_hal_comp.c **** 
 672:Drivers/STM32F3xx_HAL_Driver/Src/stm32f3xx_hal_comp.c **** @endverbatim
 673:Drivers/STM32F3xx_HAL_Driver/Src/stm32f3xx_hal_comp.c ****   * @{
 674:Drivers/STM32F3xx_HAL_Driver/Src/stm32f3xx_hal_comp.c ****   */
 675:Drivers/STM32F3xx_HAL_Driver/Src/stm32f3xx_hal_comp.c **** 
 676:Drivers/STM32F3xx_HAL_Driver/Src/stm32f3xx_hal_comp.c **** /**
 677:Drivers/STM32F3xx_HAL_Driver/Src/stm32f3xx_hal_comp.c ****   * @brief  Start the comparator.
 678:Drivers/STM32F3xx_HAL_Driver/Src/stm32f3xx_hal_comp.c ****   * @param  hcomp  COMP handle
 679:Drivers/STM32F3xx_HAL_Driver/Src/stm32f3xx_hal_comp.c ****   * @retval HAL status
 680:Drivers/STM32F3xx_HAL_Driver/Src/stm32f3xx_hal_comp.c ****   */
 681:Drivers/STM32F3xx_HAL_Driver/Src/stm32f3xx_hal_comp.c **** HAL_StatusTypeDef HAL_COMP_Start(COMP_HandleTypeDef *hcomp)
 682:Drivers/STM32F3xx_HAL_Driver/Src/stm32f3xx_hal_comp.c **** {
 342              		.loc 1 682 1 is_stmt 1 view -0
 343              		.cfi_startproc
 344              		@ args = 0, pretend = 0, frame = 0
 345              		@ frame_needed = 0, uses_anonymous_args = 0
 346              		@ link register save eliminated.
 683:Drivers/STM32F3xx_HAL_Driver/Src/stm32f3xx_hal_comp.c ****   HAL_StatusTypeDef status = HAL_OK;
 347              		.loc 1 683 3 view .LVU89
 684:Drivers/STM32F3xx_HAL_Driver/Src/stm32f3xx_hal_comp.c ****   uint32_t extiline = 0U;
 348              		.loc 1 684 3 view .LVU90
 685:Drivers/STM32F3xx_HAL_Driver/Src/stm32f3xx_hal_comp.c **** 
 686:Drivers/STM32F3xx_HAL_Driver/Src/stm32f3xx_hal_comp.c ****   /* Check the COMP handle allocation and lock status */
 687:Drivers/STM32F3xx_HAL_Driver/Src/stm32f3xx_hal_comp.c ****   if ((hcomp == NULL) || ((hcomp->State & COMP_STATE_BIT_LOCK) != RESET))
 349              		.loc 1 687 3 view .LVU91
 350              		.loc 1 687 6 is_stmt 0 view .LVU92
 351 0000 28B1     		cbz	r0, .L39
 352 0002 0346     		mov	r3, r0
 353              		.loc 1 687 33 discriminator 1 view .LVU93
 354 0004 90F82900 		ldrb	r0, [r0, #41]	@ zero_extendqisi2
 355              	.LVL15:
 356              		.loc 1 687 23 discriminator 1 view .LVU94
 357 0008 10F01000 		ands	r0, r0, #16
 358 000c 01D0     		beq	.L52
 359              	.LVL16:
 360              	.L39:
 688:Drivers/STM32F3xx_HAL_Driver/Src/stm32f3xx_hal_comp.c ****   {
 689:Drivers/STM32F3xx_HAL_Driver/Src/stm32f3xx_hal_comp.c ****     status = HAL_ERROR;
 361              		.loc 1 689 12 view .LVU95
 362 000e 0120     		movs	r0, #1
 363              	.LVL17:
 690:Drivers/STM32F3xx_HAL_Driver/Src/stm32f3xx_hal_comp.c ****   }
 691:Drivers/STM32F3xx_HAL_Driver/Src/stm32f3xx_hal_comp.c ****   else
 692:Drivers/STM32F3xx_HAL_Driver/Src/stm32f3xx_hal_comp.c ****   {
 693:Drivers/STM32F3xx_HAL_Driver/Src/stm32f3xx_hal_comp.c ****     /* Check the parameter */
 694:Drivers/STM32F3xx_HAL_Driver/Src/stm32f3xx_hal_comp.c ****     assert_param(IS_COMP_ALL_INSTANCE(hcomp->Instance));
 695:Drivers/STM32F3xx_HAL_Driver/Src/stm32f3xx_hal_comp.c **** 
 696:Drivers/STM32F3xx_HAL_Driver/Src/stm32f3xx_hal_comp.c ****     if (hcomp->State == HAL_COMP_STATE_READY)
 697:Drivers/STM32F3xx_HAL_Driver/Src/stm32f3xx_hal_comp.c ****     {
 698:Drivers/STM32F3xx_HAL_Driver/Src/stm32f3xx_hal_comp.c ****       /* Get the EXTI Line output configuration */
 699:Drivers/STM32F3xx_HAL_Driver/Src/stm32f3xx_hal_comp.c ****       extiline = COMP_GET_EXTI_LINE(hcomp->Instance);
 700:Drivers/STM32F3xx_HAL_Driver/Src/stm32f3xx_hal_comp.c **** 
 701:Drivers/STM32F3xx_HAL_Driver/Src/stm32f3xx_hal_comp.c ****       /* Configure the event generation */
ARM GAS  /var/folders/b1/22c950295gx2kqj80tvj8wqc0000gn/T//ccepvbUo.s 			page 21


 702:Drivers/STM32F3xx_HAL_Driver/Src/stm32f3xx_hal_comp.c ****       if ((hcomp->Init.TriggerMode & (COMP_TRIGGERMODE_EVENT_RISING | COMP_TRIGGERMODE_EVENT_FALLIN
 703:Drivers/STM32F3xx_HAL_Driver/Src/stm32f3xx_hal_comp.c ****       {
 704:Drivers/STM32F3xx_HAL_Driver/Src/stm32f3xx_hal_comp.c ****         /* Configure the event trigger rising edge */
 705:Drivers/STM32F3xx_HAL_Driver/Src/stm32f3xx_hal_comp.c ****         if ((hcomp->Init.TriggerMode & COMP_TRIGGERMODE_EVENT_RISING) != RESET)
 706:Drivers/STM32F3xx_HAL_Driver/Src/stm32f3xx_hal_comp.c ****         {
 707:Drivers/STM32F3xx_HAL_Driver/Src/stm32f3xx_hal_comp.c ****           COMP_EXTI_RISING_ENABLE(extiline);
 708:Drivers/STM32F3xx_HAL_Driver/Src/stm32f3xx_hal_comp.c ****         }
 709:Drivers/STM32F3xx_HAL_Driver/Src/stm32f3xx_hal_comp.c ****         else
 710:Drivers/STM32F3xx_HAL_Driver/Src/stm32f3xx_hal_comp.c ****         {
 711:Drivers/STM32F3xx_HAL_Driver/Src/stm32f3xx_hal_comp.c ****           COMP_EXTI_RISING_DISABLE(extiline);
 712:Drivers/STM32F3xx_HAL_Driver/Src/stm32f3xx_hal_comp.c ****         }
 713:Drivers/STM32F3xx_HAL_Driver/Src/stm32f3xx_hal_comp.c **** 
 714:Drivers/STM32F3xx_HAL_Driver/Src/stm32f3xx_hal_comp.c ****         /* Configure the trigger falling edge */
 715:Drivers/STM32F3xx_HAL_Driver/Src/stm32f3xx_hal_comp.c ****         if ((hcomp->Init.TriggerMode & COMP_TRIGGERMODE_EVENT_FALLING) != RESET)
 716:Drivers/STM32F3xx_HAL_Driver/Src/stm32f3xx_hal_comp.c ****         {
 717:Drivers/STM32F3xx_HAL_Driver/Src/stm32f3xx_hal_comp.c ****           COMP_EXTI_FALLING_ENABLE(extiline);
 718:Drivers/STM32F3xx_HAL_Driver/Src/stm32f3xx_hal_comp.c ****         }
 719:Drivers/STM32F3xx_HAL_Driver/Src/stm32f3xx_hal_comp.c ****         else
 720:Drivers/STM32F3xx_HAL_Driver/Src/stm32f3xx_hal_comp.c ****         {
 721:Drivers/STM32F3xx_HAL_Driver/Src/stm32f3xx_hal_comp.c ****           COMP_EXTI_FALLING_DISABLE(extiline);
 722:Drivers/STM32F3xx_HAL_Driver/Src/stm32f3xx_hal_comp.c ****         }
 723:Drivers/STM32F3xx_HAL_Driver/Src/stm32f3xx_hal_comp.c **** 
 724:Drivers/STM32F3xx_HAL_Driver/Src/stm32f3xx_hal_comp.c ****         /* Enable EXTI event generation */
 725:Drivers/STM32F3xx_HAL_Driver/Src/stm32f3xx_hal_comp.c ****         COMP_EXTI_ENABLE_EVENT(extiline);
 726:Drivers/STM32F3xx_HAL_Driver/Src/stm32f3xx_hal_comp.c **** 
 727:Drivers/STM32F3xx_HAL_Driver/Src/stm32f3xx_hal_comp.c ****         /* Clear COMP EXTI pending bit */
 728:Drivers/STM32F3xx_HAL_Driver/Src/stm32f3xx_hal_comp.c ****         COMP_EXTI_CLEAR_FLAG(extiline);
 729:Drivers/STM32F3xx_HAL_Driver/Src/stm32f3xx_hal_comp.c ****       }
 730:Drivers/STM32F3xx_HAL_Driver/Src/stm32f3xx_hal_comp.c **** 
 731:Drivers/STM32F3xx_HAL_Driver/Src/stm32f3xx_hal_comp.c ****       /* Enable the selected comparator */
 732:Drivers/STM32F3xx_HAL_Driver/Src/stm32f3xx_hal_comp.c ****       __HAL_COMP_ENABLE(hcomp);
 733:Drivers/STM32F3xx_HAL_Driver/Src/stm32f3xx_hal_comp.c **** 
 734:Drivers/STM32F3xx_HAL_Driver/Src/stm32f3xx_hal_comp.c ****       hcomp->State = HAL_COMP_STATE_BUSY;
 735:Drivers/STM32F3xx_HAL_Driver/Src/stm32f3xx_hal_comp.c ****     }
 736:Drivers/STM32F3xx_HAL_Driver/Src/stm32f3xx_hal_comp.c ****     else
 737:Drivers/STM32F3xx_HAL_Driver/Src/stm32f3xx_hal_comp.c ****     {
 738:Drivers/STM32F3xx_HAL_Driver/Src/stm32f3xx_hal_comp.c ****       status = HAL_ERROR;
 739:Drivers/STM32F3xx_HAL_Driver/Src/stm32f3xx_hal_comp.c ****     }
 740:Drivers/STM32F3xx_HAL_Driver/Src/stm32f3xx_hal_comp.c ****   }
 741:Drivers/STM32F3xx_HAL_Driver/Src/stm32f3xx_hal_comp.c **** 
 742:Drivers/STM32F3xx_HAL_Driver/Src/stm32f3xx_hal_comp.c ****   return status;
 364              		.loc 1 742 3 is_stmt 1 view .LVU96
 743:Drivers/STM32F3xx_HAL_Driver/Src/stm32f3xx_hal_comp.c **** }
 365              		.loc 1 743 1 is_stmt 0 view .LVU97
 366 0010 7047     		bx	lr
 367              	.LVL18:
 368              	.L52:
 694:Drivers/STM32F3xx_HAL_Driver/Src/stm32f3xx_hal_comp.c **** 
 369              		.loc 1 694 5 is_stmt 1 view .LVU98
 696:Drivers/STM32F3xx_HAL_Driver/Src/stm32f3xx_hal_comp.c ****     {
 370              		.loc 1 696 5 view .LVU99
 696:Drivers/STM32F3xx_HAL_Driver/Src/stm32f3xx_hal_comp.c ****     {
 371              		.loc 1 696 14 is_stmt 0 view .LVU100
 372 0012 93F82920 		ldrb	r2, [r3, #41]	@ zero_extendqisi2
 696:Drivers/STM32F3xx_HAL_Driver/Src/stm32f3xx_hal_comp.c ****     {
 373              		.loc 1 696 8 view .LVU101
 374 0016 012A     		cmp	r2, #1
ARM GAS  /var/folders/b1/22c950295gx2kqj80tvj8wqc0000gn/T//ccepvbUo.s 			page 22


 375 0018 F9D1     		bne	.L39
 699:Drivers/STM32F3xx_HAL_Driver/Src/stm32f3xx_hal_comp.c **** 
 376              		.loc 1 699 7 is_stmt 1 view .LVU102
 682:Drivers/STM32F3xx_HAL_Driver/Src/stm32f3xx_hal_comp.c ****   HAL_StatusTypeDef status = HAL_OK;
 377              		.loc 1 682 1 is_stmt 0 view .LVU103
 378 001a 70B4     		push	{r4, r5, r6}
 379              	.LCFI7:
 380              		.cfi_def_cfa_offset 12
 381              		.cfi_offset 4, -12
 382              		.cfi_offset 5, -8
 383              		.cfi_offset 6, -4
 699:Drivers/STM32F3xx_HAL_Driver/Src/stm32f3xx_hal_comp.c **** 
 384              		.loc 1 699 18 view .LVU104
 385 001c 294A     		ldr	r2, .L56
 386 001e 1C68     		ldr	r4, [r3]
 387 0020 9442     		cmp	r4, r2
 388 0022 2CD0     		beq	.L40
 699:Drivers/STM32F3xx_HAL_Driver/Src/stm32f3xx_hal_comp.c **** 
 389              		.loc 1 699 18 discriminator 1 view .LVU105
 390 0024 0832     		adds	r2, r2, #8
 391 0026 9442     		cmp	r4, r2
 392 0028 0CBF     		ite	eq
 393 002a 4FF08042 		moveq	r2, #1073741824
 394 002e 0122     		movne	r2, #1
 395              	.L24:
 396              	.LVL19:
 702:Drivers/STM32F3xx_HAL_Driver/Src/stm32f3xx_hal_comp.c ****       {
 397              		.loc 1 702 7 is_stmt 1 discriminator 8 view .LVU106
 702:Drivers/STM32F3xx_HAL_Driver/Src/stm32f3xx_hal_comp.c ****       {
 398              		.loc 1 702 23 is_stmt 0 discriminator 8 view .LVU107
 399 0030 596A     		ldr	r1, [r3, #36]
 702:Drivers/STM32F3xx_HAL_Driver/Src/stm32f3xx_hal_comp.c ****       {
 400              		.loc 1 702 10 discriminator 8 view .LVU108
 401 0032 11F0300F 		tst	r1, #48
 402 0036 13D0     		beq	.L25
 705:Drivers/STM32F3xx_HAL_Driver/Src/stm32f3xx_hal_comp.c ****         {
 403              		.loc 1 705 9 is_stmt 1 view .LVU109
 705:Drivers/STM32F3xx_HAL_Driver/Src/stm32f3xx_hal_comp.c ****         {
 404              		.loc 1 705 12 is_stmt 0 view .LVU110
 405 0038 CD06     		lsls	r5, r1, #27
 707:Drivers/STM32F3xx_HAL_Driver/Src/stm32f3xx_hal_comp.c ****         }
 406              		.loc 1 707 11 view .LVU111
 407 003a 234E     		ldr	r6, .L56+4
 705:Drivers/STM32F3xx_HAL_Driver/Src/stm32f3xx_hal_comp.c ****         {
 408              		.loc 1 705 12 view .LVU112
 409 003c 19D4     		bmi	.L53
 711:Drivers/STM32F3xx_HAL_Driver/Src/stm32f3xx_hal_comp.c ****         }
 410              		.loc 1 711 11 is_stmt 1 view .LVU113
 411 003e D507     		lsls	r5, r2, #31
 412 0040 35D5     		bpl	.L30
 711:Drivers/STM32F3xx_HAL_Driver/Src/stm32f3xx_hal_comp.c ****         }
 413              		.loc 1 711 11 is_stmt 0 discriminator 1 view .LVU114
 414 0042 B56A     		ldr	r5, [r6, #40]
 415 0044 25EA0205 		bic	r5, r5, r2
 416 0048 B562     		str	r5, [r6, #40]
 417              	.L28:
 715:Drivers/STM32F3xx_HAL_Driver/Src/stm32f3xx_hal_comp.c ****         {
ARM GAS  /var/folders/b1/22c950295gx2kqj80tvj8wqc0000gn/T//ccepvbUo.s 			page 23


 418              		.loc 1 715 9 is_stmt 1 view .LVU115
 715:Drivers/STM32F3xx_HAL_Driver/Src/stm32f3xx_hal_comp.c ****         {
 419              		.loc 1 715 12 is_stmt 0 view .LVU116
 420 004a 8D06     		lsls	r5, r1, #26
 421 004c 29D5     		bpl	.L54
 717:Drivers/STM32F3xx_HAL_Driver/Src/stm32f3xx_hal_comp.c ****         }
 422              		.loc 1 717 11 is_stmt 1 view .LVU117
 423 004e 1E4D     		ldr	r5, .L56+4
 424 0050 E96A     		ldr	r1, [r5, #44]
 425 0052 1143     		orrs	r1, r1, r2
 426 0054 E962     		str	r1, [r5, #44]
 427              	.L31:
 725:Drivers/STM32F3xx_HAL_Driver/Src/stm32f3xx_hal_comp.c **** 
 428              		.loc 1 725 9 view .LVU118
 429 0056 1C49     		ldr	r1, .L56+4
 430 0058 4D6A     		ldr	r5, [r1, #36]
 431 005a 1543     		orrs	r5, r5, r2
 432 005c 4D62     		str	r5, [r1, #36]
 728:Drivers/STM32F3xx_HAL_Driver/Src/stm32f3xx_hal_comp.c ****       }
 433              		.loc 1 728 9 view .LVU119
 434 005e 4A63     		str	r2, [r1, #52]
 435              	.L25:
 732:Drivers/STM32F3xx_HAL_Driver/Src/stm32f3xx_hal_comp.c **** 
 436              		.loc 1 732 7 view .LVU120
 437 0060 2268     		ldr	r2, [r4]
 438              	.LVL20:
 734:Drivers/STM32F3xx_HAL_Driver/Src/stm32f3xx_hal_comp.c ****     }
 439              		.loc 1 734 20 is_stmt 0 view .LVU121
 440 0062 0221     		movs	r1, #2
 732:Drivers/STM32F3xx_HAL_Driver/Src/stm32f3xx_hal_comp.c **** 
 441              		.loc 1 732 7 view .LVU122
 442 0064 42F00102 		orr	r2, r2, #1
 443 0068 2260     		str	r2, [r4]
 734:Drivers/STM32F3xx_HAL_Driver/Src/stm32f3xx_hal_comp.c ****     }
 444              		.loc 1 734 7 is_stmt 1 view .LVU123
 734:Drivers/STM32F3xx_HAL_Driver/Src/stm32f3xx_hal_comp.c ****     }
 445              		.loc 1 734 20 is_stmt 0 view .LVU124
 446 006a 83F82910 		strb	r1, [r3, #41]
 447              		.loc 1 743 1 view .LVU125
 448 006e 70BC     		pop	{r4, r5, r6}
 449              	.LCFI8:
 450              		.cfi_remember_state
 451              		.cfi_restore 6
 452              		.cfi_restore 5
 453              		.cfi_restore 4
 454              		.cfi_def_cfa_offset 0
 455 0070 7047     		bx	lr
 456              	.LVL21:
 457              	.L53:
 458              	.LCFI9:
 459              		.cfi_restore_state
 707:Drivers/STM32F3xx_HAL_Driver/Src/stm32f3xx_hal_comp.c ****         }
 460              		.loc 1 707 11 is_stmt 1 view .LVU126
 461 0072 D507     		lsls	r5, r2, #31
 462 0074 06D5     		bpl	.L27
 707:Drivers/STM32F3xx_HAL_Driver/Src/stm32f3xx_hal_comp.c ****         }
 463              		.loc 1 707 11 is_stmt 0 discriminator 1 view .LVU127
ARM GAS  /var/folders/b1/22c950295gx2kqj80tvj8wqc0000gn/T//ccepvbUo.s 			page 24


 464 0076 B56A     		ldr	r5, [r6, #40]
 465 0078 1543     		orrs	r5, r5, r2
 466 007a B562     		str	r5, [r6, #40]
 467 007c E5E7     		b	.L28
 468              	.LVL22:
 469              	.L40:
 699:Drivers/STM32F3xx_HAL_Driver/Src/stm32f3xx_hal_comp.c **** 
 470              		.loc 1 699 18 view .LVU128
 471 007e 4FF48002 		mov	r2, #4194304
 472 0082 D5E7     		b	.L24
 473              	.LVL23:
 474              	.L27:
 707:Drivers/STM32F3xx_HAL_Driver/Src/stm32f3xx_hal_comp.c ****         }
 475              		.loc 1 707 11 discriminator 2 view .LVU129
 476 0084 B568     		ldr	r5, [r6, #8]
 477 0086 1543     		orrs	r5, r5, r2
 478 0088 B560     		str	r5, [r6, #8]
 479              	.L29:
 715:Drivers/STM32F3xx_HAL_Driver/Src/stm32f3xx_hal_comp.c ****         {
 480              		.loc 1 715 9 is_stmt 1 view .LVU130
 715:Drivers/STM32F3xx_HAL_Driver/Src/stm32f3xx_hal_comp.c ****         {
 481              		.loc 1 715 12 is_stmt 0 view .LVU131
 482 008a 8906     		lsls	r1, r1, #26
 483 008c 14D5     		bpl	.L55
 717:Drivers/STM32F3xx_HAL_Driver/Src/stm32f3xx_hal_comp.c ****         }
 484              		.loc 1 717 11 is_stmt 1 view .LVU132
 485 008e 0E4D     		ldr	r5, .L56+4
 486 0090 E968     		ldr	r1, [r5, #12]
 487 0092 1143     		orrs	r1, r1, r2
 488 0094 E960     		str	r1, [r5, #12]
 489              	.L32:
 725:Drivers/STM32F3xx_HAL_Driver/Src/stm32f3xx_hal_comp.c **** 
 490              		.loc 1 725 9 view .LVU133
 491 0096 0C49     		ldr	r1, .L56+4
 492 0098 4D68     		ldr	r5, [r1, #4]
 493 009a 1543     		orrs	r5, r5, r2
 494 009c 4D60     		str	r5, [r1, #4]
 728:Drivers/STM32F3xx_HAL_Driver/Src/stm32f3xx_hal_comp.c ****       }
 495              		.loc 1 728 9 view .LVU134
 496 009e 4A61     		str	r2, [r1, #20]
 497 00a0 DEE7     		b	.L25
 498              	.L54:
 721:Drivers/STM32F3xx_HAL_Driver/Src/stm32f3xx_hal_comp.c ****         }
 499              		.loc 1 721 11 view .LVU135
 500 00a2 094D     		ldr	r5, .L56+4
 501 00a4 E96A     		ldr	r1, [r5, #44]
 502 00a6 21EA0201 		bic	r1, r1, r2
 503 00aa E962     		str	r1, [r5, #44]
 504 00ac D3E7     		b	.L31
 505              	.L30:
 711:Drivers/STM32F3xx_HAL_Driver/Src/stm32f3xx_hal_comp.c ****         }
 506              		.loc 1 711 11 is_stmt 0 discriminator 2 view .LVU136
 507 00ae B568     		ldr	r5, [r6, #8]
 508 00b0 25EA0205 		bic	r5, r5, r2
 509 00b4 B560     		str	r5, [r6, #8]
 510 00b6 E8E7     		b	.L29
 511              	.L55:
ARM GAS  /var/folders/b1/22c950295gx2kqj80tvj8wqc0000gn/T//ccepvbUo.s 			page 25


 721:Drivers/STM32F3xx_HAL_Driver/Src/stm32f3xx_hal_comp.c ****         }
 512              		.loc 1 721 11 is_stmt 1 view .LVU137
 513 00b8 034D     		ldr	r5, .L56+4
 514 00ba E968     		ldr	r1, [r5, #12]
 515 00bc 21EA0201 		bic	r1, r1, r2
 516 00c0 E960     		str	r1, [r5, #12]
 517 00c2 E8E7     		b	.L32
 518              	.L57:
 519              		.align	2
 520              	.L56:
 521 00c4 20000140 		.word	1073807392
 522 00c8 00040140 		.word	1073808384
 523              		.cfi_endproc
 524              	.LFE127:
 526              		.section	.text.HAL_COMP_Stop,"ax",%progbits
 527              		.align	1
 528              		.p2align 2,,3
 529              		.global	HAL_COMP_Stop
 530              		.syntax unified
 531              		.thumb
 532              		.thumb_func
 534              	HAL_COMP_Stop:
 535              	.LVL24:
 536              	.LFB128:
 744:Drivers/STM32F3xx_HAL_Driver/Src/stm32f3xx_hal_comp.c **** 
 745:Drivers/STM32F3xx_HAL_Driver/Src/stm32f3xx_hal_comp.c **** /**
 746:Drivers/STM32F3xx_HAL_Driver/Src/stm32f3xx_hal_comp.c ****   * @brief  Stop the comparator.
 747:Drivers/STM32F3xx_HAL_Driver/Src/stm32f3xx_hal_comp.c ****   * @param  hcomp  COMP handle
 748:Drivers/STM32F3xx_HAL_Driver/Src/stm32f3xx_hal_comp.c ****   * @retval HAL status
 749:Drivers/STM32F3xx_HAL_Driver/Src/stm32f3xx_hal_comp.c ****   */
 750:Drivers/STM32F3xx_HAL_Driver/Src/stm32f3xx_hal_comp.c **** HAL_StatusTypeDef HAL_COMP_Stop(COMP_HandleTypeDef *hcomp)
 751:Drivers/STM32F3xx_HAL_Driver/Src/stm32f3xx_hal_comp.c **** {
 537              		.loc 1 751 1 view -0
 538              		.cfi_startproc
 539              		@ args = 0, pretend = 0, frame = 0
 540              		@ frame_needed = 0, uses_anonymous_args = 0
 541              		@ link register save eliminated.
 752:Drivers/STM32F3xx_HAL_Driver/Src/stm32f3xx_hal_comp.c ****   HAL_StatusTypeDef status = HAL_OK;
 542              		.loc 1 752 3 view .LVU139
 753:Drivers/STM32F3xx_HAL_Driver/Src/stm32f3xx_hal_comp.c **** 
 754:Drivers/STM32F3xx_HAL_Driver/Src/stm32f3xx_hal_comp.c ****   /* Check the COMP handle allocation and lock status */
 755:Drivers/STM32F3xx_HAL_Driver/Src/stm32f3xx_hal_comp.c ****   if ((hcomp == NULL) || ((hcomp->State & COMP_STATE_BIT_LOCK) != RESET))
 543              		.loc 1 755 3 view .LVU140
 544              		.loc 1 755 6 is_stmt 0 view .LVU141
 545 0000 28B1     		cbz	r0, .L66
 546 0002 0346     		mov	r3, r0
 547              		.loc 1 755 33 discriminator 1 view .LVU142
 548 0004 90F82900 		ldrb	r0, [r0, #41]	@ zero_extendqisi2
 549              	.LVL25:
 550              		.loc 1 755 23 discriminator 1 view .LVU143
 551 0008 10F01000 		ands	r0, r0, #16
 552 000c 01D0     		beq	.L72
 553              	.LVL26:
 554              	.L66:
 756:Drivers/STM32F3xx_HAL_Driver/Src/stm32f3xx_hal_comp.c ****   {
 757:Drivers/STM32F3xx_HAL_Driver/Src/stm32f3xx_hal_comp.c ****     status = HAL_ERROR;
 555              		.loc 1 757 12 view .LVU144
ARM GAS  /var/folders/b1/22c950295gx2kqj80tvj8wqc0000gn/T//ccepvbUo.s 			page 26


 556 000e 0120     		movs	r0, #1
 557              	.LVL27:
 758:Drivers/STM32F3xx_HAL_Driver/Src/stm32f3xx_hal_comp.c ****   }
 759:Drivers/STM32F3xx_HAL_Driver/Src/stm32f3xx_hal_comp.c ****   else
 760:Drivers/STM32F3xx_HAL_Driver/Src/stm32f3xx_hal_comp.c ****   {
 761:Drivers/STM32F3xx_HAL_Driver/Src/stm32f3xx_hal_comp.c ****     /* Check the parameter */
 762:Drivers/STM32F3xx_HAL_Driver/Src/stm32f3xx_hal_comp.c ****     assert_param(IS_COMP_ALL_INSTANCE(hcomp->Instance));
 763:Drivers/STM32F3xx_HAL_Driver/Src/stm32f3xx_hal_comp.c **** 
 764:Drivers/STM32F3xx_HAL_Driver/Src/stm32f3xx_hal_comp.c ****     if (hcomp->State == HAL_COMP_STATE_BUSY)
 765:Drivers/STM32F3xx_HAL_Driver/Src/stm32f3xx_hal_comp.c ****     {
 766:Drivers/STM32F3xx_HAL_Driver/Src/stm32f3xx_hal_comp.c ****       /* Disable the EXTI Line event mode if any */
 767:Drivers/STM32F3xx_HAL_Driver/Src/stm32f3xx_hal_comp.c ****       COMP_EXTI_DISABLE_EVENT(COMP_GET_EXTI_LINE(hcomp->Instance));
 768:Drivers/STM32F3xx_HAL_Driver/Src/stm32f3xx_hal_comp.c **** 
 769:Drivers/STM32F3xx_HAL_Driver/Src/stm32f3xx_hal_comp.c ****       /* Disable the selected comparator */
 770:Drivers/STM32F3xx_HAL_Driver/Src/stm32f3xx_hal_comp.c ****       __HAL_COMP_DISABLE(hcomp);
 771:Drivers/STM32F3xx_HAL_Driver/Src/stm32f3xx_hal_comp.c **** 
 772:Drivers/STM32F3xx_HAL_Driver/Src/stm32f3xx_hal_comp.c ****       hcomp->State = HAL_COMP_STATE_READY;
 773:Drivers/STM32F3xx_HAL_Driver/Src/stm32f3xx_hal_comp.c ****     }
 774:Drivers/STM32F3xx_HAL_Driver/Src/stm32f3xx_hal_comp.c ****     else
 775:Drivers/STM32F3xx_HAL_Driver/Src/stm32f3xx_hal_comp.c ****     {
 776:Drivers/STM32F3xx_HAL_Driver/Src/stm32f3xx_hal_comp.c ****       status = HAL_ERROR;
 777:Drivers/STM32F3xx_HAL_Driver/Src/stm32f3xx_hal_comp.c ****     }
 778:Drivers/STM32F3xx_HAL_Driver/Src/stm32f3xx_hal_comp.c ****   }
 779:Drivers/STM32F3xx_HAL_Driver/Src/stm32f3xx_hal_comp.c **** 
 780:Drivers/STM32F3xx_HAL_Driver/Src/stm32f3xx_hal_comp.c ****   return status;
 558              		.loc 1 780 3 is_stmt 1 view .LVU145
 781:Drivers/STM32F3xx_HAL_Driver/Src/stm32f3xx_hal_comp.c **** }
 559              		.loc 1 781 1 is_stmt 0 view .LVU146
 560 0010 7047     		bx	lr
 561              	.LVL28:
 562              	.L72:
 762:Drivers/STM32F3xx_HAL_Driver/Src/stm32f3xx_hal_comp.c **** 
 563              		.loc 1 762 5 is_stmt 1 view .LVU147
 764:Drivers/STM32F3xx_HAL_Driver/Src/stm32f3xx_hal_comp.c ****     {
 564              		.loc 1 764 5 view .LVU148
 764:Drivers/STM32F3xx_HAL_Driver/Src/stm32f3xx_hal_comp.c ****     {
 565              		.loc 1 764 14 is_stmt 0 view .LVU149
 566 0012 93F82920 		ldrb	r2, [r3, #41]	@ zero_extendqisi2
 764:Drivers/STM32F3xx_HAL_Driver/Src/stm32f3xx_hal_comp.c ****     {
 567              		.loc 1 764 8 view .LVU150
 568 0016 022A     		cmp	r2, #2
 569 0018 F9D1     		bne	.L66
 570              	.LVL29:
 571              	.LBB7:
 572              	.LBI7:
 750:Drivers/STM32F3xx_HAL_Driver/Src/stm32f3xx_hal_comp.c **** {
 573              		.loc 1 750 19 is_stmt 1 view .LVU151
 574              	.LBB8:
 767:Drivers/STM32F3xx_HAL_Driver/Src/stm32f3xx_hal_comp.c **** 
 575              		.loc 1 767 7 view .LVU152
 576 001a 1A68     		ldr	r2, [r3]
 577 001c 1149     		ldr	r1, .L73
 578 001e 8A42     		cmp	r2, r1
 579              	.LBE8:
 580              	.LBE7:
 751:Drivers/STM32F3xx_HAL_Driver/Src/stm32f3xx_hal_comp.c ****   HAL_StatusTypeDef status = HAL_OK;
 581              		.loc 1 751 1 is_stmt 0 view .LVU153
ARM GAS  /var/folders/b1/22c950295gx2kqj80tvj8wqc0000gn/T//ccepvbUo.s 			page 27


 582 0020 10B4     		push	{r4}
 583              	.LCFI10:
 584              		.cfi_def_cfa_offset 4
 585              		.cfi_offset 4, -4
 586              	.LBB11:
 587              	.LBB9:
 767:Drivers/STM32F3xx_HAL_Driver/Src/stm32f3xx_hal_comp.c **** 
 588              		.loc 1 767 7 view .LVU154
 589 0022 19D0     		beq	.L60
 590 0024 0831     		adds	r1, r1, #8
 591 0026 8A42     		cmp	r2, r1
 592 0028 0F4C     		ldr	r4, .L73+4
 593 002a 0ED0     		beq	.L61
 594 002c 616A     		ldr	r1, [r4, #36]
 595 002e 21F00101 		bic	r1, r1, #1
 596 0032 6162     		str	r1, [r4, #36]
 597              	.L62:
 770:Drivers/STM32F3xx_HAL_Driver/Src/stm32f3xx_hal_comp.c **** 
 598              		.loc 1 770 7 is_stmt 1 view .LVU155
 599 0034 1168     		ldr	r1, [r2]
 772:Drivers/STM32F3xx_HAL_Driver/Src/stm32f3xx_hal_comp.c ****     }
 600              		.loc 1 772 20 is_stmt 0 view .LVU156
 601 0036 4FF0010C 		mov	ip, #1
 770:Drivers/STM32F3xx_HAL_Driver/Src/stm32f3xx_hal_comp.c **** 
 602              		.loc 1 770 7 view .LVU157
 603 003a 21F00101 		bic	r1, r1, #1
 604 003e 1160     		str	r1, [r2]
 772:Drivers/STM32F3xx_HAL_Driver/Src/stm32f3xx_hal_comp.c ****     }
 605              		.loc 1 772 7 is_stmt 1 view .LVU158
 772:Drivers/STM32F3xx_HAL_Driver/Src/stm32f3xx_hal_comp.c ****     }
 606              		.loc 1 772 20 is_stmt 0 view .LVU159
 607 0040 83F829C0 		strb	ip, [r3, #41]
 608              	.LVL30:
 780:Drivers/STM32F3xx_HAL_Driver/Src/stm32f3xx_hal_comp.c **** }
 609              		.loc 1 780 3 is_stmt 1 view .LVU160
 780:Drivers/STM32F3xx_HAL_Driver/Src/stm32f3xx_hal_comp.c **** }
 610              		.loc 1 780 3 is_stmt 0 view .LVU161
 611              	.LBE9:
 612              	.LBE11:
 613              		.loc 1 781 1 view .LVU162
 614 0044 5DF8044B 		ldr	r4, [sp], #4
 615              	.LCFI11:
 616              		.cfi_remember_state
 617              		.cfi_restore 4
 618              		.cfi_def_cfa_offset 0
 619 0048 7047     		bx	lr
 620              	.LVL31:
 621              	.L61:
 622              	.LCFI12:
 623              		.cfi_restore_state
 624              	.LBB12:
 625              	.LBB10:
 767:Drivers/STM32F3xx_HAL_Driver/Src/stm32f3xx_hal_comp.c **** 
 626              		.loc 1 767 7 view .LVU163
 627 004a 6468     		ldr	r4, [r4, #4]
 628 004c 6FF08041 		mvn	r1, #1073741824
 629              	.L63:
ARM GAS  /var/folders/b1/22c950295gx2kqj80tvj8wqc0000gn/T//ccepvbUo.s 			page 28


 767:Drivers/STM32F3xx_HAL_Driver/Src/stm32f3xx_hal_comp.c **** 
 630              		.loc 1 767 7 view .LVU164
 631 0050 2140     		ands	r1, r1, r4
 632 0052 054C     		ldr	r4, .L73+4
 633 0054 6160     		str	r1, [r4, #4]
 634 0056 EDE7     		b	.L62
 635              	.L60:
 767:Drivers/STM32F3xx_HAL_Driver/Src/stm32f3xx_hal_comp.c **** 
 636              		.loc 1 767 7 view .LVU165
 637 0058 034C     		ldr	r4, .L73+4
 638 005a 6FF48001 		mvn	r1, #4194304
 639 005e 6468     		ldr	r4, [r4, #4]
 640 0060 F6E7     		b	.L63
 641              	.L74:
 642 0062 00BF     		.align	2
 643              	.L73:
 644 0064 20000140 		.word	1073807392
 645 0068 00040140 		.word	1073808384
 646              	.LBE10:
 647              	.LBE12:
 648              		.cfi_endproc
 649              	.LFE128:
 651              		.section	.text.HAL_COMP_Start_IT,"ax",%progbits
 652              		.align	1
 653              		.p2align 2,,3
 654              		.global	HAL_COMP_Start_IT
 655              		.syntax unified
 656              		.thumb
 657              		.thumb_func
 659              	HAL_COMP_Start_IT:
 660              	.LVL32:
 661              	.LFB129:
 782:Drivers/STM32F3xx_HAL_Driver/Src/stm32f3xx_hal_comp.c **** 
 783:Drivers/STM32F3xx_HAL_Driver/Src/stm32f3xx_hal_comp.c **** /**
 784:Drivers/STM32F3xx_HAL_Driver/Src/stm32f3xx_hal_comp.c ****   * @brief  Start the comparator in Interrupt mode.
 785:Drivers/STM32F3xx_HAL_Driver/Src/stm32f3xx_hal_comp.c ****   * @param  hcomp  COMP handle
 786:Drivers/STM32F3xx_HAL_Driver/Src/stm32f3xx_hal_comp.c ****   * @retval HAL status.
 787:Drivers/STM32F3xx_HAL_Driver/Src/stm32f3xx_hal_comp.c ****   */
 788:Drivers/STM32F3xx_HAL_Driver/Src/stm32f3xx_hal_comp.c **** HAL_StatusTypeDef HAL_COMP_Start_IT(COMP_HandleTypeDef *hcomp)
 789:Drivers/STM32F3xx_HAL_Driver/Src/stm32f3xx_hal_comp.c **** {
 662              		.loc 1 789 1 is_stmt 1 view -0
 663              		.cfi_startproc
 664              		@ args = 0, pretend = 0, frame = 0
 665              		@ frame_needed = 0, uses_anonymous_args = 0
 666              		@ link register save eliminated.
 790:Drivers/STM32F3xx_HAL_Driver/Src/stm32f3xx_hal_comp.c ****   HAL_StatusTypeDef status = HAL_OK;
 667              		.loc 1 790 3 view .LVU167
 791:Drivers/STM32F3xx_HAL_Driver/Src/stm32f3xx_hal_comp.c ****   uint32_t extiline = 0U;
 668              		.loc 1 791 3 view .LVU168
 792:Drivers/STM32F3xx_HAL_Driver/Src/stm32f3xx_hal_comp.c **** 
 793:Drivers/STM32F3xx_HAL_Driver/Src/stm32f3xx_hal_comp.c ****   /* Check the COMP handle allocation and lock status */
 794:Drivers/STM32F3xx_HAL_Driver/Src/stm32f3xx_hal_comp.c ****   if ((hcomp == NULL) || ((hcomp->State & COMP_STATE_BIT_LOCK) != RESET))
 669              		.loc 1 794 3 view .LVU169
 670              		.loc 1 794 6 is_stmt 0 view .LVU170
 671 0000 20B1     		cbz	r0, .L95
 672              		.loc 1 794 33 discriminator 1 view .LVU171
 673 0002 90F82920 		ldrb	r2, [r0, #41]	@ zero_extendqisi2
ARM GAS  /var/folders/b1/22c950295gx2kqj80tvj8wqc0000gn/T//ccepvbUo.s 			page 29


 674 0006 0346     		mov	r3, r0
 675              		.loc 1 794 23 discriminator 1 view .LVU172
 676 0008 D006     		lsls	r0, r2, #27
 677              	.LVL33:
 678              		.loc 1 794 23 discriminator 1 view .LVU173
 679 000a 01D5     		bpl	.L110
 680              	.LVL34:
 681              	.L95:
 795:Drivers/STM32F3xx_HAL_Driver/Src/stm32f3xx_hal_comp.c ****   {
 796:Drivers/STM32F3xx_HAL_Driver/Src/stm32f3xx_hal_comp.c ****     status = HAL_ERROR;
 682              		.loc 1 796 12 view .LVU174
 683 000c 0120     		movs	r0, #1
 684              	.LVL35:
 797:Drivers/STM32F3xx_HAL_Driver/Src/stm32f3xx_hal_comp.c ****   }
 798:Drivers/STM32F3xx_HAL_Driver/Src/stm32f3xx_hal_comp.c ****   else
 799:Drivers/STM32F3xx_HAL_Driver/Src/stm32f3xx_hal_comp.c ****   {
 800:Drivers/STM32F3xx_HAL_Driver/Src/stm32f3xx_hal_comp.c ****     /* Check the parameter */
 801:Drivers/STM32F3xx_HAL_Driver/Src/stm32f3xx_hal_comp.c ****     assert_param(IS_COMP_ALL_INSTANCE(hcomp->Instance));
 802:Drivers/STM32F3xx_HAL_Driver/Src/stm32f3xx_hal_comp.c **** 
 803:Drivers/STM32F3xx_HAL_Driver/Src/stm32f3xx_hal_comp.c ****     if (hcomp->State == HAL_COMP_STATE_READY)
 804:Drivers/STM32F3xx_HAL_Driver/Src/stm32f3xx_hal_comp.c ****     {
 805:Drivers/STM32F3xx_HAL_Driver/Src/stm32f3xx_hal_comp.c ****       /* Configure the EXTI event generation */
 806:Drivers/STM32F3xx_HAL_Driver/Src/stm32f3xx_hal_comp.c ****       if ((hcomp->Init.TriggerMode & (COMP_TRIGGERMODE_IT_RISING | COMP_TRIGGERMODE_IT_FALLING)) !=
 807:Drivers/STM32F3xx_HAL_Driver/Src/stm32f3xx_hal_comp.c ****       {
 808:Drivers/STM32F3xx_HAL_Driver/Src/stm32f3xx_hal_comp.c ****         /* Get the EXTI Line output configuration */
 809:Drivers/STM32F3xx_HAL_Driver/Src/stm32f3xx_hal_comp.c ****         extiline = COMP_GET_EXTI_LINE(hcomp->Instance);
 810:Drivers/STM32F3xx_HAL_Driver/Src/stm32f3xx_hal_comp.c **** 
 811:Drivers/STM32F3xx_HAL_Driver/Src/stm32f3xx_hal_comp.c ****         /* Configure the trigger rising edge */
 812:Drivers/STM32F3xx_HAL_Driver/Src/stm32f3xx_hal_comp.c ****         if ((hcomp->Init.TriggerMode & COMP_TRIGGERMODE_IT_RISING) != RESET)
 813:Drivers/STM32F3xx_HAL_Driver/Src/stm32f3xx_hal_comp.c ****         {
 814:Drivers/STM32F3xx_HAL_Driver/Src/stm32f3xx_hal_comp.c ****           COMP_EXTI_RISING_ENABLE(extiline);
 815:Drivers/STM32F3xx_HAL_Driver/Src/stm32f3xx_hal_comp.c ****         }
 816:Drivers/STM32F3xx_HAL_Driver/Src/stm32f3xx_hal_comp.c ****         else
 817:Drivers/STM32F3xx_HAL_Driver/Src/stm32f3xx_hal_comp.c ****         {
 818:Drivers/STM32F3xx_HAL_Driver/Src/stm32f3xx_hal_comp.c ****           COMP_EXTI_RISING_DISABLE(extiline);
 819:Drivers/STM32F3xx_HAL_Driver/Src/stm32f3xx_hal_comp.c ****         }
 820:Drivers/STM32F3xx_HAL_Driver/Src/stm32f3xx_hal_comp.c ****         /* Configure the trigger falling edge */
 821:Drivers/STM32F3xx_HAL_Driver/Src/stm32f3xx_hal_comp.c ****         if ((hcomp->Init.TriggerMode & COMP_TRIGGERMODE_IT_FALLING) != RESET)
 822:Drivers/STM32F3xx_HAL_Driver/Src/stm32f3xx_hal_comp.c ****         {
 823:Drivers/STM32F3xx_HAL_Driver/Src/stm32f3xx_hal_comp.c ****           COMP_EXTI_FALLING_ENABLE(extiline);
 824:Drivers/STM32F3xx_HAL_Driver/Src/stm32f3xx_hal_comp.c ****         }
 825:Drivers/STM32F3xx_HAL_Driver/Src/stm32f3xx_hal_comp.c ****         else
 826:Drivers/STM32F3xx_HAL_Driver/Src/stm32f3xx_hal_comp.c ****         {
 827:Drivers/STM32F3xx_HAL_Driver/Src/stm32f3xx_hal_comp.c ****           COMP_EXTI_FALLING_DISABLE(extiline);
 828:Drivers/STM32F3xx_HAL_Driver/Src/stm32f3xx_hal_comp.c ****         }
 829:Drivers/STM32F3xx_HAL_Driver/Src/stm32f3xx_hal_comp.c **** 
 830:Drivers/STM32F3xx_HAL_Driver/Src/stm32f3xx_hal_comp.c ****         /* Clear COMP EXTI pending bit if any */
 831:Drivers/STM32F3xx_HAL_Driver/Src/stm32f3xx_hal_comp.c ****         COMP_EXTI_CLEAR_FLAG(extiline);
 832:Drivers/STM32F3xx_HAL_Driver/Src/stm32f3xx_hal_comp.c **** 
 833:Drivers/STM32F3xx_HAL_Driver/Src/stm32f3xx_hal_comp.c ****         /* Enable EXTI interrupt mode */
 834:Drivers/STM32F3xx_HAL_Driver/Src/stm32f3xx_hal_comp.c ****         COMP_EXTI_ENABLE_IT(extiline);
 835:Drivers/STM32F3xx_HAL_Driver/Src/stm32f3xx_hal_comp.c **** 
 836:Drivers/STM32F3xx_HAL_Driver/Src/stm32f3xx_hal_comp.c ****         /* Enable the selected comparator */
 837:Drivers/STM32F3xx_HAL_Driver/Src/stm32f3xx_hal_comp.c ****         __HAL_COMP_ENABLE(hcomp);
 838:Drivers/STM32F3xx_HAL_Driver/Src/stm32f3xx_hal_comp.c **** 
 839:Drivers/STM32F3xx_HAL_Driver/Src/stm32f3xx_hal_comp.c ****         hcomp->State = HAL_COMP_STATE_BUSY;
 840:Drivers/STM32F3xx_HAL_Driver/Src/stm32f3xx_hal_comp.c ****       }
ARM GAS  /var/folders/b1/22c950295gx2kqj80tvj8wqc0000gn/T//ccepvbUo.s 			page 30


 841:Drivers/STM32F3xx_HAL_Driver/Src/stm32f3xx_hal_comp.c ****       else
 842:Drivers/STM32F3xx_HAL_Driver/Src/stm32f3xx_hal_comp.c ****       {
 843:Drivers/STM32F3xx_HAL_Driver/Src/stm32f3xx_hal_comp.c ****         status = HAL_ERROR;
 844:Drivers/STM32F3xx_HAL_Driver/Src/stm32f3xx_hal_comp.c ****       }
 845:Drivers/STM32F3xx_HAL_Driver/Src/stm32f3xx_hal_comp.c ****     }
 846:Drivers/STM32F3xx_HAL_Driver/Src/stm32f3xx_hal_comp.c ****     else
 847:Drivers/STM32F3xx_HAL_Driver/Src/stm32f3xx_hal_comp.c ****     {
 848:Drivers/STM32F3xx_HAL_Driver/Src/stm32f3xx_hal_comp.c ****       status = HAL_ERROR;
 849:Drivers/STM32F3xx_HAL_Driver/Src/stm32f3xx_hal_comp.c ****     }
 850:Drivers/STM32F3xx_HAL_Driver/Src/stm32f3xx_hal_comp.c ****   }
 851:Drivers/STM32F3xx_HAL_Driver/Src/stm32f3xx_hal_comp.c **** 
 852:Drivers/STM32F3xx_HAL_Driver/Src/stm32f3xx_hal_comp.c ****   return status;
 685              		.loc 1 852 3 is_stmt 1 view .LVU175
 686              		.loc 1 852 10 is_stmt 0 view .LVU176
 687 000e 7047     		bx	lr
 688              	.LVL36:
 689              	.L110:
 801:Drivers/STM32F3xx_HAL_Driver/Src/stm32f3xx_hal_comp.c **** 
 690              		.loc 1 801 5 is_stmt 1 view .LVU177
 803:Drivers/STM32F3xx_HAL_Driver/Src/stm32f3xx_hal_comp.c ****     {
 691              		.loc 1 803 5 view .LVU178
 803:Drivers/STM32F3xx_HAL_Driver/Src/stm32f3xx_hal_comp.c ****     {
 692              		.loc 1 803 14 is_stmt 0 view .LVU179
 693 0010 93F82920 		ldrb	r2, [r3, #41]	@ zero_extendqisi2
 803:Drivers/STM32F3xx_HAL_Driver/Src/stm32f3xx_hal_comp.c ****     {
 694              		.loc 1 803 8 view .LVU180
 695 0014 012A     		cmp	r2, #1
 803:Drivers/STM32F3xx_HAL_Driver/Src/stm32f3xx_hal_comp.c ****     {
 696              		.loc 1 803 14 view .LVU181
 697 0016 D0B2     		uxtb	r0, r2
 803:Drivers/STM32F3xx_HAL_Driver/Src/stm32f3xx_hal_comp.c ****     {
 698              		.loc 1 803 8 view .LVU182
 699 0018 F8D1     		bne	.L95
 806:Drivers/STM32F3xx_HAL_Driver/Src/stm32f3xx_hal_comp.c ****       {
 700              		.loc 1 806 7 is_stmt 1 view .LVU183
 806:Drivers/STM32F3xx_HAL_Driver/Src/stm32f3xx_hal_comp.c ****       {
 701              		.loc 1 806 23 is_stmt 0 view .LVU184
 702 001a 5A6A     		ldr	r2, [r3, #36]
 806:Drivers/STM32F3xx_HAL_Driver/Src/stm32f3xx_hal_comp.c ****       {
 703              		.loc 1 806 10 view .LVU185
 704 001c 9107     		lsls	r1, r2, #30
 705 001e 27D0     		beq	.L107
 809:Drivers/STM32F3xx_HAL_Driver/Src/stm32f3xx_hal_comp.c **** 
 706              		.loc 1 809 9 is_stmt 1 view .LVU186
 809:Drivers/STM32F3xx_HAL_Driver/Src/stm32f3xx_hal_comp.c **** 
 707              		.loc 1 809 20 is_stmt 0 view .LVU187
 708 0020 1968     		ldr	r1, [r3]
 709 0022 3148     		ldr	r0, .L114
 710 0024 8142     		cmp	r1, r0
 789:Drivers/STM32F3xx_HAL_Driver/Src/stm32f3xx_hal_comp.c ****   HAL_StatusTypeDef status = HAL_OK;
 711              		.loc 1 789 1 view .LVU188
 712 0026 70B4     		push	{r4, r5, r6}
 713              	.LCFI13:
 714              		.cfi_def_cfa_offset 12
 715              		.cfi_offset 4, -12
 716              		.cfi_offset 5, -8
 717              		.cfi_offset 6, -4
ARM GAS  /var/folders/b1/22c950295gx2kqj80tvj8wqc0000gn/T//ccepvbUo.s 			page 31


 809:Drivers/STM32F3xx_HAL_Driver/Src/stm32f3xx_hal_comp.c **** 
 718              		.loc 1 809 20 view .LVU189
 719 0028 23D0     		beq	.L96
 809:Drivers/STM32F3xx_HAL_Driver/Src/stm32f3xx_hal_comp.c **** 
 720              		.loc 1 809 20 discriminator 1 view .LVU190
 721 002a 0830     		adds	r0, r0, #8
 722 002c 8142     		cmp	r1, r0
 723 002e 57D0     		beq	.L111
 724              	.LVL37:
 812:Drivers/STM32F3xx_HAL_Driver/Src/stm32f3xx_hal_comp.c ****         {
 725              		.loc 1 812 9 is_stmt 1 view .LVU191
 812:Drivers/STM32F3xx_HAL_Driver/Src/stm32f3xx_hal_comp.c ****         {
 726              		.loc 1 812 12 is_stmt 0 view .LVU192
 727 0030 D007     		lsls	r0, r2, #31
 728 0032 4FD5     		bpl	.L112
 814:Drivers/STM32F3xx_HAL_Driver/Src/stm32f3xx_hal_comp.c ****         }
 729              		.loc 1 814 11 is_stmt 1 view .LVU193
 730 0034 2D4C     		ldr	r4, .L114+4
 731 0036 A06A     		ldr	r0, [r4, #40]
 732 0038 40F00100 		orr	r0, r0, #1
 733 003c A062     		str	r0, [r4, #40]
 734              	.L82:
 821:Drivers/STM32F3xx_HAL_Driver/Src/stm32f3xx_hal_comp.c ****         {
 735              		.loc 1 821 9 view .LVU194
 821:Drivers/STM32F3xx_HAL_Driver/Src/stm32f3xx_hal_comp.c ****         {
 736              		.loc 1 821 12 is_stmt 0 view .LVU195
 737 003e 9607     		lsls	r6, r2, #30
 738 0040 42D4     		bmi	.L88
 739 0042 6FF00104 		mvn	r4, #1
 740 0046 0120     		movs	r0, #1
 741              	.LVL38:
 742              	.L89:
 827:Drivers/STM32F3xx_HAL_Driver/Src/stm32f3xx_hal_comp.c ****         }
 743              		.loc 1 827 11 discriminator 1 view .LVU196
 744 0048 284D     		ldr	r5, .L114+4
 745 004a EA6A     		ldr	r2, [r5, #44]
 746 004c 2240     		ands	r2, r2, r4
 747 004e EA62     		str	r2, [r5, #44]
 748              	.L79:
 831:Drivers/STM32F3xx_HAL_Driver/Src/stm32f3xx_hal_comp.c **** 
 749              		.loc 1 831 9 is_stmt 1 view .LVU197
 750 0050 264A     		ldr	r2, .L114+4
 751 0052 5063     		str	r0, [r2, #52]
 834:Drivers/STM32F3xx_HAL_Driver/Src/stm32f3xx_hal_comp.c **** 
 752              		.loc 1 834 9 view .LVU198
 753 0054 146A     		ldr	r4, [r2, #32]
 754 0056 2043     		orrs	r0, r0, r4
 755 0058 1062     		str	r0, [r2, #32]
 756              	.L87:
 837:Drivers/STM32F3xx_HAL_Driver/Src/stm32f3xx_hal_comp.c **** 
 757              		.loc 1 837 9 view .LVU199
 758 005a 0A68     		ldr	r2, [r1]
 839:Drivers/STM32F3xx_HAL_Driver/Src/stm32f3xx_hal_comp.c ****       }
 759              		.loc 1 839 22 is_stmt 0 view .LVU200
 760 005c 4FF0020C 		mov	ip, #2
 837:Drivers/STM32F3xx_HAL_Driver/Src/stm32f3xx_hal_comp.c **** 
 761              		.loc 1 837 9 view .LVU201
ARM GAS  /var/folders/b1/22c950295gx2kqj80tvj8wqc0000gn/T//ccepvbUo.s 			page 32


 762 0060 42F00102 		orr	r2, r2, #1
 763 0064 0A60     		str	r2, [r1]
 839:Drivers/STM32F3xx_HAL_Driver/Src/stm32f3xx_hal_comp.c ****       }
 764              		.loc 1 839 9 is_stmt 1 view .LVU202
 839:Drivers/STM32F3xx_HAL_Driver/Src/stm32f3xx_hal_comp.c ****       }
 765              		.loc 1 839 22 is_stmt 0 view .LVU203
 766 0066 83F829C0 		strb	ip, [r3, #41]
 790:Drivers/STM32F3xx_HAL_Driver/Src/stm32f3xx_hal_comp.c ****   uint32_t extiline = 0U;
 767              		.loc 1 790 21 view .LVU204
 768 006a 0020     		movs	r0, #0
 853:Drivers/STM32F3xx_HAL_Driver/Src/stm32f3xx_hal_comp.c **** }
 769              		.loc 1 853 1 view .LVU205
 770 006c 70BC     		pop	{r4, r5, r6}
 771              	.LCFI14:
 772              		.cfi_restore 6
 773              		.cfi_restore 5
 774              		.cfi_restore 4
 775              		.cfi_def_cfa_offset 0
 776 006e 7047     		bx	lr
 777              	.LVL39:
 778              	.L107:
 779              		.loc 1 853 1 view .LVU206
 780 0070 7047     		bx	lr
 781              	.L96:
 782              	.LCFI15:
 783              		.cfi_def_cfa_offset 12
 784              		.cfi_offset 4, -12
 785              		.cfi_offset 5, -8
 786              		.cfi_offset 6, -4
 809:Drivers/STM32F3xx_HAL_Driver/Src/stm32f3xx_hal_comp.c **** 
 787              		.loc 1 809 20 view .LVU207
 788 0072 4FF48000 		mov	r0, #4194304
 789              	.L77:
 790              	.LVL40:
 812:Drivers/STM32F3xx_HAL_Driver/Src/stm32f3xx_hal_comp.c ****         {
 791              		.loc 1 812 9 is_stmt 1 view .LVU208
 812:Drivers/STM32F3xx_HAL_Driver/Src/stm32f3xx_hal_comp.c ****         {
 792              		.loc 1 812 12 is_stmt 0 view .LVU209
 793 0076 D407     		lsls	r4, r2, #31
 794 0078 1AD5     		bpl	.L113
 814:Drivers/STM32F3xx_HAL_Driver/Src/stm32f3xx_hal_comp.c ****         }
 795              		.loc 1 814 11 is_stmt 1 view .LVU210
 796 007a 1C4D     		ldr	r5, .L114+4
 797 007c AC68     		ldr	r4, [r5, #8]
 821:Drivers/STM32F3xx_HAL_Driver/Src/stm32f3xx_hal_comp.c ****         {
 798              		.loc 1 821 12 is_stmt 0 view .LVU211
 799 007e 9207     		lsls	r2, r2, #30
 814:Drivers/STM32F3xx_HAL_Driver/Src/stm32f3xx_hal_comp.c ****         }
 800              		.loc 1 814 11 view .LVU212
 801 0080 44EA0004 		orr	r4, r4, r0
 802 0084 AC60     		str	r4, [r5, #8]
 821:Drivers/STM32F3xx_HAL_Driver/Src/stm32f3xx_hal_comp.c ****         {
 803              		.loc 1 821 9 is_stmt 1 view .LVU213
 821:Drivers/STM32F3xx_HAL_Driver/Src/stm32f3xx_hal_comp.c ****         {
 804              		.loc 1 821 12 is_stmt 0 view .LVU214
 805 0086 0ED4     		bmi	.L85
 827:Drivers/STM32F3xx_HAL_Driver/Src/stm32f3xx_hal_comp.c ****         }
ARM GAS  /var/folders/b1/22c950295gx2kqj80tvj8wqc0000gn/T//ccepvbUo.s 			page 33


 806              		.loc 1 827 11 view .LVU215
 807 0088 00F00102 		and	r2, r0, #1
 818:Drivers/STM32F3xx_HAL_Driver/Src/stm32f3xx_hal_comp.c ****         }
 808              		.loc 1 818 11 view .LVU216
 809 008c C443     		mvns	r4, r0
 810              	.L90:
 827:Drivers/STM32F3xx_HAL_Driver/Src/stm32f3xx_hal_comp.c ****         }
 811              		.loc 1 827 11 is_stmt 1 view .LVU217
 812 008e 002A     		cmp	r2, #0
 813 0090 DAD1     		bne	.L89
 827:Drivers/STM32F3xx_HAL_Driver/Src/stm32f3xx_hal_comp.c ****         }
 814              		.loc 1 827 11 is_stmt 0 discriminator 2 view .LVU218
 815 0092 164D     		ldr	r5, .L114+4
 816 0094 EA68     		ldr	r2, [r5, #12]
 817 0096 2240     		ands	r2, r2, r4
 818 0098 EA60     		str	r2, [r5, #12]
 819              	.L80:
 831:Drivers/STM32F3xx_HAL_Driver/Src/stm32f3xx_hal_comp.c **** 
 820              		.loc 1 831 9 is_stmt 1 view .LVU219
 821 009a 144A     		ldr	r2, .L114+4
 822 009c 5061     		str	r0, [r2, #20]
 834:Drivers/STM32F3xx_HAL_Driver/Src/stm32f3xx_hal_comp.c **** 
 823              		.loc 1 834 9 view .LVU220
 824 009e 1468     		ldr	r4, [r2]
 825 00a0 2043     		orrs	r0, r0, r4
 826              	.LVL41:
 834:Drivers/STM32F3xx_HAL_Driver/Src/stm32f3xx_hal_comp.c **** 
 827              		.loc 1 834 9 is_stmt 0 view .LVU221
 828 00a2 1060     		str	r0, [r2]
 829              	.LVL42:
 834:Drivers/STM32F3xx_HAL_Driver/Src/stm32f3xx_hal_comp.c **** 
 830              		.loc 1 834 9 view .LVU222
 831 00a4 D9E7     		b	.L87
 832              	.LVL43:
 833              	.L85:
 823:Drivers/STM32F3xx_HAL_Driver/Src/stm32f3xx_hal_comp.c ****         }
 834              		.loc 1 823 11 view .LVU223
 835 00a6 114C     		ldr	r4, .L114+4
 836 00a8 E268     		ldr	r2, [r4, #12]
 837 00aa 0243     		orrs	r2, r2, r0
 838 00ac E260     		str	r2, [r4, #12]
 839 00ae F4E7     		b	.L80
 840              	.L113:
 818:Drivers/STM32F3xx_HAL_Driver/Src/stm32f3xx_hal_comp.c ****         }
 841              		.loc 1 818 11 is_stmt 1 view .LVU224
 842 00b0 0E4E     		ldr	r6, .L114+4
 843 00b2 B568     		ldr	r5, [r6, #8]
 844 00b4 25EA0005 		bic	r5, r5, r0
 845 00b8 B560     		str	r5, [r6, #8]
 821:Drivers/STM32F3xx_HAL_Driver/Src/stm32f3xx_hal_comp.c ****         {
 846              		.loc 1 821 9 view .LVU225
 821:Drivers/STM32F3xx_HAL_Driver/Src/stm32f3xx_hal_comp.c ****         {
 847              		.loc 1 821 12 is_stmt 0 view .LVU226
 848 00ba 9507     		lsls	r5, r2, #30
 818:Drivers/STM32F3xx_HAL_Driver/Src/stm32f3xx_hal_comp.c ****         }
 849              		.loc 1 818 11 view .LVU227
 850 00bc 6FEA0004 		mvn	r4, r0
ARM GAS  /var/folders/b1/22c950295gx2kqj80tvj8wqc0000gn/T//ccepvbUo.s 			page 34


 821:Drivers/STM32F3xx_HAL_Driver/Src/stm32f3xx_hal_comp.c ****         {
 851              		.loc 1 821 12 view .LVU228
 852 00c0 F1D4     		bmi	.L85
 827:Drivers/STM32F3xx_HAL_Driver/Src/stm32f3xx_hal_comp.c ****         }
 853              		.loc 1 827 11 view .LVU229
 854 00c2 00F00102 		and	r2, r0, #1
 855 00c6 E2E7     		b	.L90
 856              	.LVL44:
 857              	.L88:
 823:Drivers/STM32F3xx_HAL_Driver/Src/stm32f3xx_hal_comp.c ****         }
 858              		.loc 1 823 11 discriminator 1 view .LVU230
 859 00c8 084C     		ldr	r4, .L114+4
 860 00ca E26A     		ldr	r2, [r4, #44]
 861 00cc 0120     		movs	r0, #1
 862 00ce 0243     		orrs	r2, r2, r0
 863 00d0 E262     		str	r2, [r4, #44]
 864 00d2 BDE7     		b	.L79
 865              	.L112:
 818:Drivers/STM32F3xx_HAL_Driver/Src/stm32f3xx_hal_comp.c ****         }
 866              		.loc 1 818 11 is_stmt 1 view .LVU231
 867 00d4 054C     		ldr	r4, .L114+4
 868 00d6 A06A     		ldr	r0, [r4, #40]
 869 00d8 20F00100 		bic	r0, r0, #1
 870 00dc A062     		str	r0, [r4, #40]
 871 00de AEE7     		b	.L82
 872              	.LVL45:
 873              	.L111:
 809:Drivers/STM32F3xx_HAL_Driver/Src/stm32f3xx_hal_comp.c **** 
 874              		.loc 1 809 20 is_stmt 0 view .LVU232
 875 00e0 4FF08040 		mov	r0, #1073741824
 876 00e4 C7E7     		b	.L77
 877              	.L115:
 878 00e6 00BF     		.align	2
 879              	.L114:
 880 00e8 20000140 		.word	1073807392
 881 00ec 00040140 		.word	1073808384
 882              		.cfi_endproc
 883              	.LFE129:
 885              		.section	.text.HAL_COMP_Stop_IT,"ax",%progbits
 886              		.align	1
 887              		.p2align 2,,3
 888              		.global	HAL_COMP_Stop_IT
 889              		.syntax unified
 890              		.thumb
 891              		.thumb_func
 893              	HAL_COMP_Stop_IT:
 894              	.LVL46:
 895              	.LFB130:
 854:Drivers/STM32F3xx_HAL_Driver/Src/stm32f3xx_hal_comp.c **** 
 855:Drivers/STM32F3xx_HAL_Driver/Src/stm32f3xx_hal_comp.c **** /**
 856:Drivers/STM32F3xx_HAL_Driver/Src/stm32f3xx_hal_comp.c ****   * @brief  Stop the comparator in Interrupt mode.
 857:Drivers/STM32F3xx_HAL_Driver/Src/stm32f3xx_hal_comp.c ****   * @param  hcomp  COMP handle
 858:Drivers/STM32F3xx_HAL_Driver/Src/stm32f3xx_hal_comp.c ****   * @retval HAL status
 859:Drivers/STM32F3xx_HAL_Driver/Src/stm32f3xx_hal_comp.c ****   */
 860:Drivers/STM32F3xx_HAL_Driver/Src/stm32f3xx_hal_comp.c **** HAL_StatusTypeDef HAL_COMP_Stop_IT(COMP_HandleTypeDef *hcomp)
 861:Drivers/STM32F3xx_HAL_Driver/Src/stm32f3xx_hal_comp.c **** {
 896              		.loc 1 861 1 is_stmt 1 view -0
ARM GAS  /var/folders/b1/22c950295gx2kqj80tvj8wqc0000gn/T//ccepvbUo.s 			page 35


 897              		.cfi_startproc
 898              		@ args = 0, pretend = 0, frame = 0
 899              		@ frame_needed = 0, uses_anonymous_args = 0
 900              		@ link register save eliminated.
 862:Drivers/STM32F3xx_HAL_Driver/Src/stm32f3xx_hal_comp.c ****   HAL_StatusTypeDef status = HAL_OK;
 901              		.loc 1 862 3 view .LVU234
 863:Drivers/STM32F3xx_HAL_Driver/Src/stm32f3xx_hal_comp.c **** 
 864:Drivers/STM32F3xx_HAL_Driver/Src/stm32f3xx_hal_comp.c ****   /* Disable the EXTI Line interrupt mode */
 865:Drivers/STM32F3xx_HAL_Driver/Src/stm32f3xx_hal_comp.c ****   COMP_EXTI_DISABLE_IT(COMP_GET_EXTI_LINE(hcomp->Instance));
 902              		.loc 1 865 3 view .LVU235
 903 0000 2349     		ldr	r1, .L133
 904 0002 0268     		ldr	r2, [r0]
 905 0004 8A42     		cmp	r2, r1
 861:Drivers/STM32F3xx_HAL_Driver/Src/stm32f3xx_hal_comp.c ****   HAL_StatusTypeDef status = HAL_OK;
 906              		.loc 1 861 1 is_stmt 0 view .LVU236
 907 0006 10B4     		push	{r4}
 908              	.LCFI16:
 909              		.cfi_def_cfa_offset 4
 910              		.cfi_offset 4, -4
 861:Drivers/STM32F3xx_HAL_Driver/Src/stm32f3xx_hal_comp.c ****   HAL_StatusTypeDef status = HAL_OK;
 911              		.loc 1 861 1 view .LVU237
 912 0008 0346     		mov	r3, r0
 913              		.loc 1 865 3 view .LVU238
 914 000a 1BD0     		beq	.L117
 915              		.loc 1 865 3 discriminator 1 view .LVU239
 916 000c 0831     		adds	r1, r1, #8
 917 000e 8A42     		cmp	r2, r1
 918 0010 2048     		ldr	r0, .L133+4
 919              	.LVL47:
 920              		.loc 1 865 3 discriminator 1 view .LVU240
 921 0012 10D0     		beq	.L118
 922              		.loc 1 865 3 view .LVU241
 923 0014 016A     		ldr	r1, [r0, #32]
 924 0016 21F00101 		bic	r1, r1, #1
 925 001a 0162     		str	r1, [r0, #32]
 926              	.L119:
 866:Drivers/STM32F3xx_HAL_Driver/Src/stm32f3xx_hal_comp.c **** 
 867:Drivers/STM32F3xx_HAL_Driver/Src/stm32f3xx_hal_comp.c ****   status = HAL_COMP_Stop(hcomp);
 927              		.loc 1 867 3 is_stmt 1 view .LVU242
 928              	.LVL48:
 929              	.LBB17:
 930              	.LBI17:
 750:Drivers/STM32F3xx_HAL_Driver/Src/stm32f3xx_hal_comp.c **** {
 931              		.loc 1 750 19 view .LVU243
 932              	.LBB18:
 752:Drivers/STM32F3xx_HAL_Driver/Src/stm32f3xx_hal_comp.c **** 
 933              		.loc 1 752 3 view .LVU244
 755:Drivers/STM32F3xx_HAL_Driver/Src/stm32f3xx_hal_comp.c ****   {
 934              		.loc 1 755 3 view .LVU245
 755:Drivers/STM32F3xx_HAL_Driver/Src/stm32f3xx_hal_comp.c ****   {
 935              		.loc 1 755 33 is_stmt 0 view .LVU246
 936 001c 93F82900 		ldrb	r0, [r3, #41]	@ zero_extendqisi2
 755:Drivers/STM32F3xx_HAL_Driver/Src/stm32f3xx_hal_comp.c ****   {
 937              		.loc 1 755 23 view .LVU247
 938 0020 10F01000 		ands	r0, r0, #16
 939 0024 03D1     		bne	.L128
 762:Drivers/STM32F3xx_HAL_Driver/Src/stm32f3xx_hal_comp.c **** 
ARM GAS  /var/folders/b1/22c950295gx2kqj80tvj8wqc0000gn/T//ccepvbUo.s 			page 36


 940              		.loc 1 762 5 is_stmt 1 view .LVU248
 764:Drivers/STM32F3xx_HAL_Driver/Src/stm32f3xx_hal_comp.c ****     {
 941              		.loc 1 764 5 view .LVU249
 764:Drivers/STM32F3xx_HAL_Driver/Src/stm32f3xx_hal_comp.c ****     {
 942              		.loc 1 764 14 is_stmt 0 view .LVU250
 943 0026 93F82910 		ldrb	r1, [r3, #41]	@ zero_extendqisi2
 764:Drivers/STM32F3xx_HAL_Driver/Src/stm32f3xx_hal_comp.c ****     {
 944              		.loc 1 764 8 view .LVU251
 945 002a 0229     		cmp	r1, #2
 946 002c 0FD0     		beq	.L132
 947              	.L128:
 776:Drivers/STM32F3xx_HAL_Driver/Src/stm32f3xx_hal_comp.c ****     }
 948              		.loc 1 776 14 view .LVU252
 949 002e 0120     		movs	r0, #1
 950              	.LVL49:
 780:Drivers/STM32F3xx_HAL_Driver/Src/stm32f3xx_hal_comp.c **** }
 951              		.loc 1 780 3 is_stmt 1 view .LVU253
 780:Drivers/STM32F3xx_HAL_Driver/Src/stm32f3xx_hal_comp.c **** }
 952              		.loc 1 780 3 is_stmt 0 view .LVU254
 953              	.LBE18:
 954              	.LBE17:
 868:Drivers/STM32F3xx_HAL_Driver/Src/stm32f3xx_hal_comp.c **** 
 869:Drivers/STM32F3xx_HAL_Driver/Src/stm32f3xx_hal_comp.c ****   return status;
 955              		.loc 1 869 3 is_stmt 1 view .LVU255
 870:Drivers/STM32F3xx_HAL_Driver/Src/stm32f3xx_hal_comp.c **** }
 956              		.loc 1 870 1 is_stmt 0 view .LVU256
 957 0030 5DF8044B 		ldr	r4, [sp], #4
 958              	.LCFI17:
 959              		.cfi_remember_state
 960              		.cfi_restore 4
 961              		.cfi_def_cfa_offset 0
 962 0034 7047     		bx	lr
 963              	.LVL50:
 964              	.L118:
 965              	.LCFI18:
 966              		.cfi_restore_state
 865:Drivers/STM32F3xx_HAL_Driver/Src/stm32f3xx_hal_comp.c **** 
 967              		.loc 1 865 3 view .LVU257
 968 0036 0468     		ldr	r4, [r0]
 969 0038 6FF08041 		mvn	r1, #1073741824
 970              	.L126:
 865:Drivers/STM32F3xx_HAL_Driver/Src/stm32f3xx_hal_comp.c **** 
 971              		.loc 1 865 3 discriminator 24 view .LVU258
 972 003c 1548     		ldr	r0, .L133+4
 973 003e 2140     		ands	r1, r1, r4
 974 0040 0160     		str	r1, [r0]
 975 0042 EBE7     		b	.L119
 976              	.LVL51:
 977              	.L117:
 865:Drivers/STM32F3xx_HAL_Driver/Src/stm32f3xx_hal_comp.c **** 
 978              		.loc 1 865 3 view .LVU259
 979 0044 1348     		ldr	r0, .L133+4
 980              	.LVL52:
 865:Drivers/STM32F3xx_HAL_Driver/Src/stm32f3xx_hal_comp.c **** 
 981              		.loc 1 865 3 view .LVU260
 982 0046 6FF48001 		mvn	r1, #4194304
 983 004a 0468     		ldr	r4, [r0]
ARM GAS  /var/folders/b1/22c950295gx2kqj80tvj8wqc0000gn/T//ccepvbUo.s 			page 37


 984 004c F6E7     		b	.L126
 985              	.LVL53:
 986              	.L132:
 987              	.LBB25:
 988              	.LBB23:
 989              	.LBB19:
 990              	.LBI19:
 750:Drivers/STM32F3xx_HAL_Driver/Src/stm32f3xx_hal_comp.c **** {
 991              		.loc 1 750 19 is_stmt 1 view .LVU261
 992              	.LBB20:
 767:Drivers/STM32F3xx_HAL_Driver/Src/stm32f3xx_hal_comp.c **** 
 993              		.loc 1 767 7 view .LVU262
 994 004e 1049     		ldr	r1, .L133
 995 0050 8A42     		cmp	r2, r1
 996 0052 18D0     		beq	.L121
 997 0054 0831     		adds	r1, r1, #8
 998 0056 8A42     		cmp	r2, r1
 999 0058 0E4C     		ldr	r4, .L133+4
 1000 005a 0DD0     		beq	.L122
 1001 005c 616A     		ldr	r1, [r4, #36]
 1002 005e 21F00101 		bic	r1, r1, #1
 1003 0062 6162     		str	r1, [r4, #36]
 1004              	.L123:
 770:Drivers/STM32F3xx_HAL_Driver/Src/stm32f3xx_hal_comp.c **** 
 1005              		.loc 1 770 7 view .LVU263
 1006 0064 1168     		ldr	r1, [r2]
 772:Drivers/STM32F3xx_HAL_Driver/Src/stm32f3xx_hal_comp.c ****     }
 1007              		.loc 1 772 20 is_stmt 0 view .LVU264
 1008 0066 0124     		movs	r4, #1
 770:Drivers/STM32F3xx_HAL_Driver/Src/stm32f3xx_hal_comp.c **** 
 1009              		.loc 1 770 7 view .LVU265
 1010 0068 21F00101 		bic	r1, r1, #1
 1011 006c 1160     		str	r1, [r2]
 772:Drivers/STM32F3xx_HAL_Driver/Src/stm32f3xx_hal_comp.c ****     }
 1012              		.loc 1 772 7 is_stmt 1 view .LVU266
 772:Drivers/STM32F3xx_HAL_Driver/Src/stm32f3xx_hal_comp.c ****     }
 1013              		.loc 1 772 20 is_stmt 0 view .LVU267
 1014 006e 83F82940 		strb	r4, [r3, #41]
 1015              	.LVL54:
 780:Drivers/STM32F3xx_HAL_Driver/Src/stm32f3xx_hal_comp.c **** }
 1016              		.loc 1 780 3 is_stmt 1 view .LVU268
 780:Drivers/STM32F3xx_HAL_Driver/Src/stm32f3xx_hal_comp.c **** }
 1017              		.loc 1 780 3 is_stmt 0 view .LVU269
 1018              	.LBE20:
 1019              	.LBE19:
 1020              	.LBE23:
 1021              	.LBE25:
 1022              		.loc 1 870 1 view .LVU270
 1023 0072 5DF8044B 		ldr	r4, [sp], #4
 1024              	.LCFI19:
 1025              		.cfi_remember_state
 1026              		.cfi_restore 4
 1027              		.cfi_def_cfa_offset 0
 1028 0076 7047     		bx	lr
 1029              	.LVL55:
 1030              	.L122:
 1031              	.LCFI20:
ARM GAS  /var/folders/b1/22c950295gx2kqj80tvj8wqc0000gn/T//ccepvbUo.s 			page 38


 1032              		.cfi_restore_state
 1033              	.LBB26:
 1034              	.LBB24:
 1035              	.LBB22:
 1036              	.LBB21:
 767:Drivers/STM32F3xx_HAL_Driver/Src/stm32f3xx_hal_comp.c **** 
 1037              		.loc 1 767 7 view .LVU271
 1038 0078 6468     		ldr	r4, [r4, #4]
 1039 007a 6FF08041 		mvn	r1, #1073741824
 1040              	.L124:
 767:Drivers/STM32F3xx_HAL_Driver/Src/stm32f3xx_hal_comp.c **** 
 1041              		.loc 1 767 7 view .LVU272
 1042 007e 2140     		ands	r1, r1, r4
 1043 0080 044C     		ldr	r4, .L133+4
 1044 0082 6160     		str	r1, [r4, #4]
 1045 0084 EEE7     		b	.L123
 1046              	.L121:
 767:Drivers/STM32F3xx_HAL_Driver/Src/stm32f3xx_hal_comp.c **** 
 1047              		.loc 1 767 7 view .LVU273
 1048 0086 034C     		ldr	r4, .L133+4
 1049 0088 6FF48001 		mvn	r1, #4194304
 1050 008c 6468     		ldr	r4, [r4, #4]
 1051 008e F6E7     		b	.L124
 1052              	.L134:
 1053              		.align	2
 1054              	.L133:
 1055 0090 20000140 		.word	1073807392
 1056 0094 00040140 		.word	1073808384
 1057              	.LBE21:
 1058              	.LBE22:
 1059              	.LBE24:
 1060              	.LBE26:
 1061              		.cfi_endproc
 1062              	.LFE130:
 1064              		.section	.text.HAL_COMP_TriggerCallback,"ax",%progbits
 1065              		.align	1
 1066              		.p2align 2,,3
 1067              		.weak	HAL_COMP_TriggerCallback
 1068              		.syntax unified
 1069              		.thumb
 1070              		.thumb_func
 1072              	HAL_COMP_TriggerCallback:
 1073              	.LFB141:
 1074              		.cfi_startproc
 1075              		@ args = 0, pretend = 0, frame = 0
 1076              		@ frame_needed = 0, uses_anonymous_args = 0
 1077              		@ link register save eliminated.
 1078 0000 7047     		bx	lr
 1079              		.cfi_endproc
 1080              	.LFE141:
 1082 0002 00BF     		.section	.text.HAL_COMP_IRQHandler,"ax",%progbits
 1083              		.align	1
 1084              		.p2align 2,,3
 1085              		.global	HAL_COMP_IRQHandler
 1086              		.syntax unified
 1087              		.thumb
 1088              		.thumb_func
ARM GAS  /var/folders/b1/22c950295gx2kqj80tvj8wqc0000gn/T//ccepvbUo.s 			page 39


 1090              	HAL_COMP_IRQHandler:
 1091              	.LVL56:
 1092              	.LFB131:
 871:Drivers/STM32F3xx_HAL_Driver/Src/stm32f3xx_hal_comp.c **** 
 872:Drivers/STM32F3xx_HAL_Driver/Src/stm32f3xx_hal_comp.c **** /**
 873:Drivers/STM32F3xx_HAL_Driver/Src/stm32f3xx_hal_comp.c ****   * @brief  Comparator IRQ Handler.
 874:Drivers/STM32F3xx_HAL_Driver/Src/stm32f3xx_hal_comp.c ****   * @param  hcomp  COMP handle
 875:Drivers/STM32F3xx_HAL_Driver/Src/stm32f3xx_hal_comp.c ****   * @retval HAL status
 876:Drivers/STM32F3xx_HAL_Driver/Src/stm32f3xx_hal_comp.c ****   */
 877:Drivers/STM32F3xx_HAL_Driver/Src/stm32f3xx_hal_comp.c **** void HAL_COMP_IRQHandler(COMP_HandleTypeDef *hcomp)
 878:Drivers/STM32F3xx_HAL_Driver/Src/stm32f3xx_hal_comp.c **** {
 1093              		.loc 1 878 1 is_stmt 1 view -0
 1094              		.cfi_startproc
 1095              		@ args = 0, pretend = 0, frame = 0
 1096              		@ frame_needed = 0, uses_anonymous_args = 0
 879:Drivers/STM32F3xx_HAL_Driver/Src/stm32f3xx_hal_comp.c ****   uint32_t extiline = COMP_GET_EXTI_LINE(hcomp->Instance);
 1097              		.loc 1 879 3 view .LVU275
 878:Drivers/STM32F3xx_HAL_Driver/Src/stm32f3xx_hal_comp.c ****   uint32_t extiline = COMP_GET_EXTI_LINE(hcomp->Instance);
 1098              		.loc 1 878 1 is_stmt 0 view .LVU276
 1099 0000 08B5     		push	{r3, lr}
 1100              	.LCFI21:
 1101              		.cfi_def_cfa_offset 8
 1102              		.cfi_offset 3, -8
 1103              		.cfi_offset 14, -4
 1104              		.loc 1 879 23 view .LVU277
 1105 0002 0D4A     		ldr	r2, .L148
 1106 0004 0368     		ldr	r3, [r0]
 1107 0006 9342     		cmp	r3, r2
 1108 0008 13D0     		beq	.L143
 1109              		.loc 1 879 23 discriminator 1 view .LVU278
 1110 000a 0832     		adds	r2, r2, #8
 1111 000c 9342     		cmp	r3, r2
 1112 000e 08D0     		beq	.L147
 1113              	.LVL57:
 880:Drivers/STM32F3xx_HAL_Driver/Src/stm32f3xx_hal_comp.c **** 
 881:Drivers/STM32F3xx_HAL_Driver/Src/stm32f3xx_hal_comp.c ****   /* Check COMP EXTI flag */
 882:Drivers/STM32F3xx_HAL_Driver/Src/stm32f3xx_hal_comp.c ****   if (COMP_EXTI_GET_FLAG(extiline) != RESET)
 1114              		.loc 1 882 3 is_stmt 1 view .LVU279
 1115              		.loc 1 882 7 is_stmt 0 view .LVU280
 1116 0010 0A4B     		ldr	r3, .L148+4
 1117 0012 5A6B     		ldr	r2, [r3, #52]
 1118              		.loc 1 882 6 view .LVU281
 1119 0014 D207     		lsls	r2, r2, #31
 1120 0016 03D5     		bpl	.L136
 883:Drivers/STM32F3xx_HAL_Driver/Src/stm32f3xx_hal_comp.c ****   {
 884:Drivers/STM32F3xx_HAL_Driver/Src/stm32f3xx_hal_comp.c ****     /* Clear COMP EXTI pending bit */
 885:Drivers/STM32F3xx_HAL_Driver/Src/stm32f3xx_hal_comp.c ****     COMP_EXTI_CLEAR_FLAG(extiline);
 1121              		.loc 1 885 5 discriminator 1 view .LVU282
 1122 0018 0122     		movs	r2, #1
 1123 001a 5A63     		str	r2, [r3, #52]
 1124              	.LVL58:
 1125              	.L139:
 886:Drivers/STM32F3xx_HAL_Driver/Src/stm32f3xx_hal_comp.c **** 
 887:Drivers/STM32F3xx_HAL_Driver/Src/stm32f3xx_hal_comp.c ****     /* COMP trigger callback */
 888:Drivers/STM32F3xx_HAL_Driver/Src/stm32f3xx_hal_comp.c **** #if (USE_HAL_COMP_REGISTER_CALLBACKS == 1)
 889:Drivers/STM32F3xx_HAL_Driver/Src/stm32f3xx_hal_comp.c ****     hcomp->TriggerCallback(hcomp);
 890:Drivers/STM32F3xx_HAL_Driver/Src/stm32f3xx_hal_comp.c **** #else
ARM GAS  /var/folders/b1/22c950295gx2kqj80tvj8wqc0000gn/T//ccepvbUo.s 			page 40


 891:Drivers/STM32F3xx_HAL_Driver/Src/stm32f3xx_hal_comp.c ****     HAL_COMP_TriggerCallback(hcomp);
 1126              		.loc 1 891 5 is_stmt 1 view .LVU283
 1127 001c FFF7FEFF 		bl	HAL_COMP_TriggerCallback
 1128              	.LVL59:
 1129              	.L136:
 892:Drivers/STM32F3xx_HAL_Driver/Src/stm32f3xx_hal_comp.c **** #endif /* USE_HAL_COMP_REGISTER_CALLBACKS */
 893:Drivers/STM32F3xx_HAL_Driver/Src/stm32f3xx_hal_comp.c ****   }
 894:Drivers/STM32F3xx_HAL_Driver/Src/stm32f3xx_hal_comp.c **** }
 1130              		.loc 1 894 1 is_stmt 0 view .LVU284
 1131 0020 08BD     		pop	{r3, pc}
 1132              	.LVL60:
 1133              	.L147:
 879:Drivers/STM32F3xx_HAL_Driver/Src/stm32f3xx_hal_comp.c **** 
 1134              		.loc 1 879 23 view .LVU285
 1135 0022 4FF08043 		mov	r3, #1073741824
 1136              	.L137:
 1137              	.LVL61:
 882:Drivers/STM32F3xx_HAL_Driver/Src/stm32f3xx_hal_comp.c ****   {
 1138              		.loc 1 882 3 is_stmt 1 view .LVU286
 882:Drivers/STM32F3xx_HAL_Driver/Src/stm32f3xx_hal_comp.c ****   {
 1139              		.loc 1 882 7 is_stmt 0 view .LVU287
 1140 0026 054A     		ldr	r2, .L148+4
 1141 0028 5169     		ldr	r1, [r2, #20]
 882:Drivers/STM32F3xx_HAL_Driver/Src/stm32f3xx_hal_comp.c ****   {
 1142              		.loc 1 882 6 view .LVU288
 1143 002a 1942     		tst	r1, r3
 1144 002c F8D0     		beq	.L136
 885:Drivers/STM32F3xx_HAL_Driver/Src/stm32f3xx_hal_comp.c **** 
 1145              		.loc 1 885 5 discriminator 2 view .LVU289
 1146 002e 5361     		str	r3, [r2, #20]
 1147 0030 F4E7     		b	.L139
 1148              	.LVL62:
 1149              	.L143:
 879:Drivers/STM32F3xx_HAL_Driver/Src/stm32f3xx_hal_comp.c **** 
 1150              		.loc 1 879 23 view .LVU290
 1151 0032 4FF48003 		mov	r3, #4194304
 1152 0036 F6E7     		b	.L137
 1153              	.L149:
 1154              		.align	2
 1155              	.L148:
 1156 0038 20000140 		.word	1073807392
 1157 003c 00040140 		.word	1073808384
 1158              		.cfi_endproc
 1159              	.LFE131:
 1161              		.section	.text.HAL_COMP_Lock,"ax",%progbits
 1162              		.align	1
 1163              		.p2align 2,,3
 1164              		.global	HAL_COMP_Lock
 1165              		.syntax unified
 1166              		.thumb
 1167              		.thumb_func
 1169              	HAL_COMP_Lock:
 1170              	.LVL63:
 1171              	.LFB133:
 895:Drivers/STM32F3xx_HAL_Driver/Src/stm32f3xx_hal_comp.c **** 
 896:Drivers/STM32F3xx_HAL_Driver/Src/stm32f3xx_hal_comp.c **** /**
 897:Drivers/STM32F3xx_HAL_Driver/Src/stm32f3xx_hal_comp.c ****   * @brief  Comparator trigger callback.
ARM GAS  /var/folders/b1/22c950295gx2kqj80tvj8wqc0000gn/T//ccepvbUo.s 			page 41


 898:Drivers/STM32F3xx_HAL_Driver/Src/stm32f3xx_hal_comp.c ****   * @param  hcomp  COMP handle
 899:Drivers/STM32F3xx_HAL_Driver/Src/stm32f3xx_hal_comp.c ****   * @retval None
 900:Drivers/STM32F3xx_HAL_Driver/Src/stm32f3xx_hal_comp.c ****   */
 901:Drivers/STM32F3xx_HAL_Driver/Src/stm32f3xx_hal_comp.c **** __weak void HAL_COMP_TriggerCallback(COMP_HandleTypeDef *hcomp)
 902:Drivers/STM32F3xx_HAL_Driver/Src/stm32f3xx_hal_comp.c **** {
 903:Drivers/STM32F3xx_HAL_Driver/Src/stm32f3xx_hal_comp.c ****   /* Prevent unused argument(s) compilation warning */
 904:Drivers/STM32F3xx_HAL_Driver/Src/stm32f3xx_hal_comp.c ****   UNUSED(hcomp);
 905:Drivers/STM32F3xx_HAL_Driver/Src/stm32f3xx_hal_comp.c **** 
 906:Drivers/STM32F3xx_HAL_Driver/Src/stm32f3xx_hal_comp.c ****   /* NOTE : This function should not be modified, when the callback is needed,
 907:Drivers/STM32F3xx_HAL_Driver/Src/stm32f3xx_hal_comp.c ****             the HAL_COMP_TriggerCallback should be implemented in the user file
 908:Drivers/STM32F3xx_HAL_Driver/Src/stm32f3xx_hal_comp.c ****    */
 909:Drivers/STM32F3xx_HAL_Driver/Src/stm32f3xx_hal_comp.c **** }
 910:Drivers/STM32F3xx_HAL_Driver/Src/stm32f3xx_hal_comp.c **** 
 911:Drivers/STM32F3xx_HAL_Driver/Src/stm32f3xx_hal_comp.c **** /**
 912:Drivers/STM32F3xx_HAL_Driver/Src/stm32f3xx_hal_comp.c ****   * @}
 913:Drivers/STM32F3xx_HAL_Driver/Src/stm32f3xx_hal_comp.c ****   */
 914:Drivers/STM32F3xx_HAL_Driver/Src/stm32f3xx_hal_comp.c **** 
 915:Drivers/STM32F3xx_HAL_Driver/Src/stm32f3xx_hal_comp.c **** /** @defgroup COMP_Exported_Functions_Group3 Peripheral Control functions
 916:Drivers/STM32F3xx_HAL_Driver/Src/stm32f3xx_hal_comp.c ****  *  @brief   Management functions.
 917:Drivers/STM32F3xx_HAL_Driver/Src/stm32f3xx_hal_comp.c ****  *
 918:Drivers/STM32F3xx_HAL_Driver/Src/stm32f3xx_hal_comp.c **** @verbatim
 919:Drivers/STM32F3xx_HAL_Driver/Src/stm32f3xx_hal_comp.c ****  ===============================================================================
 920:Drivers/STM32F3xx_HAL_Driver/Src/stm32f3xx_hal_comp.c ****                       ##### Peripheral Control functions #####
 921:Drivers/STM32F3xx_HAL_Driver/Src/stm32f3xx_hal_comp.c ****  ===============================================================================
 922:Drivers/STM32F3xx_HAL_Driver/Src/stm32f3xx_hal_comp.c ****     [..]
 923:Drivers/STM32F3xx_HAL_Driver/Src/stm32f3xx_hal_comp.c ****     This subsection provides a set of functions allowing to control the comparators.
 924:Drivers/STM32F3xx_HAL_Driver/Src/stm32f3xx_hal_comp.c **** 
 925:Drivers/STM32F3xx_HAL_Driver/Src/stm32f3xx_hal_comp.c **** @endverbatim
 926:Drivers/STM32F3xx_HAL_Driver/Src/stm32f3xx_hal_comp.c ****   * @{
 927:Drivers/STM32F3xx_HAL_Driver/Src/stm32f3xx_hal_comp.c ****   */
 928:Drivers/STM32F3xx_HAL_Driver/Src/stm32f3xx_hal_comp.c **** 
 929:Drivers/STM32F3xx_HAL_Driver/Src/stm32f3xx_hal_comp.c **** /**
 930:Drivers/STM32F3xx_HAL_Driver/Src/stm32f3xx_hal_comp.c ****   * @brief  Lock the selected comparator configuration.
 931:Drivers/STM32F3xx_HAL_Driver/Src/stm32f3xx_hal_comp.c ****   * @note   A system reset is required to unlock the comparator configuration.
 932:Drivers/STM32F3xx_HAL_Driver/Src/stm32f3xx_hal_comp.c ****   * @param  hcomp  COMP handle
 933:Drivers/STM32F3xx_HAL_Driver/Src/stm32f3xx_hal_comp.c ****   * @retval HAL status
 934:Drivers/STM32F3xx_HAL_Driver/Src/stm32f3xx_hal_comp.c ****   */
 935:Drivers/STM32F3xx_HAL_Driver/Src/stm32f3xx_hal_comp.c **** HAL_StatusTypeDef HAL_COMP_Lock(COMP_HandleTypeDef *hcomp)
 936:Drivers/STM32F3xx_HAL_Driver/Src/stm32f3xx_hal_comp.c **** {
 1172              		.loc 1 936 1 is_stmt 1 view -0
 1173              		.cfi_startproc
 1174              		@ args = 0, pretend = 0, frame = 0
 1175              		@ frame_needed = 0, uses_anonymous_args = 0
 1176              		@ link register save eliminated.
 937:Drivers/STM32F3xx_HAL_Driver/Src/stm32f3xx_hal_comp.c ****   HAL_StatusTypeDef status = HAL_OK;
 1177              		.loc 1 937 3 view .LVU292
 938:Drivers/STM32F3xx_HAL_Driver/Src/stm32f3xx_hal_comp.c **** 
 939:Drivers/STM32F3xx_HAL_Driver/Src/stm32f3xx_hal_comp.c ****   /* Check the COMP handle allocation and lock status */
 940:Drivers/STM32F3xx_HAL_Driver/Src/stm32f3xx_hal_comp.c ****   if ((hcomp == NULL) || ((hcomp->State & COMP_STATE_BIT_LOCK) != RESET))
 1178              		.loc 1 940 3 view .LVU293
 1179              		.loc 1 940 6 is_stmt 0 view .LVU294
 1180 0000 20B1     		cbz	r0, .L156
 1181              		.loc 1 940 33 discriminator 1 view .LVU295
 1182 0002 90F82930 		ldrb	r3, [r0, #41]	@ zero_extendqisi2
 1183              		.loc 1 940 23 discriminator 1 view .LVU296
 1184 0006 13F01003 		ands	r3, r3, #16
 1185 000a 02D0     		beq	.L157
ARM GAS  /var/folders/b1/22c950295gx2kqj80tvj8wqc0000gn/T//ccepvbUo.s 			page 42


 1186              	.L156:
 941:Drivers/STM32F3xx_HAL_Driver/Src/stm32f3xx_hal_comp.c ****   {
 942:Drivers/STM32F3xx_HAL_Driver/Src/stm32f3xx_hal_comp.c ****     status = HAL_ERROR;
 943:Drivers/STM32F3xx_HAL_Driver/Src/stm32f3xx_hal_comp.c ****   }
 944:Drivers/STM32F3xx_HAL_Driver/Src/stm32f3xx_hal_comp.c ****   else
 945:Drivers/STM32F3xx_HAL_Driver/Src/stm32f3xx_hal_comp.c ****   {
 946:Drivers/STM32F3xx_HAL_Driver/Src/stm32f3xx_hal_comp.c ****     /* Check the parameter */
 947:Drivers/STM32F3xx_HAL_Driver/Src/stm32f3xx_hal_comp.c ****     assert_param(IS_COMP_ALL_INSTANCE(hcomp->Instance));
 948:Drivers/STM32F3xx_HAL_Driver/Src/stm32f3xx_hal_comp.c **** 
 949:Drivers/STM32F3xx_HAL_Driver/Src/stm32f3xx_hal_comp.c ****     /* Set lock flag on state */
 950:Drivers/STM32F3xx_HAL_Driver/Src/stm32f3xx_hal_comp.c ****     switch (hcomp->State)
 1187              		.loc 1 950 5 view .LVU297
 1188 000c 0123     		movs	r3, #1
 1189              	.LVL64:
 951:Drivers/STM32F3xx_HAL_Driver/Src/stm32f3xx_hal_comp.c ****     {
 952:Drivers/STM32F3xx_HAL_Driver/Src/stm32f3xx_hal_comp.c ****       case HAL_COMP_STATE_BUSY:
 953:Drivers/STM32F3xx_HAL_Driver/Src/stm32f3xx_hal_comp.c ****         hcomp->State = HAL_COMP_STATE_BUSY_LOCKED;
 954:Drivers/STM32F3xx_HAL_Driver/Src/stm32f3xx_hal_comp.c ****         break;
 955:Drivers/STM32F3xx_HAL_Driver/Src/stm32f3xx_hal_comp.c ****       case HAL_COMP_STATE_READY:
 956:Drivers/STM32F3xx_HAL_Driver/Src/stm32f3xx_hal_comp.c ****         hcomp->State = HAL_COMP_STATE_READY_LOCKED;
 957:Drivers/STM32F3xx_HAL_Driver/Src/stm32f3xx_hal_comp.c ****         break;
 958:Drivers/STM32F3xx_HAL_Driver/Src/stm32f3xx_hal_comp.c ****       default:
 959:Drivers/STM32F3xx_HAL_Driver/Src/stm32f3xx_hal_comp.c ****         /* unexpected state */
 960:Drivers/STM32F3xx_HAL_Driver/Src/stm32f3xx_hal_comp.c ****         status = HAL_ERROR;
 961:Drivers/STM32F3xx_HAL_Driver/Src/stm32f3xx_hal_comp.c ****         break;
 962:Drivers/STM32F3xx_HAL_Driver/Src/stm32f3xx_hal_comp.c ****     }
 963:Drivers/STM32F3xx_HAL_Driver/Src/stm32f3xx_hal_comp.c ****   }
 964:Drivers/STM32F3xx_HAL_Driver/Src/stm32f3xx_hal_comp.c **** 
 965:Drivers/STM32F3xx_HAL_Driver/Src/stm32f3xx_hal_comp.c ****   if (status == HAL_OK)
 966:Drivers/STM32F3xx_HAL_Driver/Src/stm32f3xx_hal_comp.c ****   {
 967:Drivers/STM32F3xx_HAL_Driver/Src/stm32f3xx_hal_comp.c ****     /* Set the lock bit corresponding to selected comparator */
 968:Drivers/STM32F3xx_HAL_Driver/Src/stm32f3xx_hal_comp.c ****     __HAL_COMP_LOCK(hcomp);
 969:Drivers/STM32F3xx_HAL_Driver/Src/stm32f3xx_hal_comp.c ****   }
 970:Drivers/STM32F3xx_HAL_Driver/Src/stm32f3xx_hal_comp.c **** 
 971:Drivers/STM32F3xx_HAL_Driver/Src/stm32f3xx_hal_comp.c ****   return status;
 1190              		.loc 1 971 3 is_stmt 1 view .LVU298
 972:Drivers/STM32F3xx_HAL_Driver/Src/stm32f3xx_hal_comp.c **** }
 1191              		.loc 1 972 1 is_stmt 0 view .LVU299
 1192 000e 1846     		mov	r0, r3
 1193              	.LVL65:
 1194              		.loc 1 972 1 view .LVU300
 1195 0010 7047     		bx	lr
 1196              	.LVL66:
 1197              	.L157:
 947:Drivers/STM32F3xx_HAL_Driver/Src/stm32f3xx_hal_comp.c **** 
 1198              		.loc 1 947 5 is_stmt 1 view .LVU301
 950:Drivers/STM32F3xx_HAL_Driver/Src/stm32f3xx_hal_comp.c ****     {
 1199              		.loc 1 950 5 view .LVU302
 950:Drivers/STM32F3xx_HAL_Driver/Src/stm32f3xx_hal_comp.c ****     {
 1200              		.loc 1 950 18 is_stmt 0 view .LVU303
 1201 0012 90F82920 		ldrb	r2, [r0, #41]	@ zero_extendqisi2
 950:Drivers/STM32F3xx_HAL_Driver/Src/stm32f3xx_hal_comp.c ****     {
 1202              		.loc 1 950 5 view .LVU304
 1203 0016 012A     		cmp	r2, #1
 950:Drivers/STM32F3xx_HAL_Driver/Src/stm32f3xx_hal_comp.c ****     {
 1204              		.loc 1 950 18 view .LVU305
 1205 0018 D1B2     		uxtb	r1, r2
ARM GAS  /var/folders/b1/22c950295gx2kqj80tvj8wqc0000gn/T//ccepvbUo.s 			page 43


 950:Drivers/STM32F3xx_HAL_Driver/Src/stm32f3xx_hal_comp.c ****     {
 1206              		.loc 1 950 5 view .LVU306
 1207 001a 0BD0     		beq	.L152
 1208 001c 0229     		cmp	r1, #2
 1209 001e F5D1     		bne	.L156
 953:Drivers/STM32F3xx_HAL_Driver/Src/stm32f3xx_hal_comp.c ****         break;
 1210              		.loc 1 953 9 is_stmt 1 view .LVU307
 953:Drivers/STM32F3xx_HAL_Driver/Src/stm32f3xx_hal_comp.c ****         break;
 1211              		.loc 1 953 22 is_stmt 0 view .LVU308
 1212 0020 1222     		movs	r2, #18
 1213 0022 80F82920 		strb	r2, [r0, #41]
 954:Drivers/STM32F3xx_HAL_Driver/Src/stm32f3xx_hal_comp.c ****       case HAL_COMP_STATE_READY:
 1214              		.loc 1 954 9 is_stmt 1 view .LVU309
 965:Drivers/STM32F3xx_HAL_Driver/Src/stm32f3xx_hal_comp.c ****   {
 1215              		.loc 1 965 3 view .LVU310
 1216              	.L153:
 968:Drivers/STM32F3xx_HAL_Driver/Src/stm32f3xx_hal_comp.c ****   }
 1217              		.loc 1 968 5 view .LVU311
 1218 0026 0168     		ldr	r1, [r0]
 1219 0028 0A68     		ldr	r2, [r1]
 1220 002a 42F00042 		orr	r2, r2, #-2147483648
 1221 002e 0A60     		str	r2, [r1]
 1222              	.LVL67:
 971:Drivers/STM32F3xx_HAL_Driver/Src/stm32f3xx_hal_comp.c **** }
 1223              		.loc 1 971 3 view .LVU312
 1224              		.loc 1 972 1 is_stmt 0 view .LVU313
 1225 0030 1846     		mov	r0, r3
 1226              	.LVL68:
 1227              		.loc 1 972 1 view .LVU314
 1228 0032 7047     		bx	lr
 1229              	.LVL69:
 1230              	.L152:
 956:Drivers/STM32F3xx_HAL_Driver/Src/stm32f3xx_hal_comp.c ****         break;
 1231              		.loc 1 956 9 is_stmt 1 view .LVU315
 956:Drivers/STM32F3xx_HAL_Driver/Src/stm32f3xx_hal_comp.c ****         break;
 1232              		.loc 1 956 22 is_stmt 0 view .LVU316
 1233 0034 1122     		movs	r2, #17
 1234 0036 80F82920 		strb	r2, [r0, #41]
 957:Drivers/STM32F3xx_HAL_Driver/Src/stm32f3xx_hal_comp.c ****       default:
 1235              		.loc 1 957 9 is_stmt 1 view .LVU317
 965:Drivers/STM32F3xx_HAL_Driver/Src/stm32f3xx_hal_comp.c ****   {
 1236              		.loc 1 965 3 view .LVU318
 1237 003a F4E7     		b	.L153
 1238              		.cfi_endproc
 1239              	.LFE133:
 1241              		.section	.text.HAL_COMP_GetOutputLevel,"ax",%progbits
 1242              		.align	1
 1243              		.p2align 2,,3
 1244              		.global	HAL_COMP_GetOutputLevel
 1245              		.syntax unified
 1246              		.thumb
 1247              		.thumb_func
 1249              	HAL_COMP_GetOutputLevel:
 1250              	.LVL70:
 1251              	.LFB134:
 973:Drivers/STM32F3xx_HAL_Driver/Src/stm32f3xx_hal_comp.c **** 
 974:Drivers/STM32F3xx_HAL_Driver/Src/stm32f3xx_hal_comp.c **** /**
ARM GAS  /var/folders/b1/22c950295gx2kqj80tvj8wqc0000gn/T//ccepvbUo.s 			page 44


 975:Drivers/STM32F3xx_HAL_Driver/Src/stm32f3xx_hal_comp.c ****   * @brief  Return the output level (high or low) of the selected comparator.
 976:Drivers/STM32F3xx_HAL_Driver/Src/stm32f3xx_hal_comp.c ****   *         The output level depends on the selected polarity.
 977:Drivers/STM32F3xx_HAL_Driver/Src/stm32f3xx_hal_comp.c ****   *         If the polarity is not inverted:
 978:Drivers/STM32F3xx_HAL_Driver/Src/stm32f3xx_hal_comp.c ****   *           - Comparator output is low when the non-inverting input is at a lower
 979:Drivers/STM32F3xx_HAL_Driver/Src/stm32f3xx_hal_comp.c ****   *             voltage than the inverting input
 980:Drivers/STM32F3xx_HAL_Driver/Src/stm32f3xx_hal_comp.c ****   *           - Comparator output is high when the non-inverting input is at a higher
 981:Drivers/STM32F3xx_HAL_Driver/Src/stm32f3xx_hal_comp.c ****   *             voltage than the inverting input
 982:Drivers/STM32F3xx_HAL_Driver/Src/stm32f3xx_hal_comp.c ****   *         If the polarity is inverted:
 983:Drivers/STM32F3xx_HAL_Driver/Src/stm32f3xx_hal_comp.c ****   *           - Comparator output is high when the non-inverting input is at a lower
 984:Drivers/STM32F3xx_HAL_Driver/Src/stm32f3xx_hal_comp.c ****   *             voltage than the inverting input
 985:Drivers/STM32F3xx_HAL_Driver/Src/stm32f3xx_hal_comp.c ****   *           - Comparator output is low when the non-inverting input is at a higher
 986:Drivers/STM32F3xx_HAL_Driver/Src/stm32f3xx_hal_comp.c ****   *             voltage than the inverting input
 987:Drivers/STM32F3xx_HAL_Driver/Src/stm32f3xx_hal_comp.c ****   * @param  hcomp  COMP handle
 988:Drivers/STM32F3xx_HAL_Driver/Src/stm32f3xx_hal_comp.c ****   * @retval Returns the selected comparator output level:
 989:Drivers/STM32F3xx_HAL_Driver/Src/stm32f3xx_hal_comp.c ****   *         @arg @ref COMP_OUTPUTLEVEL_LOW
 990:Drivers/STM32F3xx_HAL_Driver/Src/stm32f3xx_hal_comp.c ****   *         @arg @ref COMP_OUTPUTLEVEL_HIGH
 991:Drivers/STM32F3xx_HAL_Driver/Src/stm32f3xx_hal_comp.c ****   *
 992:Drivers/STM32F3xx_HAL_Driver/Src/stm32f3xx_hal_comp.c ****   */
 993:Drivers/STM32F3xx_HAL_Driver/Src/stm32f3xx_hal_comp.c **** uint32_t HAL_COMP_GetOutputLevel(COMP_HandleTypeDef *hcomp)
 994:Drivers/STM32F3xx_HAL_Driver/Src/stm32f3xx_hal_comp.c **** {
 1252              		.loc 1 994 1 view -0
 1253              		.cfi_startproc
 1254              		@ args = 0, pretend = 0, frame = 0
 1255              		@ frame_needed = 0, uses_anonymous_args = 0
 1256              		@ link register save eliminated.
 995:Drivers/STM32F3xx_HAL_Driver/Src/stm32f3xx_hal_comp.c ****   uint32_t level = 0U;
 1257              		.loc 1 995 3 view .LVU320
 996:Drivers/STM32F3xx_HAL_Driver/Src/stm32f3xx_hal_comp.c **** 
 997:Drivers/STM32F3xx_HAL_Driver/Src/stm32f3xx_hal_comp.c ****   /* Check the parameter */
 998:Drivers/STM32F3xx_HAL_Driver/Src/stm32f3xx_hal_comp.c ****   assert_param(IS_COMP_ALL_INSTANCE(hcomp->Instance));
 1258              		.loc 1 998 3 view .LVU321
 999:Drivers/STM32F3xx_HAL_Driver/Src/stm32f3xx_hal_comp.c **** 
1000:Drivers/STM32F3xx_HAL_Driver/Src/stm32f3xx_hal_comp.c ****   level = READ_BIT(hcomp->Instance->CSR, COMP_CSR_COMPxOUT);
 1259              		.loc 1 1000 3 view .LVU322
 1260              		.loc 1 1000 11 is_stmt 0 view .LVU323
 1261 0000 0368     		ldr	r3, [r0]
 1262 0002 1868     		ldr	r0, [r3]
 1263              	.LVL71:
1001:Drivers/STM32F3xx_HAL_Driver/Src/stm32f3xx_hal_comp.c **** 
1002:Drivers/STM32F3xx_HAL_Driver/Src/stm32f3xx_hal_comp.c ****   if (level != 0U)
 1264              		.loc 1 1002 3 is_stmt 1 view .LVU324
1003:Drivers/STM32F3xx_HAL_Driver/Src/stm32f3xx_hal_comp.c ****   {
1004:Drivers/STM32F3xx_HAL_Driver/Src/stm32f3xx_hal_comp.c ****     return (COMP_OUTPUTLEVEL_HIGH);
1005:Drivers/STM32F3xx_HAL_Driver/Src/stm32f3xx_hal_comp.c ****   }
1006:Drivers/STM32F3xx_HAL_Driver/Src/stm32f3xx_hal_comp.c ****   return (COMP_OUTPUTLEVEL_LOW);
1007:Drivers/STM32F3xx_HAL_Driver/Src/stm32f3xx_hal_comp.c **** }
 1265              		.loc 1 1007 1 is_stmt 0 view .LVU325
 1266 0004 00F08040 		and	r0, r0, #1073741824
 1267              	.LVL72:
 1268              		.loc 1 1007 1 view .LVU326
 1269 0008 7047     		bx	lr
 1270              		.cfi_endproc
 1271              	.LFE134:
 1273 000a 00BF     		.section	.text.HAL_COMP_GetState,"ax",%progbits
 1274              		.align	1
 1275              		.p2align 2,,3
 1276              		.global	HAL_COMP_GetState
ARM GAS  /var/folders/b1/22c950295gx2kqj80tvj8wqc0000gn/T//ccepvbUo.s 			page 45


 1277              		.syntax unified
 1278              		.thumb
 1279              		.thumb_func
 1281              	HAL_COMP_GetState:
 1282              	.LVL73:
 1283              	.LFB135:
1008:Drivers/STM32F3xx_HAL_Driver/Src/stm32f3xx_hal_comp.c **** 
1009:Drivers/STM32F3xx_HAL_Driver/Src/stm32f3xx_hal_comp.c **** /**
1010:Drivers/STM32F3xx_HAL_Driver/Src/stm32f3xx_hal_comp.c ****   * @}
1011:Drivers/STM32F3xx_HAL_Driver/Src/stm32f3xx_hal_comp.c ****   */
1012:Drivers/STM32F3xx_HAL_Driver/Src/stm32f3xx_hal_comp.c **** 
1013:Drivers/STM32F3xx_HAL_Driver/Src/stm32f3xx_hal_comp.c **** /** @defgroup COMP_Exported_Functions_Group4 Peripheral State functions
1014:Drivers/STM32F3xx_HAL_Driver/Src/stm32f3xx_hal_comp.c ****  *  @brief   Peripheral State functions.
1015:Drivers/STM32F3xx_HAL_Driver/Src/stm32f3xx_hal_comp.c ****  *
1016:Drivers/STM32F3xx_HAL_Driver/Src/stm32f3xx_hal_comp.c **** @verbatim
1017:Drivers/STM32F3xx_HAL_Driver/Src/stm32f3xx_hal_comp.c ****  ===============================================================================
1018:Drivers/STM32F3xx_HAL_Driver/Src/stm32f3xx_hal_comp.c ****                       ##### Peripheral State functions #####
1019:Drivers/STM32F3xx_HAL_Driver/Src/stm32f3xx_hal_comp.c ****  ===============================================================================
1020:Drivers/STM32F3xx_HAL_Driver/Src/stm32f3xx_hal_comp.c ****     [..]
1021:Drivers/STM32F3xx_HAL_Driver/Src/stm32f3xx_hal_comp.c ****     This subsection permits to get in run-time the status of the peripheral.
1022:Drivers/STM32F3xx_HAL_Driver/Src/stm32f3xx_hal_comp.c **** 
1023:Drivers/STM32F3xx_HAL_Driver/Src/stm32f3xx_hal_comp.c **** @endverbatim
1024:Drivers/STM32F3xx_HAL_Driver/Src/stm32f3xx_hal_comp.c ****   * @{
1025:Drivers/STM32F3xx_HAL_Driver/Src/stm32f3xx_hal_comp.c ****   */
1026:Drivers/STM32F3xx_HAL_Driver/Src/stm32f3xx_hal_comp.c **** 
1027:Drivers/STM32F3xx_HAL_Driver/Src/stm32f3xx_hal_comp.c **** /**
1028:Drivers/STM32F3xx_HAL_Driver/Src/stm32f3xx_hal_comp.c ****   * @brief  Return the COMP handle state.
1029:Drivers/STM32F3xx_HAL_Driver/Src/stm32f3xx_hal_comp.c ****   * @param  hcomp  COMP handle
1030:Drivers/STM32F3xx_HAL_Driver/Src/stm32f3xx_hal_comp.c ****   * @retval HAL state
1031:Drivers/STM32F3xx_HAL_Driver/Src/stm32f3xx_hal_comp.c ****   */
1032:Drivers/STM32F3xx_HAL_Driver/Src/stm32f3xx_hal_comp.c **** HAL_COMP_StateTypeDef HAL_COMP_GetState(COMP_HandleTypeDef *hcomp)
1033:Drivers/STM32F3xx_HAL_Driver/Src/stm32f3xx_hal_comp.c **** {
 1284              		.loc 1 1033 1 is_stmt 1 view -0
 1285              		.cfi_startproc
 1286              		@ args = 0, pretend = 0, frame = 0
 1287              		@ frame_needed = 0, uses_anonymous_args = 0
 1288              		@ link register save eliminated.
1034:Drivers/STM32F3xx_HAL_Driver/Src/stm32f3xx_hal_comp.c ****   /* Check the COMP handle allocation */
1035:Drivers/STM32F3xx_HAL_Driver/Src/stm32f3xx_hal_comp.c ****   if (hcomp == NULL)
 1289              		.loc 1 1035 3 view .LVU328
 1290              		.loc 1 1035 6 is_stmt 0 view .LVU329
 1291 0000 10B1     		cbz	r0, .L160
1036:Drivers/STM32F3xx_HAL_Driver/Src/stm32f3xx_hal_comp.c ****   {
1037:Drivers/STM32F3xx_HAL_Driver/Src/stm32f3xx_hal_comp.c ****     return HAL_COMP_STATE_RESET;
1038:Drivers/STM32F3xx_HAL_Driver/Src/stm32f3xx_hal_comp.c ****   }
1039:Drivers/STM32F3xx_HAL_Driver/Src/stm32f3xx_hal_comp.c **** 
1040:Drivers/STM32F3xx_HAL_Driver/Src/stm32f3xx_hal_comp.c ****   /* Check the parameter */
1041:Drivers/STM32F3xx_HAL_Driver/Src/stm32f3xx_hal_comp.c ****   assert_param(IS_COMP_ALL_INSTANCE(hcomp->Instance));
 1292              		.loc 1 1041 3 is_stmt 1 view .LVU330
1042:Drivers/STM32F3xx_HAL_Driver/Src/stm32f3xx_hal_comp.c **** 
1043:Drivers/STM32F3xx_HAL_Driver/Src/stm32f3xx_hal_comp.c ****   /* Return COMP handle state */
1044:Drivers/STM32F3xx_HAL_Driver/Src/stm32f3xx_hal_comp.c ****   return hcomp->State;
 1293              		.loc 1 1044 3 view .LVU331
 1294              		.loc 1 1044 15 is_stmt 0 view .LVU332
 1295 0002 90F82900 		ldrb	r0, [r0, #41]	@ zero_extendqisi2
 1296              	.LVL74:
 1297              		.loc 1 1044 15 view .LVU333
ARM GAS  /var/folders/b1/22c950295gx2kqj80tvj8wqc0000gn/T//ccepvbUo.s 			page 46


 1298 0006 C0B2     		uxtb	r0, r0
 1299              	.L160:
1045:Drivers/STM32F3xx_HAL_Driver/Src/stm32f3xx_hal_comp.c **** }
 1300              		.loc 1 1045 1 view .LVU334
 1301 0008 7047     		bx	lr
 1302              		.cfi_endproc
 1303              	.LFE135:
 1305 000a 00BF     		.section	.text.HAL_COMP_GetError,"ax",%progbits
 1306              		.align	1
 1307              		.p2align 2,,3
 1308              		.global	HAL_COMP_GetError
 1309              		.syntax unified
 1310              		.thumb
 1311              		.thumb_func
 1313              	HAL_COMP_GetError:
 1314              	.LVL75:
 1315              	.LFB136:
1046:Drivers/STM32F3xx_HAL_Driver/Src/stm32f3xx_hal_comp.c **** 
1047:Drivers/STM32F3xx_HAL_Driver/Src/stm32f3xx_hal_comp.c **** /**
1048:Drivers/STM32F3xx_HAL_Driver/Src/stm32f3xx_hal_comp.c ****   * @brief  Return the COMP error code.
1049:Drivers/STM32F3xx_HAL_Driver/Src/stm32f3xx_hal_comp.c ****   * @param hcomp COMP handle
1050:Drivers/STM32F3xx_HAL_Driver/Src/stm32f3xx_hal_comp.c ****   * @retval COMP error code
1051:Drivers/STM32F3xx_HAL_Driver/Src/stm32f3xx_hal_comp.c ****   */
1052:Drivers/STM32F3xx_HAL_Driver/Src/stm32f3xx_hal_comp.c **** uint32_t HAL_COMP_GetError(COMP_HandleTypeDef *hcomp)
1053:Drivers/STM32F3xx_HAL_Driver/Src/stm32f3xx_hal_comp.c **** {
 1316              		.loc 1 1053 1 is_stmt 1 view -0
 1317              		.cfi_startproc
 1318              		@ args = 0, pretend = 0, frame = 0
 1319              		@ frame_needed = 0, uses_anonymous_args = 0
 1320              		@ link register save eliminated.
1054:Drivers/STM32F3xx_HAL_Driver/Src/stm32f3xx_hal_comp.c ****   /* Check the parameters */
1055:Drivers/STM32F3xx_HAL_Driver/Src/stm32f3xx_hal_comp.c ****   assert_param(IS_COMP_ALL_INSTANCE(hcomp->Instance));
 1321              		.loc 1 1055 3 view .LVU336
1056:Drivers/STM32F3xx_HAL_Driver/Src/stm32f3xx_hal_comp.c ****   
1057:Drivers/STM32F3xx_HAL_Driver/Src/stm32f3xx_hal_comp.c ****   return hcomp->ErrorCode;
 1322              		.loc 1 1057 3 view .LVU337
 1323              		.loc 1 1057 15 is_stmt 0 view .LVU338
 1324 0000 C06A     		ldr	r0, [r0, #44]
 1325              	.LVL76:
1058:Drivers/STM32F3xx_HAL_Driver/Src/stm32f3xx_hal_comp.c **** }
 1326              		.loc 1 1058 1 view .LVU339
 1327 0002 7047     		bx	lr
 1328              		.cfi_endproc
 1329              	.LFE136:
 1331              		.text
 1332              	.Letext0:
 1333              		.file 2 "/Applications/ArmGNUToolchain/11.3.rel1/arm-none-eabi/arm-none-eabi/include/machine/_defa
 1334              		.file 3 "/Applications/ArmGNUToolchain/11.3.rel1/arm-none-eabi/arm-none-eabi/include/sys/_stdint.h
 1335              		.file 4 "Drivers/CMSIS/Device/ST/STM32F3xx/Include/stm32f334x8.h"
 1336              		.file 5 "Drivers/CMSIS/Device/ST/STM32F3xx/Include/stm32f3xx.h"
 1337              		.file 6 "Drivers/STM32F3xx_HAL_Driver/Inc/stm32f3xx_hal_def.h"
 1338              		.file 7 "Drivers/STM32F3xx_HAL_Driver/Inc/stm32f3xx_hal_comp.h"
ARM GAS  /var/folders/b1/22c950295gx2kqj80tvj8wqc0000gn/T//ccepvbUo.s 			page 47

