ARM GAS  /var/folders/b1/22c950295gx2kqj80tvj8wqc0000gn/T//ccykJ5HB.s 			page 1


   1              		.cpu cortex-m4
   2              		.arch armv7e-m
   3              		.fpu fpv4-sp-d16
   4              		.eabi_attribute 27, 1
   5              		.eabi_attribute 28, 1
   6              		.eabi_attribute 20, 1
   7              		.eabi_attribute 21, 1
   8              		.eabi_attribute 23, 3
   9              		.eabi_attribute 24, 1
  10              		.eabi_attribute 25, 1
  11              		.eabi_attribute 26, 1
  12              		.eabi_attribute 30, 2
  13              		.eabi_attribute 34, 1
  14              		.eabi_attribute 18, 4
  15              		.file	"stm32f3xx_hal_rcc.c"
  16              		.text
  17              	.Ltext0:
  18              		.cfi_sections	.debug_frame
  19              		.section	.text.HAL_RCC_DeInit,"ax",%progbits
  20              		.align	1
  21              		.p2align 2,,3
  22              		.global	HAL_RCC_DeInit
  23              		.syntax unified
  24              		.thumb
  25              		.thumb_func
  27              	HAL_RCC_DeInit:
  28              	.LFB123:
  29              		.file 1 "Drivers/STM32F3xx_HAL_Driver/Src/stm32f3xx_hal_rcc.c"
   1:Drivers/STM32F3xx_HAL_Driver/Src/stm32f3xx_hal_rcc.c **** /**
   2:Drivers/STM32F3xx_HAL_Driver/Src/stm32f3xx_hal_rcc.c ****   ******************************************************************************
   3:Drivers/STM32F3xx_HAL_Driver/Src/stm32f3xx_hal_rcc.c ****   * @file    stm32f3xx_hal_rcc.c
   4:Drivers/STM32F3xx_HAL_Driver/Src/stm32f3xx_hal_rcc.c ****   * @author  MCD Application Team
   5:Drivers/STM32F3xx_HAL_Driver/Src/stm32f3xx_hal_rcc.c ****   * @brief   RCC HAL module driver.
   6:Drivers/STM32F3xx_HAL_Driver/Src/stm32f3xx_hal_rcc.c ****   *          This file provides firmware functions to manage the following 
   7:Drivers/STM32F3xx_HAL_Driver/Src/stm32f3xx_hal_rcc.c ****   *          functionalities of the Reset and Clock Control (RCC) peripheral:
   8:Drivers/STM32F3xx_HAL_Driver/Src/stm32f3xx_hal_rcc.c ****   *           + Initialization and de-initialization functions
   9:Drivers/STM32F3xx_HAL_Driver/Src/stm32f3xx_hal_rcc.c ****   *           + Peripheral Control functions
  10:Drivers/STM32F3xx_HAL_Driver/Src/stm32f3xx_hal_rcc.c ****   *       
  11:Drivers/STM32F3xx_HAL_Driver/Src/stm32f3xx_hal_rcc.c ****   @verbatim                
  12:Drivers/STM32F3xx_HAL_Driver/Src/stm32f3xx_hal_rcc.c ****   ==============================================================================
  13:Drivers/STM32F3xx_HAL_Driver/Src/stm32f3xx_hal_rcc.c ****                       ##### RCC specific features #####
  14:Drivers/STM32F3xx_HAL_Driver/Src/stm32f3xx_hal_rcc.c ****   ==============================================================================
  15:Drivers/STM32F3xx_HAL_Driver/Src/stm32f3xx_hal_rcc.c ****     [..]  
  16:Drivers/STM32F3xx_HAL_Driver/Src/stm32f3xx_hal_rcc.c ****       After reset the device is running from Internal High Speed oscillator
  17:Drivers/STM32F3xx_HAL_Driver/Src/stm32f3xx_hal_rcc.c ****       (HSI 8MHz) with Flash 0 wait state, Flash prefetch buffer is enabled, 
  18:Drivers/STM32F3xx_HAL_Driver/Src/stm32f3xx_hal_rcc.c ****       and all peripherals are off except internal SRAM, Flash and JTAG.
  19:Drivers/STM32F3xx_HAL_Driver/Src/stm32f3xx_hal_rcc.c ****       (+) There is no prescaler on High speed (AHB) and Low speed (APB) buses;
  20:Drivers/STM32F3xx_HAL_Driver/Src/stm32f3xx_hal_rcc.c ****           all peripherals mapped on these buses are running at HSI speed.
  21:Drivers/STM32F3xx_HAL_Driver/Src/stm32f3xx_hal_rcc.c ****       (+) The clock for all peripherals is switched off, except the SRAM and FLASH.
  22:Drivers/STM32F3xx_HAL_Driver/Src/stm32f3xx_hal_rcc.c ****       (+) All GPIOs are in input floating state, except the JTAG pins which
  23:Drivers/STM32F3xx_HAL_Driver/Src/stm32f3xx_hal_rcc.c ****           are assigned to be used for debug purpose.
  24:Drivers/STM32F3xx_HAL_Driver/Src/stm32f3xx_hal_rcc.c ****     [..] Once the device started from reset, the user application has to:
  25:Drivers/STM32F3xx_HAL_Driver/Src/stm32f3xx_hal_rcc.c ****       (+) Configure the clock source to be used to drive the System clock
  26:Drivers/STM32F3xx_HAL_Driver/Src/stm32f3xx_hal_rcc.c ****           (if the application needs higher frequency/performance)
  27:Drivers/STM32F3xx_HAL_Driver/Src/stm32f3xx_hal_rcc.c ****       (+) Configure the System clock frequency and Flash settings  
  28:Drivers/STM32F3xx_HAL_Driver/Src/stm32f3xx_hal_rcc.c ****       (+) Configure the AHB and APB buses prescalers
  29:Drivers/STM32F3xx_HAL_Driver/Src/stm32f3xx_hal_rcc.c ****       (+) Enable the clock for the peripheral(s) to be used
ARM GAS  /var/folders/b1/22c950295gx2kqj80tvj8wqc0000gn/T//ccykJ5HB.s 			page 2


  30:Drivers/STM32F3xx_HAL_Driver/Src/stm32f3xx_hal_rcc.c ****       (+) Configure the clock source(s) for peripherals whose clocks are not
  31:Drivers/STM32F3xx_HAL_Driver/Src/stm32f3xx_hal_rcc.c ****           derived from the System clock (RTC, ADC, I2C, I2S, TIM, USB FS)
  32:Drivers/STM32F3xx_HAL_Driver/Src/stm32f3xx_hal_rcc.c **** 
  33:Drivers/STM32F3xx_HAL_Driver/Src/stm32f3xx_hal_rcc.c ****                       ##### RCC Limitations #####
  34:Drivers/STM32F3xx_HAL_Driver/Src/stm32f3xx_hal_rcc.c ****   ==============================================================================
  35:Drivers/STM32F3xx_HAL_Driver/Src/stm32f3xx_hal_rcc.c ****     [..]  
  36:Drivers/STM32F3xx_HAL_Driver/Src/stm32f3xx_hal_rcc.c ****       A delay between an RCC peripheral clock enable and the effective peripheral 
  37:Drivers/STM32F3xx_HAL_Driver/Src/stm32f3xx_hal_rcc.c ****       enabling should be taken into account in order to manage the peripheral read/write 
  38:Drivers/STM32F3xx_HAL_Driver/Src/stm32f3xx_hal_rcc.c ****       from/to registers.
  39:Drivers/STM32F3xx_HAL_Driver/Src/stm32f3xx_hal_rcc.c ****       (+) This delay depends on the peripheral mapping.
  40:Drivers/STM32F3xx_HAL_Driver/Src/stm32f3xx_hal_rcc.c ****         (++) AHB & APB peripherals, 1 dummy read is necessary
  41:Drivers/STM32F3xx_HAL_Driver/Src/stm32f3xx_hal_rcc.c **** 
  42:Drivers/STM32F3xx_HAL_Driver/Src/stm32f3xx_hal_rcc.c ****     [..]  
  43:Drivers/STM32F3xx_HAL_Driver/Src/stm32f3xx_hal_rcc.c ****       Workarounds:
  44:Drivers/STM32F3xx_HAL_Driver/Src/stm32f3xx_hal_rcc.c ****       (#) For AHB & APB peripherals, a dummy read to the peripheral register has been
  45:Drivers/STM32F3xx_HAL_Driver/Src/stm32f3xx_hal_rcc.c ****           inserted in each __HAL_RCC_PPP_CLK_ENABLE() macro.
  46:Drivers/STM32F3xx_HAL_Driver/Src/stm32f3xx_hal_rcc.c **** 
  47:Drivers/STM32F3xx_HAL_Driver/Src/stm32f3xx_hal_rcc.c ****   @endverbatim
  48:Drivers/STM32F3xx_HAL_Driver/Src/stm32f3xx_hal_rcc.c ****   ******************************************************************************
  49:Drivers/STM32F3xx_HAL_Driver/Src/stm32f3xx_hal_rcc.c ****   * @attention
  50:Drivers/STM32F3xx_HAL_Driver/Src/stm32f3xx_hal_rcc.c ****   *
  51:Drivers/STM32F3xx_HAL_Driver/Src/stm32f3xx_hal_rcc.c ****   * <h2><center>&copy; Copyright (c) 2016 STMicroelectronics.
  52:Drivers/STM32F3xx_HAL_Driver/Src/stm32f3xx_hal_rcc.c ****   * All rights reserved.</center></h2>
  53:Drivers/STM32F3xx_HAL_Driver/Src/stm32f3xx_hal_rcc.c ****   *
  54:Drivers/STM32F3xx_HAL_Driver/Src/stm32f3xx_hal_rcc.c ****   * This software component is licensed by ST under BSD 3-Clause license,
  55:Drivers/STM32F3xx_HAL_Driver/Src/stm32f3xx_hal_rcc.c ****   * the "License"; You may not use this file except in compliance with the
  56:Drivers/STM32F3xx_HAL_Driver/Src/stm32f3xx_hal_rcc.c ****   * License. You may obtain a copy of the License at:
  57:Drivers/STM32F3xx_HAL_Driver/Src/stm32f3xx_hal_rcc.c ****   *                        opensource.org/licenses/BSD-3-Clause
  58:Drivers/STM32F3xx_HAL_Driver/Src/stm32f3xx_hal_rcc.c ****   *
  59:Drivers/STM32F3xx_HAL_Driver/Src/stm32f3xx_hal_rcc.c ****   ******************************************************************************
  60:Drivers/STM32F3xx_HAL_Driver/Src/stm32f3xx_hal_rcc.c ****   */
  61:Drivers/STM32F3xx_HAL_Driver/Src/stm32f3xx_hal_rcc.c **** 
  62:Drivers/STM32F3xx_HAL_Driver/Src/stm32f3xx_hal_rcc.c **** /* Includes ------------------------------------------------------------------*/
  63:Drivers/STM32F3xx_HAL_Driver/Src/stm32f3xx_hal_rcc.c **** #include "stm32f3xx_hal.h"
  64:Drivers/STM32F3xx_HAL_Driver/Src/stm32f3xx_hal_rcc.c **** 
  65:Drivers/STM32F3xx_HAL_Driver/Src/stm32f3xx_hal_rcc.c **** /** @addtogroup STM32F3xx_HAL_Driver
  66:Drivers/STM32F3xx_HAL_Driver/Src/stm32f3xx_hal_rcc.c ****   * @{
  67:Drivers/STM32F3xx_HAL_Driver/Src/stm32f3xx_hal_rcc.c ****   */
  68:Drivers/STM32F3xx_HAL_Driver/Src/stm32f3xx_hal_rcc.c **** 
  69:Drivers/STM32F3xx_HAL_Driver/Src/stm32f3xx_hal_rcc.c **** /** @defgroup RCC RCC
  70:Drivers/STM32F3xx_HAL_Driver/Src/stm32f3xx_hal_rcc.c **** * @brief RCC HAL module driver
  71:Drivers/STM32F3xx_HAL_Driver/Src/stm32f3xx_hal_rcc.c ****   * @{
  72:Drivers/STM32F3xx_HAL_Driver/Src/stm32f3xx_hal_rcc.c ****   */
  73:Drivers/STM32F3xx_HAL_Driver/Src/stm32f3xx_hal_rcc.c **** 
  74:Drivers/STM32F3xx_HAL_Driver/Src/stm32f3xx_hal_rcc.c **** #ifdef HAL_RCC_MODULE_ENABLED
  75:Drivers/STM32F3xx_HAL_Driver/Src/stm32f3xx_hal_rcc.c **** 
  76:Drivers/STM32F3xx_HAL_Driver/Src/stm32f3xx_hal_rcc.c **** /* Private typedef -----------------------------------------------------------*/
  77:Drivers/STM32F3xx_HAL_Driver/Src/stm32f3xx_hal_rcc.c **** /* Private define ------------------------------------------------------------*/
  78:Drivers/STM32F3xx_HAL_Driver/Src/stm32f3xx_hal_rcc.c **** /** @defgroup RCC_Private_Constants RCC Private Constants
  79:Drivers/STM32F3xx_HAL_Driver/Src/stm32f3xx_hal_rcc.c ****  * @{
  80:Drivers/STM32F3xx_HAL_Driver/Src/stm32f3xx_hal_rcc.c ****  */
  81:Drivers/STM32F3xx_HAL_Driver/Src/stm32f3xx_hal_rcc.c **** /* Bits position in  in the CFGR register */
  82:Drivers/STM32F3xx_HAL_Driver/Src/stm32f3xx_hal_rcc.c **** #define RCC_CFGR_HPRE_BITNUMBER           POSITION_VAL(RCC_CFGR_HPRE)
  83:Drivers/STM32F3xx_HAL_Driver/Src/stm32f3xx_hal_rcc.c **** #define RCC_CFGR_PPRE1_BITNUMBER          POSITION_VAL(RCC_CFGR_PPRE1)
  84:Drivers/STM32F3xx_HAL_Driver/Src/stm32f3xx_hal_rcc.c **** #define RCC_CFGR_PPRE2_BITNUMBER          POSITION_VAL(RCC_CFGR_PPRE2)
  85:Drivers/STM32F3xx_HAL_Driver/Src/stm32f3xx_hal_rcc.c **** /**
  86:Drivers/STM32F3xx_HAL_Driver/Src/stm32f3xx_hal_rcc.c ****   * @}
ARM GAS  /var/folders/b1/22c950295gx2kqj80tvj8wqc0000gn/T//ccykJ5HB.s 			page 3


  87:Drivers/STM32F3xx_HAL_Driver/Src/stm32f3xx_hal_rcc.c ****   */
  88:Drivers/STM32F3xx_HAL_Driver/Src/stm32f3xx_hal_rcc.c **** /* Private macro -------------------------------------------------------------*/
  89:Drivers/STM32F3xx_HAL_Driver/Src/stm32f3xx_hal_rcc.c **** /** @defgroup RCC_Private_Macros RCC Private Macros
  90:Drivers/STM32F3xx_HAL_Driver/Src/stm32f3xx_hal_rcc.c ****   * @{
  91:Drivers/STM32F3xx_HAL_Driver/Src/stm32f3xx_hal_rcc.c ****   */
  92:Drivers/STM32F3xx_HAL_Driver/Src/stm32f3xx_hal_rcc.c **** 
  93:Drivers/STM32F3xx_HAL_Driver/Src/stm32f3xx_hal_rcc.c **** #define MCO1_CLK_ENABLE()     __HAL_RCC_GPIOA_CLK_ENABLE()
  94:Drivers/STM32F3xx_HAL_Driver/Src/stm32f3xx_hal_rcc.c **** #define MCO1_GPIO_PORT        GPIOA
  95:Drivers/STM32F3xx_HAL_Driver/Src/stm32f3xx_hal_rcc.c **** #define MCO1_PIN              GPIO_PIN_8
  96:Drivers/STM32F3xx_HAL_Driver/Src/stm32f3xx_hal_rcc.c **** 
  97:Drivers/STM32F3xx_HAL_Driver/Src/stm32f3xx_hal_rcc.c **** /**
  98:Drivers/STM32F3xx_HAL_Driver/Src/stm32f3xx_hal_rcc.c ****   * @}
  99:Drivers/STM32F3xx_HAL_Driver/Src/stm32f3xx_hal_rcc.c ****   */
 100:Drivers/STM32F3xx_HAL_Driver/Src/stm32f3xx_hal_rcc.c **** 
 101:Drivers/STM32F3xx_HAL_Driver/Src/stm32f3xx_hal_rcc.c **** /* Private variables ---------------------------------------------------------*/
 102:Drivers/STM32F3xx_HAL_Driver/Src/stm32f3xx_hal_rcc.c **** /** @defgroup RCC_Private_Variables RCC Private Variables
 103:Drivers/STM32F3xx_HAL_Driver/Src/stm32f3xx_hal_rcc.c ****   * @{
 104:Drivers/STM32F3xx_HAL_Driver/Src/stm32f3xx_hal_rcc.c ****   */
 105:Drivers/STM32F3xx_HAL_Driver/Src/stm32f3xx_hal_rcc.c **** const uint8_t aPLLMULFactorTable[16] = { 2U,  3U,  4U,  5U,  6U,  7U,  8U,  9U,
 106:Drivers/STM32F3xx_HAL_Driver/Src/stm32f3xx_hal_rcc.c ****                                        10U, 11U, 12U, 13U, 14U, 15U, 16U, 16U};
 107:Drivers/STM32F3xx_HAL_Driver/Src/stm32f3xx_hal_rcc.c **** const uint8_t aPredivFactorTable[16] = { 1U, 2U,  3U,  4U,  5U,  6U,  7U,  8U,
 108:Drivers/STM32F3xx_HAL_Driver/Src/stm32f3xx_hal_rcc.c ****                                          9U,10U, 11U, 12U, 13U, 14U, 15U, 16U};
 109:Drivers/STM32F3xx_HAL_Driver/Src/stm32f3xx_hal_rcc.c **** /**
 110:Drivers/STM32F3xx_HAL_Driver/Src/stm32f3xx_hal_rcc.c ****   * @}
 111:Drivers/STM32F3xx_HAL_Driver/Src/stm32f3xx_hal_rcc.c ****   */
 112:Drivers/STM32F3xx_HAL_Driver/Src/stm32f3xx_hal_rcc.c **** 
 113:Drivers/STM32F3xx_HAL_Driver/Src/stm32f3xx_hal_rcc.c **** /* Private function prototypes -----------------------------------------------*/
 114:Drivers/STM32F3xx_HAL_Driver/Src/stm32f3xx_hal_rcc.c **** /* Exported functions ---------------------------------------------------------*/
 115:Drivers/STM32F3xx_HAL_Driver/Src/stm32f3xx_hal_rcc.c **** 
 116:Drivers/STM32F3xx_HAL_Driver/Src/stm32f3xx_hal_rcc.c **** /** @defgroup RCC_Exported_Functions RCC Exported Functions
 117:Drivers/STM32F3xx_HAL_Driver/Src/stm32f3xx_hal_rcc.c ****   * @{
 118:Drivers/STM32F3xx_HAL_Driver/Src/stm32f3xx_hal_rcc.c ****   */
 119:Drivers/STM32F3xx_HAL_Driver/Src/stm32f3xx_hal_rcc.c **** 
 120:Drivers/STM32F3xx_HAL_Driver/Src/stm32f3xx_hal_rcc.c **** /** @defgroup RCC_Exported_Functions_Group1 Initialization and de-initialization functions 
 121:Drivers/STM32F3xx_HAL_Driver/Src/stm32f3xx_hal_rcc.c ****   *  @brief    Initialization and Configuration functions 
 122:Drivers/STM32F3xx_HAL_Driver/Src/stm32f3xx_hal_rcc.c ****   *
 123:Drivers/STM32F3xx_HAL_Driver/Src/stm32f3xx_hal_rcc.c ****   @verbatim    
 124:Drivers/STM32F3xx_HAL_Driver/Src/stm32f3xx_hal_rcc.c ****   ===============================================================================
 125:Drivers/STM32F3xx_HAL_Driver/Src/stm32f3xx_hal_rcc.c ****            ##### Initialization and de-initialization functions #####
 126:Drivers/STM32F3xx_HAL_Driver/Src/stm32f3xx_hal_rcc.c ****   ===============================================================================
 127:Drivers/STM32F3xx_HAL_Driver/Src/stm32f3xx_hal_rcc.c ****     [..]
 128:Drivers/STM32F3xx_HAL_Driver/Src/stm32f3xx_hal_rcc.c ****       This section provides functions allowing to configure the internal/external oscillators
 129:Drivers/STM32F3xx_HAL_Driver/Src/stm32f3xx_hal_rcc.c ****       (HSE, HSI, LSE, LSI, PLL, CSS and MCO) and the System buses clocks (SYSCLK, AHB, APB1
 130:Drivers/STM32F3xx_HAL_Driver/Src/stm32f3xx_hal_rcc.c ****       and APB2).
 131:Drivers/STM32F3xx_HAL_Driver/Src/stm32f3xx_hal_rcc.c **** 
 132:Drivers/STM32F3xx_HAL_Driver/Src/stm32f3xx_hal_rcc.c ****     [..] Internal/external clock and PLL configuration
 133:Drivers/STM32F3xx_HAL_Driver/Src/stm32f3xx_hal_rcc.c ****       (#) HSI (high-speed internal), 8 MHz factory-trimmed RC used directly or through
 134:Drivers/STM32F3xx_HAL_Driver/Src/stm32f3xx_hal_rcc.c ****           the PLL as System clock source.
 135:Drivers/STM32F3xx_HAL_Driver/Src/stm32f3xx_hal_rcc.c ****           The HSI clock can be used also to clock the USART and I2C peripherals.
 136:Drivers/STM32F3xx_HAL_Driver/Src/stm32f3xx_hal_rcc.c **** 
 137:Drivers/STM32F3xx_HAL_Driver/Src/stm32f3xx_hal_rcc.c ****       (#) LSI (low-speed internal), ~40 KHz low consumption RC used as IWDG and/or RTC
 138:Drivers/STM32F3xx_HAL_Driver/Src/stm32f3xx_hal_rcc.c ****           clock source.
 139:Drivers/STM32F3xx_HAL_Driver/Src/stm32f3xx_hal_rcc.c **** 
 140:Drivers/STM32F3xx_HAL_Driver/Src/stm32f3xx_hal_rcc.c ****       (#) HSE (high-speed external), 4 to 32 MHz crystal oscillator used directly or
 141:Drivers/STM32F3xx_HAL_Driver/Src/stm32f3xx_hal_rcc.c ****           through the PLL as System clock source. Can be used also as RTC clock source.
 142:Drivers/STM32F3xx_HAL_Driver/Src/stm32f3xx_hal_rcc.c **** 
 143:Drivers/STM32F3xx_HAL_Driver/Src/stm32f3xx_hal_rcc.c ****       (#) LSE (low-speed external), 32 KHz oscillator used as RTC clock source.   
ARM GAS  /var/folders/b1/22c950295gx2kqj80tvj8wqc0000gn/T//ccykJ5HB.s 			page 4


 144:Drivers/STM32F3xx_HAL_Driver/Src/stm32f3xx_hal_rcc.c **** 
 145:Drivers/STM32F3xx_HAL_Driver/Src/stm32f3xx_hal_rcc.c ****       (#) PLL (clocked by HSI or HSE), featuring different output clocks:
 146:Drivers/STM32F3xx_HAL_Driver/Src/stm32f3xx_hal_rcc.c ****         (++) The first output is used to generate the high speed system clock (up to 72 MHz)
 147:Drivers/STM32F3xx_HAL_Driver/Src/stm32f3xx_hal_rcc.c ****         (++) The second output is used to generate the clock for the USB FS (48 MHz)
 148:Drivers/STM32F3xx_HAL_Driver/Src/stm32f3xx_hal_rcc.c ****         (++) The third output may be used to generate the clock for the ADC peripherals (up to 72 M
 149:Drivers/STM32F3xx_HAL_Driver/Src/stm32f3xx_hal_rcc.c ****         (++) The fourth output may be used to generate the clock for the TIM peripherals (144 MHz)
 150:Drivers/STM32F3xx_HAL_Driver/Src/stm32f3xx_hal_rcc.c **** 
 151:Drivers/STM32F3xx_HAL_Driver/Src/stm32f3xx_hal_rcc.c ****       (#) CSS (Clock security system), once enable using the macro __HAL_RCC_CSS_ENABLE()
 152:Drivers/STM32F3xx_HAL_Driver/Src/stm32f3xx_hal_rcc.c ****           and if a HSE clock failure occurs(HSE used directly or through PLL as System 
 153:Drivers/STM32F3xx_HAL_Driver/Src/stm32f3xx_hal_rcc.c ****           clock source), the System clocks automatically switched to HSI and an interrupt
 154:Drivers/STM32F3xx_HAL_Driver/Src/stm32f3xx_hal_rcc.c ****           is generated if enabled. The interrupt is linked to the Cortex-M4 NMI 
 155:Drivers/STM32F3xx_HAL_Driver/Src/stm32f3xx_hal_rcc.c ****           (Non-Maskable Interrupt) exception vector.   
 156:Drivers/STM32F3xx_HAL_Driver/Src/stm32f3xx_hal_rcc.c **** 
 157:Drivers/STM32F3xx_HAL_Driver/Src/stm32f3xx_hal_rcc.c ****       (#) MCO (microcontroller clock output), used to output SYSCLK, HSI, HSE, LSI, LSE or PLL
 158:Drivers/STM32F3xx_HAL_Driver/Src/stm32f3xx_hal_rcc.c ****           clock (divided by 2) output on pin (such as PA8 pin).
 159:Drivers/STM32F3xx_HAL_Driver/Src/stm32f3xx_hal_rcc.c **** 
 160:Drivers/STM32F3xx_HAL_Driver/Src/stm32f3xx_hal_rcc.c ****     [..] System, AHB and APB buses clocks configuration
 161:Drivers/STM32F3xx_HAL_Driver/Src/stm32f3xx_hal_rcc.c ****       (#) Several clock sources can be used to drive the System clock (SYSCLK): HSI,
 162:Drivers/STM32F3xx_HAL_Driver/Src/stm32f3xx_hal_rcc.c ****           HSE and PLL.
 163:Drivers/STM32F3xx_HAL_Driver/Src/stm32f3xx_hal_rcc.c ****           The AHB clock (HCLK) is derived from System clock through configurable
 164:Drivers/STM32F3xx_HAL_Driver/Src/stm32f3xx_hal_rcc.c ****           prescaler and used to clock the CPU, memory and peripherals mapped
 165:Drivers/STM32F3xx_HAL_Driver/Src/stm32f3xx_hal_rcc.c ****           on AHB bus (DMA, GPIO...). APB1 (PCLK1) and APB2 (PCLK2) clocks are derived
 166:Drivers/STM32F3xx_HAL_Driver/Src/stm32f3xx_hal_rcc.c ****           from AHB clock through configurable prescalers and used to clock
 167:Drivers/STM32F3xx_HAL_Driver/Src/stm32f3xx_hal_rcc.c ****           the peripherals mapped on these buses. You can use
 168:Drivers/STM32F3xx_HAL_Driver/Src/stm32f3xx_hal_rcc.c ****           "HAL_RCC_GetSysClockFreq()" function to retrieve the frequencies of these clocks.
 169:Drivers/STM32F3xx_HAL_Driver/Src/stm32f3xx_hal_rcc.c **** 
 170:Drivers/STM32F3xx_HAL_Driver/Src/stm32f3xx_hal_rcc.c ****       (#) All the peripheral clocks are derived from the System clock (SYSCLK) except:
 171:Drivers/STM32F3xx_HAL_Driver/Src/stm32f3xx_hal_rcc.c ****         (++) The FLASH program/erase clock  which is always HSI 8MHz clock.
 172:Drivers/STM32F3xx_HAL_Driver/Src/stm32f3xx_hal_rcc.c ****         (++) The USB 48 MHz clock which is derived from the PLL VCO clock.
 173:Drivers/STM32F3xx_HAL_Driver/Src/stm32f3xx_hal_rcc.c ****         (++) The USART clock which can be derived as well from HSI 8MHz, LSI or LSE.
 174:Drivers/STM32F3xx_HAL_Driver/Src/stm32f3xx_hal_rcc.c ****         (++) The I2C clock which can be derived as well from HSI 8MHz clock.
 175:Drivers/STM32F3xx_HAL_Driver/Src/stm32f3xx_hal_rcc.c ****         (++) The ADC clock which is derived from PLL output.
 176:Drivers/STM32F3xx_HAL_Driver/Src/stm32f3xx_hal_rcc.c ****         (++) The RTC clock which is derived from the LSE, LSI or 1 MHz HSE_RTC
 177:Drivers/STM32F3xx_HAL_Driver/Src/stm32f3xx_hal_rcc.c ****              (HSE divided by a programmable prescaler). The System clock (SYSCLK)
 178:Drivers/STM32F3xx_HAL_Driver/Src/stm32f3xx_hal_rcc.c ****              frequency must be higher or equal to the RTC clock frequency.
 179:Drivers/STM32F3xx_HAL_Driver/Src/stm32f3xx_hal_rcc.c ****         (++) IWDG clock which is always the LSI clock.
 180:Drivers/STM32F3xx_HAL_Driver/Src/stm32f3xx_hal_rcc.c **** 
 181:Drivers/STM32F3xx_HAL_Driver/Src/stm32f3xx_hal_rcc.c ****          (#) For the STM32F3xx devices, the maximum frequency of the SYSCLK, HCLK, PCLK1 and PCLK2 
 182:Drivers/STM32F3xx_HAL_Driver/Src/stm32f3xx_hal_rcc.c ****              Depending on the SYSCLK frequency, the flash latency should be adapted accordingly.
 183:Drivers/STM32F3xx_HAL_Driver/Src/stm32f3xx_hal_rcc.c **** 
 184:Drivers/STM32F3xx_HAL_Driver/Src/stm32f3xx_hal_rcc.c ****          (#) After reset, the System clock source is the HSI (8 MHz) with 0 WS and
 185:Drivers/STM32F3xx_HAL_Driver/Src/stm32f3xx_hal_rcc.c ****              prefetch is disabled.
 186:Drivers/STM32F3xx_HAL_Driver/Src/stm32f3xx_hal_rcc.c ****   @endverbatim
 187:Drivers/STM32F3xx_HAL_Driver/Src/stm32f3xx_hal_rcc.c ****   * @{
 188:Drivers/STM32F3xx_HAL_Driver/Src/stm32f3xx_hal_rcc.c ****   */
 189:Drivers/STM32F3xx_HAL_Driver/Src/stm32f3xx_hal_rcc.c ****   
 190:Drivers/STM32F3xx_HAL_Driver/Src/stm32f3xx_hal_rcc.c **** /*
 191:Drivers/STM32F3xx_HAL_Driver/Src/stm32f3xx_hal_rcc.c ****   Additional consideration on the SYSCLK based on Latency settings:
 192:Drivers/STM32F3xx_HAL_Driver/Src/stm32f3xx_hal_rcc.c ****         +-----------------------------------------------+
 193:Drivers/STM32F3xx_HAL_Driver/Src/stm32f3xx_hal_rcc.c ****         | Latency       | SYSCLK clock frequency (MHz)  |
 194:Drivers/STM32F3xx_HAL_Driver/Src/stm32f3xx_hal_rcc.c ****         |---------------|-------------------------------|
 195:Drivers/STM32F3xx_HAL_Driver/Src/stm32f3xx_hal_rcc.c ****         |0WS(1CPU cycle)|       0 < SYSCLK <= 24        |
 196:Drivers/STM32F3xx_HAL_Driver/Src/stm32f3xx_hal_rcc.c ****         |---------------|-------------------------------|
 197:Drivers/STM32F3xx_HAL_Driver/Src/stm32f3xx_hal_rcc.c ****         |1WS(2CPU cycle)|      24 < SYSCLK <= 48        |
 198:Drivers/STM32F3xx_HAL_Driver/Src/stm32f3xx_hal_rcc.c ****         |---------------|-------------------------------|
 199:Drivers/STM32F3xx_HAL_Driver/Src/stm32f3xx_hal_rcc.c ****         |2WS(3CPU cycle)|      48 < SYSCLK <= 72        |
 200:Drivers/STM32F3xx_HAL_Driver/Src/stm32f3xx_hal_rcc.c ****         +-----------------------------------------------+
ARM GAS  /var/folders/b1/22c950295gx2kqj80tvj8wqc0000gn/T//ccykJ5HB.s 			page 5


 201:Drivers/STM32F3xx_HAL_Driver/Src/stm32f3xx_hal_rcc.c ****   */
 202:Drivers/STM32F3xx_HAL_Driver/Src/stm32f3xx_hal_rcc.c **** 
 203:Drivers/STM32F3xx_HAL_Driver/Src/stm32f3xx_hal_rcc.c **** /**
 204:Drivers/STM32F3xx_HAL_Driver/Src/stm32f3xx_hal_rcc.c ****   * @brief  Resets the RCC clock configuration to the default reset state.
 205:Drivers/STM32F3xx_HAL_Driver/Src/stm32f3xx_hal_rcc.c ****   * @note   The default reset state of the clock configuration is given below:
 206:Drivers/STM32F3xx_HAL_Driver/Src/stm32f3xx_hal_rcc.c ****   *            - HSI ON and used as system clock source
 207:Drivers/STM32F3xx_HAL_Driver/Src/stm32f3xx_hal_rcc.c ****   *            - HSE and PLL OFF
 208:Drivers/STM32F3xx_HAL_Driver/Src/stm32f3xx_hal_rcc.c ****   *            - AHB, APB1 and APB2 prescaler set to 1.
 209:Drivers/STM32F3xx_HAL_Driver/Src/stm32f3xx_hal_rcc.c ****   *            - CSS and MCO1 OFF
 210:Drivers/STM32F3xx_HAL_Driver/Src/stm32f3xx_hal_rcc.c ****   *            - All interrupts disabled
 211:Drivers/STM32F3xx_HAL_Driver/Src/stm32f3xx_hal_rcc.c ****   * @note   This function does not modify the configuration of the
 212:Drivers/STM32F3xx_HAL_Driver/Src/stm32f3xx_hal_rcc.c ****   *            - Peripheral clocks
 213:Drivers/STM32F3xx_HAL_Driver/Src/stm32f3xx_hal_rcc.c ****   *            - LSI, LSE and RTC clocks
 214:Drivers/STM32F3xx_HAL_Driver/Src/stm32f3xx_hal_rcc.c ****   * @retval HAL status
 215:Drivers/STM32F3xx_HAL_Driver/Src/stm32f3xx_hal_rcc.c ****   */
 216:Drivers/STM32F3xx_HAL_Driver/Src/stm32f3xx_hal_rcc.c **** HAL_StatusTypeDef HAL_RCC_DeInit(void)
 217:Drivers/STM32F3xx_HAL_Driver/Src/stm32f3xx_hal_rcc.c **** {
  30              		.loc 1 217 1 view -0
  31              		.cfi_startproc
  32              		@ args = 0, pretend = 0, frame = 0
  33              		@ frame_needed = 0, uses_anonymous_args = 0
 218:Drivers/STM32F3xx_HAL_Driver/Src/stm32f3xx_hal_rcc.c ****   uint32_t tickstart = 0;
  34              		.loc 1 218 3 view .LVU1
  35              	.LVL0:
 219:Drivers/STM32F3xx_HAL_Driver/Src/stm32f3xx_hal_rcc.c **** 
 220:Drivers/STM32F3xx_HAL_Driver/Src/stm32f3xx_hal_rcc.c ****   /* Set HSION bit */
 221:Drivers/STM32F3xx_HAL_Driver/Src/stm32f3xx_hal_rcc.c ****   SET_BIT(RCC->CR, RCC_CR_HSION);
  36              		.loc 1 221 3 view .LVU2
 217:Drivers/STM32F3xx_HAL_Driver/Src/stm32f3xx_hal_rcc.c ****   uint32_t tickstart = 0;
  37              		.loc 1 217 1 is_stmt 0 view .LVU3
  38 0000 70B5     		push	{r4, r5, r6, lr}
  39              	.LCFI0:
  40              		.cfi_def_cfa_offset 16
  41              		.cfi_offset 4, -16
  42              		.cfi_offset 5, -12
  43              		.cfi_offset 6, -8
  44              		.cfi_offset 14, -4
  45              		.loc 1 221 3 view .LVU4
  46 0002 334C     		ldr	r4, .L15
  47 0004 2368     		ldr	r3, [r4]
  48 0006 43F00103 		orr	r3, r3, #1
  49 000a 2360     		str	r3, [r4]
 222:Drivers/STM32F3xx_HAL_Driver/Src/stm32f3xx_hal_rcc.c **** 
 223:Drivers/STM32F3xx_HAL_Driver/Src/stm32f3xx_hal_rcc.c ****   /* Insure HSIRDY bit is set before writing default HSITRIM value */
 224:Drivers/STM32F3xx_HAL_Driver/Src/stm32f3xx_hal_rcc.c ****   /* Get start tick */
 225:Drivers/STM32F3xx_HAL_Driver/Src/stm32f3xx_hal_rcc.c ****   tickstart = HAL_GetTick();
  50              		.loc 1 225 3 is_stmt 1 view .LVU5
  51              		.loc 1 225 15 is_stmt 0 view .LVU6
  52 000c FFF7FEFF 		bl	HAL_GetTick
  53              	.LVL1:
  54 0010 0546     		mov	r5, r0
  55              	.LVL2:
 226:Drivers/STM32F3xx_HAL_Driver/Src/stm32f3xx_hal_rcc.c **** 
 227:Drivers/STM32F3xx_HAL_Driver/Src/stm32f3xx_hal_rcc.c ****   /* Wait till HSI is ready */
 228:Drivers/STM32F3xx_HAL_Driver/Src/stm32f3xx_hal_rcc.c ****   while(READ_BIT(RCC->CR, RCC_CR_HSIRDY) == RESET)
  56              		.loc 1 228 3 is_stmt 1 view .LVU7
  57              		.loc 1 228 8 is_stmt 0 view .LVU8
ARM GAS  /var/folders/b1/22c950295gx2kqj80tvj8wqc0000gn/T//ccykJ5HB.s 			page 6


  58 0012 04E0     		b	.L2
  59              	.LVL3:
  60              	.L4:
 229:Drivers/STM32F3xx_HAL_Driver/Src/stm32f3xx_hal_rcc.c ****   {
 230:Drivers/STM32F3xx_HAL_Driver/Src/stm32f3xx_hal_rcc.c ****     if((HAL_GetTick() - tickstart) > HSI_TIMEOUT_VALUE)
  61              		.loc 1 230 9 view .LVU9
  62 0014 FFF7FEFF 		bl	HAL_GetTick
  63              	.LVL4:
  64              		.loc 1 230 23 view .LVU10
  65 0018 401B     		subs	r0, r0, r5
  66              		.loc 1 230 7 view .LVU11
  67 001a 0228     		cmp	r0, #2
  68 001c 28D8     		bhi	.L6
  69              	.L2:
  70              		.loc 1 230 5 is_stmt 1 view .LVU12
 228:Drivers/STM32F3xx_HAL_Driver/Src/stm32f3xx_hal_rcc.c ****   {
  71              		.loc 1 228 42 view .LVU13
 228:Drivers/STM32F3xx_HAL_Driver/Src/stm32f3xx_hal_rcc.c ****   {
  72              		.loc 1 228 9 is_stmt 0 view .LVU14
  73 001e 2368     		ldr	r3, [r4]
 228:Drivers/STM32F3xx_HAL_Driver/Src/stm32f3xx_hal_rcc.c ****   {
  74              		.loc 1 228 42 view .LVU15
  75 0020 9B07     		lsls	r3, r3, #30
  76 0022 F7D5     		bpl	.L4
 231:Drivers/STM32F3xx_HAL_Driver/Src/stm32f3xx_hal_rcc.c ****     {
 232:Drivers/STM32F3xx_HAL_Driver/Src/stm32f3xx_hal_rcc.c ****       return HAL_TIMEOUT;
 233:Drivers/STM32F3xx_HAL_Driver/Src/stm32f3xx_hal_rcc.c ****     }
 234:Drivers/STM32F3xx_HAL_Driver/Src/stm32f3xx_hal_rcc.c ****   }
 235:Drivers/STM32F3xx_HAL_Driver/Src/stm32f3xx_hal_rcc.c **** 
 236:Drivers/STM32F3xx_HAL_Driver/Src/stm32f3xx_hal_rcc.c ****   /* Set HSITRIM default value */
 237:Drivers/STM32F3xx_HAL_Driver/Src/stm32f3xx_hal_rcc.c ****   MODIFY_REG(RCC->CR, RCC_CR_HSITRIM, RCC_CR_HSITRIM_4);
  77              		.loc 1 237 3 is_stmt 1 view .LVU16
  78 0024 2368     		ldr	r3, [r4]
 238:Drivers/STM32F3xx_HAL_Driver/Src/stm32f3xx_hal_rcc.c **** 
 239:Drivers/STM32F3xx_HAL_Driver/Src/stm32f3xx_hal_rcc.c ****   /* Reset SW[1:0], HPRE[3:0], PPRE1[2:0], PPRE2[2:0] and MCOSEL[2:0] bits */
 240:Drivers/STM32F3xx_HAL_Driver/Src/stm32f3xx_hal_rcc.c ****   CLEAR_BIT(RCC->CFGR, RCC_CFGR_SW | RCC_CFGR_HPRE | RCC_CFGR_PPRE1 | RCC_CFGR_PPRE2 | RCC_CFGR_MCO
  79              		.loc 1 240 3 is_stmt 0 view .LVU17
  80 0026 2B4A     		ldr	r2, .L15+4
 241:Drivers/STM32F3xx_HAL_Driver/Src/stm32f3xx_hal_rcc.c **** 
 242:Drivers/STM32F3xx_HAL_Driver/Src/stm32f3xx_hal_rcc.c ****   /* Insure HSI selected as system clock source */
 243:Drivers/STM32F3xx_HAL_Driver/Src/stm32f3xx_hal_rcc.c ****   /* Get start tick */
 244:Drivers/STM32F3xx_HAL_Driver/Src/stm32f3xx_hal_rcc.c ****   tickstart = HAL_GetTick();
 245:Drivers/STM32F3xx_HAL_Driver/Src/stm32f3xx_hal_rcc.c **** 
 246:Drivers/STM32F3xx_HAL_Driver/Src/stm32f3xx_hal_rcc.c ****   /* Wait till system clock source is ready */
 247:Drivers/STM32F3xx_HAL_Driver/Src/stm32f3xx_hal_rcc.c ****   while(READ_BIT(RCC->CFGR, RCC_CFGR_SWS) != RCC_CFGR_SWS_HSI)
  81              		.loc 1 247 9 view .LVU18
  82 0028 294D     		ldr	r5, .L15
  83              	.LVL5:
 237:Drivers/STM32F3xx_HAL_Driver/Src/stm32f3xx_hal_rcc.c **** 
  84              		.loc 1 237 3 view .LVU19
  85 002a 23F0F803 		bic	r3, r3, #248
  86 002e 43F08003 		orr	r3, r3, #128
  87 0032 2360     		str	r3, [r4]
 240:Drivers/STM32F3xx_HAL_Driver/Src/stm32f3xx_hal_rcc.c **** 
  88              		.loc 1 240 3 is_stmt 1 view .LVU20
  89 0034 6368     		ldr	r3, [r4, #4]
  90 0036 1A40     		ands	r2, r2, r3
ARM GAS  /var/folders/b1/22c950295gx2kqj80tvj8wqc0000gn/T//ccykJ5HB.s 			page 7


  91 0038 6260     		str	r2, [r4, #4]
 244:Drivers/STM32F3xx_HAL_Driver/Src/stm32f3xx_hal_rcc.c **** 
  92              		.loc 1 244 3 view .LVU21
 244:Drivers/STM32F3xx_HAL_Driver/Src/stm32f3xx_hal_rcc.c **** 
  93              		.loc 1 244 15 is_stmt 0 view .LVU22
  94 003a FFF7FEFF 		bl	HAL_GetTick
  95              	.LVL6:
 248:Drivers/STM32F3xx_HAL_Driver/Src/stm32f3xx_hal_rcc.c ****   {
 249:Drivers/STM32F3xx_HAL_Driver/Src/stm32f3xx_hal_rcc.c ****     if((HAL_GetTick() - tickstart) > CLOCKSWITCH_TIMEOUT_VALUE)
  96              		.loc 1 249 7 view .LVU23
  97 003e 41F28836 		movw	r6, #5000
 244:Drivers/STM32F3xx_HAL_Driver/Src/stm32f3xx_hal_rcc.c **** 
  98              		.loc 1 244 15 view .LVU24
  99 0042 0446     		mov	r4, r0
 100              	.LVL7:
 247:Drivers/STM32F3xx_HAL_Driver/Src/stm32f3xx_hal_rcc.c ****   {
 101              		.loc 1 247 3 is_stmt 1 view .LVU25
 247:Drivers/STM32F3xx_HAL_Driver/Src/stm32f3xx_hal_rcc.c ****   {
 102              		.loc 1 247 8 is_stmt 0 view .LVU26
 103 0044 04E0     		b	.L5
 104              	.LVL8:
 105              	.L7:
 106              		.loc 1 249 9 view .LVU27
 107 0046 FFF7FEFF 		bl	HAL_GetTick
 108              	.LVL9:
 109              		.loc 1 249 23 view .LVU28
 110 004a 001B     		subs	r0, r0, r4
 111              		.loc 1 249 7 view .LVU29
 112 004c B042     		cmp	r0, r6
 113 004e 0FD8     		bhi	.L6
 114              	.L5:
 115              		.loc 1 249 5 is_stmt 1 view .LVU30
 247:Drivers/STM32F3xx_HAL_Driver/Src/stm32f3xx_hal_rcc.c ****   {
 116              		.loc 1 247 43 view .LVU31
 247:Drivers/STM32F3xx_HAL_Driver/Src/stm32f3xx_hal_rcc.c ****   {
 117              		.loc 1 247 9 is_stmt 0 view .LVU32
 118 0050 6B68     		ldr	r3, [r5, #4]
 247:Drivers/STM32F3xx_HAL_Driver/Src/stm32f3xx_hal_rcc.c ****   {
 119              		.loc 1 247 43 view .LVU33
 120 0052 13F00C0F 		tst	r3, #12
 121 0056 F6D1     		bne	.L7
 250:Drivers/STM32F3xx_HAL_Driver/Src/stm32f3xx_hal_rcc.c ****     {
 251:Drivers/STM32F3xx_HAL_Driver/Src/stm32f3xx_hal_rcc.c ****       return HAL_TIMEOUT;
 252:Drivers/STM32F3xx_HAL_Driver/Src/stm32f3xx_hal_rcc.c ****     }
 253:Drivers/STM32F3xx_HAL_Driver/Src/stm32f3xx_hal_rcc.c ****   }
 254:Drivers/STM32F3xx_HAL_Driver/Src/stm32f3xx_hal_rcc.c **** 
 255:Drivers/STM32F3xx_HAL_Driver/Src/stm32f3xx_hal_rcc.c ****   /* Update the SystemCoreClock global variable for HSI as system clock source */
 256:Drivers/STM32F3xx_HAL_Driver/Src/stm32f3xx_hal_rcc.c ****   SystemCoreClock = HSI_VALUE;
 122              		.loc 1 256 3 is_stmt 1 view .LVU34
 257:Drivers/STM32F3xx_HAL_Driver/Src/stm32f3xx_hal_rcc.c **** 
 258:Drivers/STM32F3xx_HAL_Driver/Src/stm32f3xx_hal_rcc.c ****   /* Configure the source of time base considering new system clock settings  */
 259:Drivers/STM32F3xx_HAL_Driver/Src/stm32f3xx_hal_rcc.c ****   if(HAL_InitTick(uwTickPrio) != HAL_OK)
 123              		.loc 1 259 6 is_stmt 0 view .LVU35
 124 0058 1F49     		ldr	r1, .L15+8
 256:Drivers/STM32F3xx_HAL_Driver/Src/stm32f3xx_hal_rcc.c **** 
 125              		.loc 1 256 19 view .LVU36
 126 005a 204B     		ldr	r3, .L15+12
ARM GAS  /var/folders/b1/22c950295gx2kqj80tvj8wqc0000gn/T//ccykJ5HB.s 			page 8


 127 005c 204A     		ldr	r2, .L15+16
 128              		.loc 1 259 6 view .LVU37
 129 005e 0868     		ldr	r0, [r1]
 256:Drivers/STM32F3xx_HAL_Driver/Src/stm32f3xx_hal_rcc.c **** 
 130              		.loc 1 256 19 view .LVU38
 131 0060 1A60     		str	r2, [r3]
 132              		.loc 1 259 3 is_stmt 1 view .LVU39
 133              		.loc 1 259 6 is_stmt 0 view .LVU40
 134 0062 FFF7FEFF 		bl	HAL_InitTick
 135              	.LVL10:
 136              		.loc 1 259 5 view .LVU41
 137 0066 0446     		mov	r4, r0
 138              	.LVL11:
 139              		.loc 1 259 5 view .LVU42
 140 0068 28B1     		cbz	r0, .L14
 260:Drivers/STM32F3xx_HAL_Driver/Src/stm32f3xx_hal_rcc.c ****   {
 261:Drivers/STM32F3xx_HAL_Driver/Src/stm32f3xx_hal_rcc.c ****     return HAL_ERROR;
 141              		.loc 1 261 12 view .LVU43
 142 006a 0124     		movs	r4, #1
 262:Drivers/STM32F3xx_HAL_Driver/Src/stm32f3xx_hal_rcc.c ****   }
 263:Drivers/STM32F3xx_HAL_Driver/Src/stm32f3xx_hal_rcc.c **** 
 264:Drivers/STM32F3xx_HAL_Driver/Src/stm32f3xx_hal_rcc.c ****   /* Reset HSEON, CSSON, PLLON bits */
 265:Drivers/STM32F3xx_HAL_Driver/Src/stm32f3xx_hal_rcc.c ****   CLEAR_BIT(RCC->CR, RCC_CR_PLLON | RCC_CR_CSSON | RCC_CR_HSEON);
 266:Drivers/STM32F3xx_HAL_Driver/Src/stm32f3xx_hal_rcc.c **** 
 267:Drivers/STM32F3xx_HAL_Driver/Src/stm32f3xx_hal_rcc.c ****   /* Reset HSEBYP bit */
 268:Drivers/STM32F3xx_HAL_Driver/Src/stm32f3xx_hal_rcc.c ****   CLEAR_BIT(RCC->CR, RCC_CR_HSEBYP);
 269:Drivers/STM32F3xx_HAL_Driver/Src/stm32f3xx_hal_rcc.c **** 
 270:Drivers/STM32F3xx_HAL_Driver/Src/stm32f3xx_hal_rcc.c ****   /* Insure PLLRDY is reset */
 271:Drivers/STM32F3xx_HAL_Driver/Src/stm32f3xx_hal_rcc.c ****   /* Get start tick */
 272:Drivers/STM32F3xx_HAL_Driver/Src/stm32f3xx_hal_rcc.c ****   tickstart = HAL_GetTick();
 273:Drivers/STM32F3xx_HAL_Driver/Src/stm32f3xx_hal_rcc.c ****   while(READ_BIT(RCC->CR, RCC_CR_PLLRDY) != 0U)
 274:Drivers/STM32F3xx_HAL_Driver/Src/stm32f3xx_hal_rcc.c ****   {
 275:Drivers/STM32F3xx_HAL_Driver/Src/stm32f3xx_hal_rcc.c ****     if((HAL_GetTick() - tickstart) > PLL_TIMEOUT_VALUE)
 276:Drivers/STM32F3xx_HAL_Driver/Src/stm32f3xx_hal_rcc.c ****     {
 277:Drivers/STM32F3xx_HAL_Driver/Src/stm32f3xx_hal_rcc.c ****       return HAL_TIMEOUT;
 278:Drivers/STM32F3xx_HAL_Driver/Src/stm32f3xx_hal_rcc.c ****     }
 279:Drivers/STM32F3xx_HAL_Driver/Src/stm32f3xx_hal_rcc.c ****   }
 280:Drivers/STM32F3xx_HAL_Driver/Src/stm32f3xx_hal_rcc.c **** 
 281:Drivers/STM32F3xx_HAL_Driver/Src/stm32f3xx_hal_rcc.c ****   /* Reset CFGR register */
 282:Drivers/STM32F3xx_HAL_Driver/Src/stm32f3xx_hal_rcc.c ****   CLEAR_REG(RCC->CFGR);
 283:Drivers/STM32F3xx_HAL_Driver/Src/stm32f3xx_hal_rcc.c **** 
 284:Drivers/STM32F3xx_HAL_Driver/Src/stm32f3xx_hal_rcc.c ****   /* Reset CFGR2 register */
 285:Drivers/STM32F3xx_HAL_Driver/Src/stm32f3xx_hal_rcc.c ****   CLEAR_REG(RCC->CFGR2);
 286:Drivers/STM32F3xx_HAL_Driver/Src/stm32f3xx_hal_rcc.c **** 
 287:Drivers/STM32F3xx_HAL_Driver/Src/stm32f3xx_hal_rcc.c ****   /* Reset CFGR3 register */
 288:Drivers/STM32F3xx_HAL_Driver/Src/stm32f3xx_hal_rcc.c ****   CLEAR_REG(RCC->CFGR3);
 289:Drivers/STM32F3xx_HAL_Driver/Src/stm32f3xx_hal_rcc.c **** 
 290:Drivers/STM32F3xx_HAL_Driver/Src/stm32f3xx_hal_rcc.c ****   /* Clear all interrupt flags */
 291:Drivers/STM32F3xx_HAL_Driver/Src/stm32f3xx_hal_rcc.c ****   SET_BIT(RCC->CIR, RCC_CIR_LSIRDYC | RCC_CIR_LSERDYC | RCC_CIR_HSIRDYC | RCC_CIR_HSERDYC | RCC_CIR
 292:Drivers/STM32F3xx_HAL_Driver/Src/stm32f3xx_hal_rcc.c **** 
 293:Drivers/STM32F3xx_HAL_Driver/Src/stm32f3xx_hal_rcc.c ****   /* Disable all interrupts */
 294:Drivers/STM32F3xx_HAL_Driver/Src/stm32f3xx_hal_rcc.c ****   CLEAR_REG(RCC->CIR);
 295:Drivers/STM32F3xx_HAL_Driver/Src/stm32f3xx_hal_rcc.c **** 
 296:Drivers/STM32F3xx_HAL_Driver/Src/stm32f3xx_hal_rcc.c ****   /* Reset all CSR flags */
 297:Drivers/STM32F3xx_HAL_Driver/Src/stm32f3xx_hal_rcc.c ****   __HAL_RCC_CLEAR_RESET_FLAGS();
 298:Drivers/STM32F3xx_HAL_Driver/Src/stm32f3xx_hal_rcc.c **** 
 299:Drivers/STM32F3xx_HAL_Driver/Src/stm32f3xx_hal_rcc.c ****   return HAL_OK;
ARM GAS  /var/folders/b1/22c950295gx2kqj80tvj8wqc0000gn/T//ccykJ5HB.s 			page 9


 300:Drivers/STM32F3xx_HAL_Driver/Src/stm32f3xx_hal_rcc.c **** }
 143              		.loc 1 300 1 view .LVU44
 144 006c 2046     		mov	r0, r4
 145 006e 70BD     		pop	{r4, r5, r6, pc}
 146              	.L6:
 232:Drivers/STM32F3xx_HAL_Driver/Src/stm32f3xx_hal_rcc.c ****     }
 147              		.loc 1 232 14 view .LVU45
 148 0070 0324     		movs	r4, #3
 149              	.L3:
 150              		.loc 1 300 1 view .LVU46
 151 0072 2046     		mov	r0, r4
 152 0074 70BD     		pop	{r4, r5, r6, pc}
 153              	.L14:
 265:Drivers/STM32F3xx_HAL_Driver/Src/stm32f3xx_hal_rcc.c **** 
 154              		.loc 1 265 3 is_stmt 1 view .LVU47
 155 0076 2B68     		ldr	r3, [r5]
 273:Drivers/STM32F3xx_HAL_Driver/Src/stm32f3xx_hal_rcc.c ****   {
 156              		.loc 1 273 9 is_stmt 0 view .LVU48
 157 0078 154E     		ldr	r6, .L15
 265:Drivers/STM32F3xx_HAL_Driver/Src/stm32f3xx_hal_rcc.c **** 
 158              		.loc 1 265 3 view .LVU49
 159 007a 23F08473 		bic	r3, r3, #17301504
 160 007e 23F48033 		bic	r3, r3, #65536
 161 0082 2B60     		str	r3, [r5]
 268:Drivers/STM32F3xx_HAL_Driver/Src/stm32f3xx_hal_rcc.c **** 
 162              		.loc 1 268 3 is_stmt 1 view .LVU50
 163 0084 2B68     		ldr	r3, [r5]
 164 0086 23F48023 		bic	r3, r3, #262144
 165 008a 2B60     		str	r3, [r5]
 272:Drivers/STM32F3xx_HAL_Driver/Src/stm32f3xx_hal_rcc.c ****   while(READ_BIT(RCC->CR, RCC_CR_PLLRDY) != 0U)
 166              		.loc 1 272 3 view .LVU51
 272:Drivers/STM32F3xx_HAL_Driver/Src/stm32f3xx_hal_rcc.c ****   while(READ_BIT(RCC->CR, RCC_CR_PLLRDY) != 0U)
 167              		.loc 1 272 15 is_stmt 0 view .LVU52
 168 008c FFF7FEFF 		bl	HAL_GetTick
 169              	.LVL12:
 170 0090 0546     		mov	r5, r0
 171              	.LVL13:
 273:Drivers/STM32F3xx_HAL_Driver/Src/stm32f3xx_hal_rcc.c ****   {
 172              		.loc 1 273 3 is_stmt 1 view .LVU53
 273:Drivers/STM32F3xx_HAL_Driver/Src/stm32f3xx_hal_rcc.c ****   {
 173              		.loc 1 273 8 is_stmt 0 view .LVU54
 174 0092 04E0     		b	.L8
 175              	.LVL14:
 176              	.L9:
 275:Drivers/STM32F3xx_HAL_Driver/Src/stm32f3xx_hal_rcc.c ****     {
 177              		.loc 1 275 9 view .LVU55
 178 0094 FFF7FEFF 		bl	HAL_GetTick
 179              	.LVL15:
 275:Drivers/STM32F3xx_HAL_Driver/Src/stm32f3xx_hal_rcc.c ****     {
 180              		.loc 1 275 23 view .LVU56
 181 0098 431B     		subs	r3, r0, r5
 275:Drivers/STM32F3xx_HAL_Driver/Src/stm32f3xx_hal_rcc.c ****     {
 182              		.loc 1 275 7 view .LVU57
 183 009a 022B     		cmp	r3, #2
 184 009c E8D8     		bhi	.L6
 185              	.L8:
 275:Drivers/STM32F3xx_HAL_Driver/Src/stm32f3xx_hal_rcc.c ****     {
ARM GAS  /var/folders/b1/22c950295gx2kqj80tvj8wqc0000gn/T//ccykJ5HB.s 			page 10


 186              		.loc 1 275 5 is_stmt 1 view .LVU58
 273:Drivers/STM32F3xx_HAL_Driver/Src/stm32f3xx_hal_rcc.c ****   {
 187              		.loc 1 273 42 view .LVU59
 273:Drivers/STM32F3xx_HAL_Driver/Src/stm32f3xx_hal_rcc.c ****   {
 188              		.loc 1 273 9 is_stmt 0 view .LVU60
 189 009e 3368     		ldr	r3, [r6]
 273:Drivers/STM32F3xx_HAL_Driver/Src/stm32f3xx_hal_rcc.c ****   {
 190              		.loc 1 273 42 view .LVU61
 191 00a0 13F00073 		ands	r3, r3, #33554432
 192 00a4 F6D1     		bne	.L9
 282:Drivers/STM32F3xx_HAL_Driver/Src/stm32f3xx_hal_rcc.c **** 
 193              		.loc 1 282 3 is_stmt 1 view .LVU62
 194 00a6 7360     		str	r3, [r6, #4]
 285:Drivers/STM32F3xx_HAL_Driver/Src/stm32f3xx_hal_rcc.c **** 
 195              		.loc 1 285 3 view .LVU63
 196 00a8 F362     		str	r3, [r6, #44]
 288:Drivers/STM32F3xx_HAL_Driver/Src/stm32f3xx_hal_rcc.c **** 
 197              		.loc 1 288 3 view .LVU64
 198 00aa 3363     		str	r3, [r6, #48]
 291:Drivers/STM32F3xx_HAL_Driver/Src/stm32f3xx_hal_rcc.c **** 
 199              		.loc 1 291 3 view .LVU65
 200 00ac B168     		ldr	r1, [r6, #8]
 201 00ae 41F41F01 		orr	r1, r1, #10420224
 202 00b2 B160     		str	r1, [r6, #8]
 294:Drivers/STM32F3xx_HAL_Driver/Src/stm32f3xx_hal_rcc.c **** 
 203              		.loc 1 294 3 view .LVU66
 204              	.LBB176:
 205              	.LBB177:
 206              		.file 2 "Drivers/CMSIS/Include/cmsis_gcc.h"
   1:Drivers/CMSIS/Include/cmsis_gcc.h **** /**************************************************************************//**
   2:Drivers/CMSIS/Include/cmsis_gcc.h ****  * @file     cmsis_gcc.h
   3:Drivers/CMSIS/Include/cmsis_gcc.h ****  * @brief    CMSIS compiler GCC header file
   4:Drivers/CMSIS/Include/cmsis_gcc.h ****  * @version  V5.0.4
   5:Drivers/CMSIS/Include/cmsis_gcc.h ****  * @date     09. April 2018
   6:Drivers/CMSIS/Include/cmsis_gcc.h ****  ******************************************************************************/
   7:Drivers/CMSIS/Include/cmsis_gcc.h **** /*
   8:Drivers/CMSIS/Include/cmsis_gcc.h ****  * Copyright (c) 2009-2018 Arm Limited. All rights reserved.
   9:Drivers/CMSIS/Include/cmsis_gcc.h ****  *
  10:Drivers/CMSIS/Include/cmsis_gcc.h ****  * SPDX-License-Identifier: Apache-2.0
  11:Drivers/CMSIS/Include/cmsis_gcc.h ****  *
  12:Drivers/CMSIS/Include/cmsis_gcc.h ****  * Licensed under the Apache License, Version 2.0 (the License); you may
  13:Drivers/CMSIS/Include/cmsis_gcc.h ****  * not use this file except in compliance with the License.
  14:Drivers/CMSIS/Include/cmsis_gcc.h ****  * You may obtain a copy of the License at
  15:Drivers/CMSIS/Include/cmsis_gcc.h ****  *
  16:Drivers/CMSIS/Include/cmsis_gcc.h ****  * www.apache.org/licenses/LICENSE-2.0
  17:Drivers/CMSIS/Include/cmsis_gcc.h ****  *
  18:Drivers/CMSIS/Include/cmsis_gcc.h ****  * Unless required by applicable law or agreed to in writing, software
  19:Drivers/CMSIS/Include/cmsis_gcc.h ****  * distributed under the License is distributed on an AS IS BASIS, WITHOUT
  20:Drivers/CMSIS/Include/cmsis_gcc.h ****  * WARRANTIES OR CONDITIONS OF ANY KIND, either express or implied.
  21:Drivers/CMSIS/Include/cmsis_gcc.h ****  * See the License for the specific language governing permissions and
  22:Drivers/CMSIS/Include/cmsis_gcc.h ****  * limitations under the License.
  23:Drivers/CMSIS/Include/cmsis_gcc.h ****  */
  24:Drivers/CMSIS/Include/cmsis_gcc.h **** 
  25:Drivers/CMSIS/Include/cmsis_gcc.h **** #ifndef __CMSIS_GCC_H
  26:Drivers/CMSIS/Include/cmsis_gcc.h **** #define __CMSIS_GCC_H
  27:Drivers/CMSIS/Include/cmsis_gcc.h **** 
  28:Drivers/CMSIS/Include/cmsis_gcc.h **** /* ignore some GCC warnings */
ARM GAS  /var/folders/b1/22c950295gx2kqj80tvj8wqc0000gn/T//ccykJ5HB.s 			page 11


  29:Drivers/CMSIS/Include/cmsis_gcc.h **** #pragma GCC diagnostic push
  30:Drivers/CMSIS/Include/cmsis_gcc.h **** #pragma GCC diagnostic ignored "-Wsign-conversion"
  31:Drivers/CMSIS/Include/cmsis_gcc.h **** #pragma GCC diagnostic ignored "-Wconversion"
  32:Drivers/CMSIS/Include/cmsis_gcc.h **** #pragma GCC diagnostic ignored "-Wunused-parameter"
  33:Drivers/CMSIS/Include/cmsis_gcc.h **** 
  34:Drivers/CMSIS/Include/cmsis_gcc.h **** /* Fallback for __has_builtin */
  35:Drivers/CMSIS/Include/cmsis_gcc.h **** #ifndef __has_builtin
  36:Drivers/CMSIS/Include/cmsis_gcc.h ****   #define __has_builtin(x) (0)
  37:Drivers/CMSIS/Include/cmsis_gcc.h **** #endif
  38:Drivers/CMSIS/Include/cmsis_gcc.h **** 
  39:Drivers/CMSIS/Include/cmsis_gcc.h **** /* CMSIS compiler specific defines */
  40:Drivers/CMSIS/Include/cmsis_gcc.h **** #ifndef   __ASM
  41:Drivers/CMSIS/Include/cmsis_gcc.h ****   #define __ASM                                  __asm
  42:Drivers/CMSIS/Include/cmsis_gcc.h **** #endif
  43:Drivers/CMSIS/Include/cmsis_gcc.h **** #ifndef   __INLINE
  44:Drivers/CMSIS/Include/cmsis_gcc.h ****   #define __INLINE                               inline
  45:Drivers/CMSIS/Include/cmsis_gcc.h **** #endif
  46:Drivers/CMSIS/Include/cmsis_gcc.h **** #ifndef   __STATIC_INLINE
  47:Drivers/CMSIS/Include/cmsis_gcc.h ****   #define __STATIC_INLINE                        static inline
  48:Drivers/CMSIS/Include/cmsis_gcc.h **** #endif
  49:Drivers/CMSIS/Include/cmsis_gcc.h **** #ifndef   __STATIC_FORCEINLINE                 
  50:Drivers/CMSIS/Include/cmsis_gcc.h ****   #define __STATIC_FORCEINLINE                   __attribute__((always_inline)) static inline
  51:Drivers/CMSIS/Include/cmsis_gcc.h **** #endif                                           
  52:Drivers/CMSIS/Include/cmsis_gcc.h **** #ifndef   __NO_RETURN
  53:Drivers/CMSIS/Include/cmsis_gcc.h ****   #define __NO_RETURN                            __attribute__((__noreturn__))
  54:Drivers/CMSIS/Include/cmsis_gcc.h **** #endif
  55:Drivers/CMSIS/Include/cmsis_gcc.h **** #ifndef   __USED
  56:Drivers/CMSIS/Include/cmsis_gcc.h ****   #define __USED                                 __attribute__((used))
  57:Drivers/CMSIS/Include/cmsis_gcc.h **** #endif
  58:Drivers/CMSIS/Include/cmsis_gcc.h **** #ifndef   __WEAK
  59:Drivers/CMSIS/Include/cmsis_gcc.h ****   #define __WEAK                                 __attribute__((weak))
  60:Drivers/CMSIS/Include/cmsis_gcc.h **** #endif
  61:Drivers/CMSIS/Include/cmsis_gcc.h **** #ifndef   __PACKED
  62:Drivers/CMSIS/Include/cmsis_gcc.h ****   #define __PACKED                               __attribute__((packed, aligned(1)))
  63:Drivers/CMSIS/Include/cmsis_gcc.h **** #endif
  64:Drivers/CMSIS/Include/cmsis_gcc.h **** #ifndef   __PACKED_STRUCT
  65:Drivers/CMSIS/Include/cmsis_gcc.h ****   #define __PACKED_STRUCT                        struct __attribute__((packed, aligned(1)))
  66:Drivers/CMSIS/Include/cmsis_gcc.h **** #endif
  67:Drivers/CMSIS/Include/cmsis_gcc.h **** #ifndef   __PACKED_UNION
  68:Drivers/CMSIS/Include/cmsis_gcc.h ****   #define __PACKED_UNION                         union __attribute__((packed, aligned(1)))
  69:Drivers/CMSIS/Include/cmsis_gcc.h **** #endif
  70:Drivers/CMSIS/Include/cmsis_gcc.h **** #ifndef   __UNALIGNED_UINT32        /* deprecated */
  71:Drivers/CMSIS/Include/cmsis_gcc.h ****   #pragma GCC diagnostic push
  72:Drivers/CMSIS/Include/cmsis_gcc.h ****   #pragma GCC diagnostic ignored "-Wpacked"
  73:Drivers/CMSIS/Include/cmsis_gcc.h ****   #pragma GCC diagnostic ignored "-Wattributes"
  74:Drivers/CMSIS/Include/cmsis_gcc.h ****   struct __attribute__((packed)) T_UINT32 { uint32_t v; };
  75:Drivers/CMSIS/Include/cmsis_gcc.h ****   #pragma GCC diagnostic pop
  76:Drivers/CMSIS/Include/cmsis_gcc.h ****   #define __UNALIGNED_UINT32(x)                  (((struct T_UINT32 *)(x))->v)
  77:Drivers/CMSIS/Include/cmsis_gcc.h **** #endif
  78:Drivers/CMSIS/Include/cmsis_gcc.h **** #ifndef   __UNALIGNED_UINT16_WRITE
  79:Drivers/CMSIS/Include/cmsis_gcc.h ****   #pragma GCC diagnostic push
  80:Drivers/CMSIS/Include/cmsis_gcc.h ****   #pragma GCC diagnostic ignored "-Wpacked"
  81:Drivers/CMSIS/Include/cmsis_gcc.h ****   #pragma GCC diagnostic ignored "-Wattributes"
  82:Drivers/CMSIS/Include/cmsis_gcc.h ****   __PACKED_STRUCT T_UINT16_WRITE { uint16_t v; };
  83:Drivers/CMSIS/Include/cmsis_gcc.h ****   #pragma GCC diagnostic pop
  84:Drivers/CMSIS/Include/cmsis_gcc.h ****   #define __UNALIGNED_UINT16_WRITE(addr, val)    (void)((((struct T_UINT16_WRITE *)(void *)(addr))-
  85:Drivers/CMSIS/Include/cmsis_gcc.h **** #endif
ARM GAS  /var/folders/b1/22c950295gx2kqj80tvj8wqc0000gn/T//ccykJ5HB.s 			page 12


  86:Drivers/CMSIS/Include/cmsis_gcc.h **** #ifndef   __UNALIGNED_UINT16_READ
  87:Drivers/CMSIS/Include/cmsis_gcc.h ****   #pragma GCC diagnostic push
  88:Drivers/CMSIS/Include/cmsis_gcc.h ****   #pragma GCC diagnostic ignored "-Wpacked"
  89:Drivers/CMSIS/Include/cmsis_gcc.h ****   #pragma GCC diagnostic ignored "-Wattributes"
  90:Drivers/CMSIS/Include/cmsis_gcc.h ****   __PACKED_STRUCT T_UINT16_READ { uint16_t v; };
  91:Drivers/CMSIS/Include/cmsis_gcc.h ****   #pragma GCC diagnostic pop
  92:Drivers/CMSIS/Include/cmsis_gcc.h ****   #define __UNALIGNED_UINT16_READ(addr)          (((const struct T_UINT16_READ *)(const void *)(add
  93:Drivers/CMSIS/Include/cmsis_gcc.h **** #endif
  94:Drivers/CMSIS/Include/cmsis_gcc.h **** #ifndef   __UNALIGNED_UINT32_WRITE
  95:Drivers/CMSIS/Include/cmsis_gcc.h ****   #pragma GCC diagnostic push
  96:Drivers/CMSIS/Include/cmsis_gcc.h ****   #pragma GCC diagnostic ignored "-Wpacked"
  97:Drivers/CMSIS/Include/cmsis_gcc.h ****   #pragma GCC diagnostic ignored "-Wattributes"
  98:Drivers/CMSIS/Include/cmsis_gcc.h ****   __PACKED_STRUCT T_UINT32_WRITE { uint32_t v; };
  99:Drivers/CMSIS/Include/cmsis_gcc.h ****   #pragma GCC diagnostic pop
 100:Drivers/CMSIS/Include/cmsis_gcc.h ****   #define __UNALIGNED_UINT32_WRITE(addr, val)    (void)((((struct T_UINT32_WRITE *)(void *)(addr))-
 101:Drivers/CMSIS/Include/cmsis_gcc.h **** #endif
 102:Drivers/CMSIS/Include/cmsis_gcc.h **** #ifndef   __UNALIGNED_UINT32_READ
 103:Drivers/CMSIS/Include/cmsis_gcc.h ****   #pragma GCC diagnostic push
 104:Drivers/CMSIS/Include/cmsis_gcc.h ****   #pragma GCC diagnostic ignored "-Wpacked"
 105:Drivers/CMSIS/Include/cmsis_gcc.h ****   #pragma GCC diagnostic ignored "-Wattributes"
 106:Drivers/CMSIS/Include/cmsis_gcc.h ****   __PACKED_STRUCT T_UINT32_READ { uint32_t v; };
 107:Drivers/CMSIS/Include/cmsis_gcc.h ****   #pragma GCC diagnostic pop
 108:Drivers/CMSIS/Include/cmsis_gcc.h ****   #define __UNALIGNED_UINT32_READ(addr)          (((const struct T_UINT32_READ *)(const void *)(add
 109:Drivers/CMSIS/Include/cmsis_gcc.h **** #endif
 110:Drivers/CMSIS/Include/cmsis_gcc.h **** #ifndef   __ALIGNED
 111:Drivers/CMSIS/Include/cmsis_gcc.h ****   #define __ALIGNED(x)                           __attribute__((aligned(x)))
 112:Drivers/CMSIS/Include/cmsis_gcc.h **** #endif
 113:Drivers/CMSIS/Include/cmsis_gcc.h **** #ifndef   __RESTRICT
 114:Drivers/CMSIS/Include/cmsis_gcc.h ****   #define __RESTRICT                             __restrict
 115:Drivers/CMSIS/Include/cmsis_gcc.h **** #endif
 116:Drivers/CMSIS/Include/cmsis_gcc.h **** 
 117:Drivers/CMSIS/Include/cmsis_gcc.h **** 
 118:Drivers/CMSIS/Include/cmsis_gcc.h **** /* ###########################  Core Function Access  ########################### */
 119:Drivers/CMSIS/Include/cmsis_gcc.h **** /** \ingroup  CMSIS_Core_FunctionInterface
 120:Drivers/CMSIS/Include/cmsis_gcc.h ****     \defgroup CMSIS_Core_RegAccFunctions CMSIS Core Register Access Functions
 121:Drivers/CMSIS/Include/cmsis_gcc.h ****   @{
 122:Drivers/CMSIS/Include/cmsis_gcc.h ****  */
 123:Drivers/CMSIS/Include/cmsis_gcc.h **** 
 124:Drivers/CMSIS/Include/cmsis_gcc.h **** /**
 125:Drivers/CMSIS/Include/cmsis_gcc.h ****   \brief   Enable IRQ Interrupts
 126:Drivers/CMSIS/Include/cmsis_gcc.h ****   \details Enables IRQ interrupts by clearing the I-bit in the CPSR.
 127:Drivers/CMSIS/Include/cmsis_gcc.h ****            Can only be executed in Privileged modes.
 128:Drivers/CMSIS/Include/cmsis_gcc.h ****  */
 129:Drivers/CMSIS/Include/cmsis_gcc.h **** __STATIC_FORCEINLINE void __enable_irq(void)
 130:Drivers/CMSIS/Include/cmsis_gcc.h **** {
 131:Drivers/CMSIS/Include/cmsis_gcc.h ****   __ASM volatile ("cpsie i" : : : "memory");
 132:Drivers/CMSIS/Include/cmsis_gcc.h **** }
 133:Drivers/CMSIS/Include/cmsis_gcc.h **** 
 134:Drivers/CMSIS/Include/cmsis_gcc.h **** 
 135:Drivers/CMSIS/Include/cmsis_gcc.h **** /**
 136:Drivers/CMSIS/Include/cmsis_gcc.h ****   \brief   Disable IRQ Interrupts
 137:Drivers/CMSIS/Include/cmsis_gcc.h ****   \details Disables IRQ interrupts by setting the I-bit in the CPSR.
 138:Drivers/CMSIS/Include/cmsis_gcc.h ****            Can only be executed in Privileged modes.
 139:Drivers/CMSIS/Include/cmsis_gcc.h ****  */
 140:Drivers/CMSIS/Include/cmsis_gcc.h **** __STATIC_FORCEINLINE void __disable_irq(void)
 141:Drivers/CMSIS/Include/cmsis_gcc.h **** {
 142:Drivers/CMSIS/Include/cmsis_gcc.h ****   __ASM volatile ("cpsid i" : : : "memory");
ARM GAS  /var/folders/b1/22c950295gx2kqj80tvj8wqc0000gn/T//ccykJ5HB.s 			page 13


 143:Drivers/CMSIS/Include/cmsis_gcc.h **** }
 144:Drivers/CMSIS/Include/cmsis_gcc.h **** 
 145:Drivers/CMSIS/Include/cmsis_gcc.h **** 
 146:Drivers/CMSIS/Include/cmsis_gcc.h **** /**
 147:Drivers/CMSIS/Include/cmsis_gcc.h ****   \brief   Get Control Register
 148:Drivers/CMSIS/Include/cmsis_gcc.h ****   \details Returns the content of the Control Register.
 149:Drivers/CMSIS/Include/cmsis_gcc.h ****   \return               Control Register value
 150:Drivers/CMSIS/Include/cmsis_gcc.h ****  */
 151:Drivers/CMSIS/Include/cmsis_gcc.h **** __STATIC_FORCEINLINE uint32_t __get_CONTROL(void)
 152:Drivers/CMSIS/Include/cmsis_gcc.h **** {
 153:Drivers/CMSIS/Include/cmsis_gcc.h ****   uint32_t result;
 154:Drivers/CMSIS/Include/cmsis_gcc.h **** 
 155:Drivers/CMSIS/Include/cmsis_gcc.h ****   __ASM volatile ("MRS %0, control" : "=r" (result) );
 156:Drivers/CMSIS/Include/cmsis_gcc.h ****   return(result);
 157:Drivers/CMSIS/Include/cmsis_gcc.h **** }
 158:Drivers/CMSIS/Include/cmsis_gcc.h **** 
 159:Drivers/CMSIS/Include/cmsis_gcc.h **** 
 160:Drivers/CMSIS/Include/cmsis_gcc.h **** #if (defined (__ARM_FEATURE_CMSE ) && (__ARM_FEATURE_CMSE == 3))
 161:Drivers/CMSIS/Include/cmsis_gcc.h **** /**
 162:Drivers/CMSIS/Include/cmsis_gcc.h ****   \brief   Get Control Register (non-secure)
 163:Drivers/CMSIS/Include/cmsis_gcc.h ****   \details Returns the content of the non-secure Control Register when in secure mode.
 164:Drivers/CMSIS/Include/cmsis_gcc.h ****   \return               non-secure Control Register value
 165:Drivers/CMSIS/Include/cmsis_gcc.h ****  */
 166:Drivers/CMSIS/Include/cmsis_gcc.h **** __STATIC_FORCEINLINE uint32_t __TZ_get_CONTROL_NS(void)
 167:Drivers/CMSIS/Include/cmsis_gcc.h **** {
 168:Drivers/CMSIS/Include/cmsis_gcc.h ****   uint32_t result;
 169:Drivers/CMSIS/Include/cmsis_gcc.h **** 
 170:Drivers/CMSIS/Include/cmsis_gcc.h ****   __ASM volatile ("MRS %0, control_ns" : "=r" (result) );
 171:Drivers/CMSIS/Include/cmsis_gcc.h ****   return(result);
 172:Drivers/CMSIS/Include/cmsis_gcc.h **** }
 173:Drivers/CMSIS/Include/cmsis_gcc.h **** #endif
 174:Drivers/CMSIS/Include/cmsis_gcc.h **** 
 175:Drivers/CMSIS/Include/cmsis_gcc.h **** 
 176:Drivers/CMSIS/Include/cmsis_gcc.h **** /**
 177:Drivers/CMSIS/Include/cmsis_gcc.h ****   \brief   Set Control Register
 178:Drivers/CMSIS/Include/cmsis_gcc.h ****   \details Writes the given value to the Control Register.
 179:Drivers/CMSIS/Include/cmsis_gcc.h ****   \param [in]    control  Control Register value to set
 180:Drivers/CMSIS/Include/cmsis_gcc.h ****  */
 181:Drivers/CMSIS/Include/cmsis_gcc.h **** __STATIC_FORCEINLINE void __set_CONTROL(uint32_t control)
 182:Drivers/CMSIS/Include/cmsis_gcc.h **** {
 183:Drivers/CMSIS/Include/cmsis_gcc.h ****   __ASM volatile ("MSR control, %0" : : "r" (control) : "memory");
 184:Drivers/CMSIS/Include/cmsis_gcc.h **** }
 185:Drivers/CMSIS/Include/cmsis_gcc.h **** 
 186:Drivers/CMSIS/Include/cmsis_gcc.h **** 
 187:Drivers/CMSIS/Include/cmsis_gcc.h **** #if (defined (__ARM_FEATURE_CMSE ) && (__ARM_FEATURE_CMSE == 3))
 188:Drivers/CMSIS/Include/cmsis_gcc.h **** /**
 189:Drivers/CMSIS/Include/cmsis_gcc.h ****   \brief   Set Control Register (non-secure)
 190:Drivers/CMSIS/Include/cmsis_gcc.h ****   \details Writes the given value to the non-secure Control Register when in secure state.
 191:Drivers/CMSIS/Include/cmsis_gcc.h ****   \param [in]    control  Control Register value to set
 192:Drivers/CMSIS/Include/cmsis_gcc.h ****  */
 193:Drivers/CMSIS/Include/cmsis_gcc.h **** __STATIC_FORCEINLINE void __TZ_set_CONTROL_NS(uint32_t control)
 194:Drivers/CMSIS/Include/cmsis_gcc.h **** {
 195:Drivers/CMSIS/Include/cmsis_gcc.h ****   __ASM volatile ("MSR control_ns, %0" : : "r" (control) : "memory");
 196:Drivers/CMSIS/Include/cmsis_gcc.h **** }
 197:Drivers/CMSIS/Include/cmsis_gcc.h **** #endif
 198:Drivers/CMSIS/Include/cmsis_gcc.h **** 
 199:Drivers/CMSIS/Include/cmsis_gcc.h **** 
ARM GAS  /var/folders/b1/22c950295gx2kqj80tvj8wqc0000gn/T//ccykJ5HB.s 			page 14


 200:Drivers/CMSIS/Include/cmsis_gcc.h **** /**
 201:Drivers/CMSIS/Include/cmsis_gcc.h ****   \brief   Get IPSR Register
 202:Drivers/CMSIS/Include/cmsis_gcc.h ****   \details Returns the content of the IPSR Register.
 203:Drivers/CMSIS/Include/cmsis_gcc.h ****   \return               IPSR Register value
 204:Drivers/CMSIS/Include/cmsis_gcc.h ****  */
 205:Drivers/CMSIS/Include/cmsis_gcc.h **** __STATIC_FORCEINLINE uint32_t __get_IPSR(void)
 206:Drivers/CMSIS/Include/cmsis_gcc.h **** {
 207:Drivers/CMSIS/Include/cmsis_gcc.h ****   uint32_t result;
 208:Drivers/CMSIS/Include/cmsis_gcc.h **** 
 209:Drivers/CMSIS/Include/cmsis_gcc.h ****   __ASM volatile ("MRS %0, ipsr" : "=r" (result) );
 210:Drivers/CMSIS/Include/cmsis_gcc.h ****   return(result);
 211:Drivers/CMSIS/Include/cmsis_gcc.h **** }
 212:Drivers/CMSIS/Include/cmsis_gcc.h **** 
 213:Drivers/CMSIS/Include/cmsis_gcc.h **** 
 214:Drivers/CMSIS/Include/cmsis_gcc.h **** /**
 215:Drivers/CMSIS/Include/cmsis_gcc.h ****   \brief   Get APSR Register
 216:Drivers/CMSIS/Include/cmsis_gcc.h ****   \details Returns the content of the APSR Register.
 217:Drivers/CMSIS/Include/cmsis_gcc.h ****   \return               APSR Register value
 218:Drivers/CMSIS/Include/cmsis_gcc.h ****  */
 219:Drivers/CMSIS/Include/cmsis_gcc.h **** __STATIC_FORCEINLINE uint32_t __get_APSR(void)
 220:Drivers/CMSIS/Include/cmsis_gcc.h **** {
 221:Drivers/CMSIS/Include/cmsis_gcc.h ****   uint32_t result;
 222:Drivers/CMSIS/Include/cmsis_gcc.h **** 
 223:Drivers/CMSIS/Include/cmsis_gcc.h ****   __ASM volatile ("MRS %0, apsr" : "=r" (result) );
 224:Drivers/CMSIS/Include/cmsis_gcc.h ****   return(result);
 225:Drivers/CMSIS/Include/cmsis_gcc.h **** }
 226:Drivers/CMSIS/Include/cmsis_gcc.h **** 
 227:Drivers/CMSIS/Include/cmsis_gcc.h **** 
 228:Drivers/CMSIS/Include/cmsis_gcc.h **** /**
 229:Drivers/CMSIS/Include/cmsis_gcc.h ****   \brief   Get xPSR Register
 230:Drivers/CMSIS/Include/cmsis_gcc.h ****   \details Returns the content of the xPSR Register.
 231:Drivers/CMSIS/Include/cmsis_gcc.h ****   \return               xPSR Register value
 232:Drivers/CMSIS/Include/cmsis_gcc.h ****  */
 233:Drivers/CMSIS/Include/cmsis_gcc.h **** __STATIC_FORCEINLINE uint32_t __get_xPSR(void)
 234:Drivers/CMSIS/Include/cmsis_gcc.h **** {
 235:Drivers/CMSIS/Include/cmsis_gcc.h ****   uint32_t result;
 236:Drivers/CMSIS/Include/cmsis_gcc.h **** 
 237:Drivers/CMSIS/Include/cmsis_gcc.h ****   __ASM volatile ("MRS %0, xpsr" : "=r" (result) );
 238:Drivers/CMSIS/Include/cmsis_gcc.h ****   return(result);
 239:Drivers/CMSIS/Include/cmsis_gcc.h **** }
 240:Drivers/CMSIS/Include/cmsis_gcc.h **** 
 241:Drivers/CMSIS/Include/cmsis_gcc.h **** 
 242:Drivers/CMSIS/Include/cmsis_gcc.h **** /**
 243:Drivers/CMSIS/Include/cmsis_gcc.h ****   \brief   Get Process Stack Pointer
 244:Drivers/CMSIS/Include/cmsis_gcc.h ****   \details Returns the current value of the Process Stack Pointer (PSP).
 245:Drivers/CMSIS/Include/cmsis_gcc.h ****   \return               PSP Register value
 246:Drivers/CMSIS/Include/cmsis_gcc.h ****  */
 247:Drivers/CMSIS/Include/cmsis_gcc.h **** __STATIC_FORCEINLINE uint32_t __get_PSP(void)
 248:Drivers/CMSIS/Include/cmsis_gcc.h **** {
 249:Drivers/CMSIS/Include/cmsis_gcc.h ****   uint32_t result;
 250:Drivers/CMSIS/Include/cmsis_gcc.h **** 
 251:Drivers/CMSIS/Include/cmsis_gcc.h ****   __ASM volatile ("MRS %0, psp"  : "=r" (result) );
 252:Drivers/CMSIS/Include/cmsis_gcc.h ****   return(result);
 253:Drivers/CMSIS/Include/cmsis_gcc.h **** }
 254:Drivers/CMSIS/Include/cmsis_gcc.h **** 
 255:Drivers/CMSIS/Include/cmsis_gcc.h **** 
 256:Drivers/CMSIS/Include/cmsis_gcc.h **** #if (defined (__ARM_FEATURE_CMSE ) && (__ARM_FEATURE_CMSE == 3))
ARM GAS  /var/folders/b1/22c950295gx2kqj80tvj8wqc0000gn/T//ccykJ5HB.s 			page 15


 257:Drivers/CMSIS/Include/cmsis_gcc.h **** /**
 258:Drivers/CMSIS/Include/cmsis_gcc.h ****   \brief   Get Process Stack Pointer (non-secure)
 259:Drivers/CMSIS/Include/cmsis_gcc.h ****   \details Returns the current value of the non-secure Process Stack Pointer (PSP) when in secure s
 260:Drivers/CMSIS/Include/cmsis_gcc.h ****   \return               PSP Register value
 261:Drivers/CMSIS/Include/cmsis_gcc.h ****  */
 262:Drivers/CMSIS/Include/cmsis_gcc.h **** __STATIC_FORCEINLINE uint32_t __TZ_get_PSP_NS(void)
 263:Drivers/CMSIS/Include/cmsis_gcc.h **** {
 264:Drivers/CMSIS/Include/cmsis_gcc.h ****   uint32_t result;
 265:Drivers/CMSIS/Include/cmsis_gcc.h **** 
 266:Drivers/CMSIS/Include/cmsis_gcc.h ****   __ASM volatile ("MRS %0, psp_ns"  : "=r" (result) );
 267:Drivers/CMSIS/Include/cmsis_gcc.h ****   return(result);
 268:Drivers/CMSIS/Include/cmsis_gcc.h **** }
 269:Drivers/CMSIS/Include/cmsis_gcc.h **** #endif
 270:Drivers/CMSIS/Include/cmsis_gcc.h **** 
 271:Drivers/CMSIS/Include/cmsis_gcc.h **** 
 272:Drivers/CMSIS/Include/cmsis_gcc.h **** /**
 273:Drivers/CMSIS/Include/cmsis_gcc.h ****   \brief   Set Process Stack Pointer
 274:Drivers/CMSIS/Include/cmsis_gcc.h ****   \details Assigns the given value to the Process Stack Pointer (PSP).
 275:Drivers/CMSIS/Include/cmsis_gcc.h ****   \param [in]    topOfProcStack  Process Stack Pointer value to set
 276:Drivers/CMSIS/Include/cmsis_gcc.h ****  */
 277:Drivers/CMSIS/Include/cmsis_gcc.h **** __STATIC_FORCEINLINE void __set_PSP(uint32_t topOfProcStack)
 278:Drivers/CMSIS/Include/cmsis_gcc.h **** {
 279:Drivers/CMSIS/Include/cmsis_gcc.h ****   __ASM volatile ("MSR psp, %0" : : "r" (topOfProcStack) : );
 280:Drivers/CMSIS/Include/cmsis_gcc.h **** }
 281:Drivers/CMSIS/Include/cmsis_gcc.h **** 
 282:Drivers/CMSIS/Include/cmsis_gcc.h **** 
 283:Drivers/CMSIS/Include/cmsis_gcc.h **** #if (defined (__ARM_FEATURE_CMSE ) && (__ARM_FEATURE_CMSE == 3))
 284:Drivers/CMSIS/Include/cmsis_gcc.h **** /**
 285:Drivers/CMSIS/Include/cmsis_gcc.h ****   \brief   Set Process Stack Pointer (non-secure)
 286:Drivers/CMSIS/Include/cmsis_gcc.h ****   \details Assigns the given value to the non-secure Process Stack Pointer (PSP) when in secure sta
 287:Drivers/CMSIS/Include/cmsis_gcc.h ****   \param [in]    topOfProcStack  Process Stack Pointer value to set
 288:Drivers/CMSIS/Include/cmsis_gcc.h ****  */
 289:Drivers/CMSIS/Include/cmsis_gcc.h **** __STATIC_FORCEINLINE void __TZ_set_PSP_NS(uint32_t topOfProcStack)
 290:Drivers/CMSIS/Include/cmsis_gcc.h **** {
 291:Drivers/CMSIS/Include/cmsis_gcc.h ****   __ASM volatile ("MSR psp_ns, %0" : : "r" (topOfProcStack) : );
 292:Drivers/CMSIS/Include/cmsis_gcc.h **** }
 293:Drivers/CMSIS/Include/cmsis_gcc.h **** #endif
 294:Drivers/CMSIS/Include/cmsis_gcc.h **** 
 295:Drivers/CMSIS/Include/cmsis_gcc.h **** 
 296:Drivers/CMSIS/Include/cmsis_gcc.h **** /**
 297:Drivers/CMSIS/Include/cmsis_gcc.h ****   \brief   Get Main Stack Pointer
 298:Drivers/CMSIS/Include/cmsis_gcc.h ****   \details Returns the current value of the Main Stack Pointer (MSP).
 299:Drivers/CMSIS/Include/cmsis_gcc.h ****   \return               MSP Register value
 300:Drivers/CMSIS/Include/cmsis_gcc.h ****  */
 301:Drivers/CMSIS/Include/cmsis_gcc.h **** __STATIC_FORCEINLINE uint32_t __get_MSP(void)
 302:Drivers/CMSIS/Include/cmsis_gcc.h **** {
 303:Drivers/CMSIS/Include/cmsis_gcc.h ****   uint32_t result;
 304:Drivers/CMSIS/Include/cmsis_gcc.h **** 
 305:Drivers/CMSIS/Include/cmsis_gcc.h ****   __ASM volatile ("MRS %0, msp" : "=r" (result) );
 306:Drivers/CMSIS/Include/cmsis_gcc.h ****   return(result);
 307:Drivers/CMSIS/Include/cmsis_gcc.h **** }
 308:Drivers/CMSIS/Include/cmsis_gcc.h **** 
 309:Drivers/CMSIS/Include/cmsis_gcc.h **** 
 310:Drivers/CMSIS/Include/cmsis_gcc.h **** #if (defined (__ARM_FEATURE_CMSE ) && (__ARM_FEATURE_CMSE == 3))
 311:Drivers/CMSIS/Include/cmsis_gcc.h **** /**
 312:Drivers/CMSIS/Include/cmsis_gcc.h ****   \brief   Get Main Stack Pointer (non-secure)
 313:Drivers/CMSIS/Include/cmsis_gcc.h ****   \details Returns the current value of the non-secure Main Stack Pointer (MSP) when in secure stat
ARM GAS  /var/folders/b1/22c950295gx2kqj80tvj8wqc0000gn/T//ccykJ5HB.s 			page 16


 314:Drivers/CMSIS/Include/cmsis_gcc.h ****   \return               MSP Register value
 315:Drivers/CMSIS/Include/cmsis_gcc.h ****  */
 316:Drivers/CMSIS/Include/cmsis_gcc.h **** __STATIC_FORCEINLINE uint32_t __TZ_get_MSP_NS(void)
 317:Drivers/CMSIS/Include/cmsis_gcc.h **** {
 318:Drivers/CMSIS/Include/cmsis_gcc.h ****   uint32_t result;
 319:Drivers/CMSIS/Include/cmsis_gcc.h **** 
 320:Drivers/CMSIS/Include/cmsis_gcc.h ****   __ASM volatile ("MRS %0, msp_ns" : "=r" (result) );
 321:Drivers/CMSIS/Include/cmsis_gcc.h ****   return(result);
 322:Drivers/CMSIS/Include/cmsis_gcc.h **** }
 323:Drivers/CMSIS/Include/cmsis_gcc.h **** #endif
 324:Drivers/CMSIS/Include/cmsis_gcc.h **** 
 325:Drivers/CMSIS/Include/cmsis_gcc.h **** 
 326:Drivers/CMSIS/Include/cmsis_gcc.h **** /**
 327:Drivers/CMSIS/Include/cmsis_gcc.h ****   \brief   Set Main Stack Pointer
 328:Drivers/CMSIS/Include/cmsis_gcc.h ****   \details Assigns the given value to the Main Stack Pointer (MSP).
 329:Drivers/CMSIS/Include/cmsis_gcc.h ****   \param [in]    topOfMainStack  Main Stack Pointer value to set
 330:Drivers/CMSIS/Include/cmsis_gcc.h ****  */
 331:Drivers/CMSIS/Include/cmsis_gcc.h **** __STATIC_FORCEINLINE void __set_MSP(uint32_t topOfMainStack)
 332:Drivers/CMSIS/Include/cmsis_gcc.h **** {
 333:Drivers/CMSIS/Include/cmsis_gcc.h ****   __ASM volatile ("MSR msp, %0" : : "r" (topOfMainStack) : );
 334:Drivers/CMSIS/Include/cmsis_gcc.h **** }
 335:Drivers/CMSIS/Include/cmsis_gcc.h **** 
 336:Drivers/CMSIS/Include/cmsis_gcc.h **** 
 337:Drivers/CMSIS/Include/cmsis_gcc.h **** #if (defined (__ARM_FEATURE_CMSE ) && (__ARM_FEATURE_CMSE == 3))
 338:Drivers/CMSIS/Include/cmsis_gcc.h **** /**
 339:Drivers/CMSIS/Include/cmsis_gcc.h ****   \brief   Set Main Stack Pointer (non-secure)
 340:Drivers/CMSIS/Include/cmsis_gcc.h ****   \details Assigns the given value to the non-secure Main Stack Pointer (MSP) when in secure state.
 341:Drivers/CMSIS/Include/cmsis_gcc.h ****   \param [in]    topOfMainStack  Main Stack Pointer value to set
 342:Drivers/CMSIS/Include/cmsis_gcc.h ****  */
 343:Drivers/CMSIS/Include/cmsis_gcc.h **** __STATIC_FORCEINLINE void __TZ_set_MSP_NS(uint32_t topOfMainStack)
 344:Drivers/CMSIS/Include/cmsis_gcc.h **** {
 345:Drivers/CMSIS/Include/cmsis_gcc.h ****   __ASM volatile ("MSR msp_ns, %0" : : "r" (topOfMainStack) : );
 346:Drivers/CMSIS/Include/cmsis_gcc.h **** }
 347:Drivers/CMSIS/Include/cmsis_gcc.h **** #endif
 348:Drivers/CMSIS/Include/cmsis_gcc.h **** 
 349:Drivers/CMSIS/Include/cmsis_gcc.h **** 
 350:Drivers/CMSIS/Include/cmsis_gcc.h **** #if (defined (__ARM_FEATURE_CMSE ) && (__ARM_FEATURE_CMSE == 3))
 351:Drivers/CMSIS/Include/cmsis_gcc.h **** /**
 352:Drivers/CMSIS/Include/cmsis_gcc.h ****   \brief   Get Stack Pointer (non-secure)
 353:Drivers/CMSIS/Include/cmsis_gcc.h ****   \details Returns the current value of the non-secure Stack Pointer (SP) when in secure state.
 354:Drivers/CMSIS/Include/cmsis_gcc.h ****   \return               SP Register value
 355:Drivers/CMSIS/Include/cmsis_gcc.h ****  */
 356:Drivers/CMSIS/Include/cmsis_gcc.h **** __STATIC_FORCEINLINE uint32_t __TZ_get_SP_NS(void)
 357:Drivers/CMSIS/Include/cmsis_gcc.h **** {
 358:Drivers/CMSIS/Include/cmsis_gcc.h ****   uint32_t result;
 359:Drivers/CMSIS/Include/cmsis_gcc.h **** 
 360:Drivers/CMSIS/Include/cmsis_gcc.h ****   __ASM volatile ("MRS %0, sp_ns" : "=r" (result) );
 361:Drivers/CMSIS/Include/cmsis_gcc.h ****   return(result);
 362:Drivers/CMSIS/Include/cmsis_gcc.h **** }
 363:Drivers/CMSIS/Include/cmsis_gcc.h **** 
 364:Drivers/CMSIS/Include/cmsis_gcc.h **** 
 365:Drivers/CMSIS/Include/cmsis_gcc.h **** /**
 366:Drivers/CMSIS/Include/cmsis_gcc.h ****   \brief   Set Stack Pointer (non-secure)
 367:Drivers/CMSIS/Include/cmsis_gcc.h ****   \details Assigns the given value to the non-secure Stack Pointer (SP) when in secure state.
 368:Drivers/CMSIS/Include/cmsis_gcc.h ****   \param [in]    topOfStack  Stack Pointer value to set
 369:Drivers/CMSIS/Include/cmsis_gcc.h ****  */
 370:Drivers/CMSIS/Include/cmsis_gcc.h **** __STATIC_FORCEINLINE void __TZ_set_SP_NS(uint32_t topOfStack)
ARM GAS  /var/folders/b1/22c950295gx2kqj80tvj8wqc0000gn/T//ccykJ5HB.s 			page 17


 371:Drivers/CMSIS/Include/cmsis_gcc.h **** {
 372:Drivers/CMSIS/Include/cmsis_gcc.h ****   __ASM volatile ("MSR sp_ns, %0" : : "r" (topOfStack) : );
 373:Drivers/CMSIS/Include/cmsis_gcc.h **** }
 374:Drivers/CMSIS/Include/cmsis_gcc.h **** #endif
 375:Drivers/CMSIS/Include/cmsis_gcc.h **** 
 376:Drivers/CMSIS/Include/cmsis_gcc.h **** 
 377:Drivers/CMSIS/Include/cmsis_gcc.h **** /**
 378:Drivers/CMSIS/Include/cmsis_gcc.h ****   \brief   Get Priority Mask
 379:Drivers/CMSIS/Include/cmsis_gcc.h ****   \details Returns the current state of the priority mask bit from the Priority Mask Register.
 380:Drivers/CMSIS/Include/cmsis_gcc.h ****   \return               Priority Mask value
 381:Drivers/CMSIS/Include/cmsis_gcc.h ****  */
 382:Drivers/CMSIS/Include/cmsis_gcc.h **** __STATIC_FORCEINLINE uint32_t __get_PRIMASK(void)
 383:Drivers/CMSIS/Include/cmsis_gcc.h **** {
 384:Drivers/CMSIS/Include/cmsis_gcc.h ****   uint32_t result;
 385:Drivers/CMSIS/Include/cmsis_gcc.h **** 
 386:Drivers/CMSIS/Include/cmsis_gcc.h ****   __ASM volatile ("MRS %0, primask" : "=r" (result) :: "memory");
 387:Drivers/CMSIS/Include/cmsis_gcc.h ****   return(result);
 388:Drivers/CMSIS/Include/cmsis_gcc.h **** }
 389:Drivers/CMSIS/Include/cmsis_gcc.h **** 
 390:Drivers/CMSIS/Include/cmsis_gcc.h **** 
 391:Drivers/CMSIS/Include/cmsis_gcc.h **** #if (defined (__ARM_FEATURE_CMSE ) && (__ARM_FEATURE_CMSE == 3))
 392:Drivers/CMSIS/Include/cmsis_gcc.h **** /**
 393:Drivers/CMSIS/Include/cmsis_gcc.h ****   \brief   Get Priority Mask (non-secure)
 394:Drivers/CMSIS/Include/cmsis_gcc.h ****   \details Returns the current state of the non-secure priority mask bit from the Priority Mask Reg
 395:Drivers/CMSIS/Include/cmsis_gcc.h ****   \return               Priority Mask value
 396:Drivers/CMSIS/Include/cmsis_gcc.h ****  */
 397:Drivers/CMSIS/Include/cmsis_gcc.h **** __STATIC_FORCEINLINE uint32_t __TZ_get_PRIMASK_NS(void)
 398:Drivers/CMSIS/Include/cmsis_gcc.h **** {
 399:Drivers/CMSIS/Include/cmsis_gcc.h ****   uint32_t result;
 400:Drivers/CMSIS/Include/cmsis_gcc.h **** 
 401:Drivers/CMSIS/Include/cmsis_gcc.h ****   __ASM volatile ("MRS %0, primask_ns" : "=r" (result) :: "memory");
 402:Drivers/CMSIS/Include/cmsis_gcc.h ****   return(result);
 403:Drivers/CMSIS/Include/cmsis_gcc.h **** }
 404:Drivers/CMSIS/Include/cmsis_gcc.h **** #endif
 405:Drivers/CMSIS/Include/cmsis_gcc.h **** 
 406:Drivers/CMSIS/Include/cmsis_gcc.h **** 
 407:Drivers/CMSIS/Include/cmsis_gcc.h **** /**
 408:Drivers/CMSIS/Include/cmsis_gcc.h ****   \brief   Set Priority Mask
 409:Drivers/CMSIS/Include/cmsis_gcc.h ****   \details Assigns the given value to the Priority Mask Register.
 410:Drivers/CMSIS/Include/cmsis_gcc.h ****   \param [in]    priMask  Priority Mask
 411:Drivers/CMSIS/Include/cmsis_gcc.h ****  */
 412:Drivers/CMSIS/Include/cmsis_gcc.h **** __STATIC_FORCEINLINE void __set_PRIMASK(uint32_t priMask)
 413:Drivers/CMSIS/Include/cmsis_gcc.h **** {
 414:Drivers/CMSIS/Include/cmsis_gcc.h ****   __ASM volatile ("MSR primask, %0" : : "r" (priMask) : "memory");
 415:Drivers/CMSIS/Include/cmsis_gcc.h **** }
 416:Drivers/CMSIS/Include/cmsis_gcc.h **** 
 417:Drivers/CMSIS/Include/cmsis_gcc.h **** 
 418:Drivers/CMSIS/Include/cmsis_gcc.h **** #if (defined (__ARM_FEATURE_CMSE ) && (__ARM_FEATURE_CMSE == 3))
 419:Drivers/CMSIS/Include/cmsis_gcc.h **** /**
 420:Drivers/CMSIS/Include/cmsis_gcc.h ****   \brief   Set Priority Mask (non-secure)
 421:Drivers/CMSIS/Include/cmsis_gcc.h ****   \details Assigns the given value to the non-secure Priority Mask Register when in secure state.
 422:Drivers/CMSIS/Include/cmsis_gcc.h ****   \param [in]    priMask  Priority Mask
 423:Drivers/CMSIS/Include/cmsis_gcc.h ****  */
 424:Drivers/CMSIS/Include/cmsis_gcc.h **** __STATIC_FORCEINLINE void __TZ_set_PRIMASK_NS(uint32_t priMask)
 425:Drivers/CMSIS/Include/cmsis_gcc.h **** {
 426:Drivers/CMSIS/Include/cmsis_gcc.h ****   __ASM volatile ("MSR primask_ns, %0" : : "r" (priMask) : "memory");
 427:Drivers/CMSIS/Include/cmsis_gcc.h **** }
ARM GAS  /var/folders/b1/22c950295gx2kqj80tvj8wqc0000gn/T//ccykJ5HB.s 			page 18


 428:Drivers/CMSIS/Include/cmsis_gcc.h **** #endif
 429:Drivers/CMSIS/Include/cmsis_gcc.h **** 
 430:Drivers/CMSIS/Include/cmsis_gcc.h **** 
 431:Drivers/CMSIS/Include/cmsis_gcc.h **** #if ((defined (__ARM_ARCH_7M__      ) && (__ARM_ARCH_7M__      == 1)) || \
 432:Drivers/CMSIS/Include/cmsis_gcc.h ****      (defined (__ARM_ARCH_7EM__     ) && (__ARM_ARCH_7EM__     == 1)) || \
 433:Drivers/CMSIS/Include/cmsis_gcc.h ****      (defined (__ARM_ARCH_8M_MAIN__ ) && (__ARM_ARCH_8M_MAIN__ == 1))    )
 434:Drivers/CMSIS/Include/cmsis_gcc.h **** /**
 435:Drivers/CMSIS/Include/cmsis_gcc.h ****   \brief   Enable FIQ
 436:Drivers/CMSIS/Include/cmsis_gcc.h ****   \details Enables FIQ interrupts by clearing the F-bit in the CPSR.
 437:Drivers/CMSIS/Include/cmsis_gcc.h ****            Can only be executed in Privileged modes.
 438:Drivers/CMSIS/Include/cmsis_gcc.h ****  */
 439:Drivers/CMSIS/Include/cmsis_gcc.h **** __STATIC_FORCEINLINE void __enable_fault_irq(void)
 440:Drivers/CMSIS/Include/cmsis_gcc.h **** {
 441:Drivers/CMSIS/Include/cmsis_gcc.h ****   __ASM volatile ("cpsie f" : : : "memory");
 442:Drivers/CMSIS/Include/cmsis_gcc.h **** }
 443:Drivers/CMSIS/Include/cmsis_gcc.h **** 
 444:Drivers/CMSIS/Include/cmsis_gcc.h **** 
 445:Drivers/CMSIS/Include/cmsis_gcc.h **** /**
 446:Drivers/CMSIS/Include/cmsis_gcc.h ****   \brief   Disable FIQ
 447:Drivers/CMSIS/Include/cmsis_gcc.h ****   \details Disables FIQ interrupts by setting the F-bit in the CPSR.
 448:Drivers/CMSIS/Include/cmsis_gcc.h ****            Can only be executed in Privileged modes.
 449:Drivers/CMSIS/Include/cmsis_gcc.h ****  */
 450:Drivers/CMSIS/Include/cmsis_gcc.h **** __STATIC_FORCEINLINE void __disable_fault_irq(void)
 451:Drivers/CMSIS/Include/cmsis_gcc.h **** {
 452:Drivers/CMSIS/Include/cmsis_gcc.h ****   __ASM volatile ("cpsid f" : : : "memory");
 453:Drivers/CMSIS/Include/cmsis_gcc.h **** }
 454:Drivers/CMSIS/Include/cmsis_gcc.h **** 
 455:Drivers/CMSIS/Include/cmsis_gcc.h **** 
 456:Drivers/CMSIS/Include/cmsis_gcc.h **** /**
 457:Drivers/CMSIS/Include/cmsis_gcc.h ****   \brief   Get Base Priority
 458:Drivers/CMSIS/Include/cmsis_gcc.h ****   \details Returns the current value of the Base Priority register.
 459:Drivers/CMSIS/Include/cmsis_gcc.h ****   \return               Base Priority register value
 460:Drivers/CMSIS/Include/cmsis_gcc.h ****  */
 461:Drivers/CMSIS/Include/cmsis_gcc.h **** __STATIC_FORCEINLINE uint32_t __get_BASEPRI(void)
 462:Drivers/CMSIS/Include/cmsis_gcc.h **** {
 463:Drivers/CMSIS/Include/cmsis_gcc.h ****   uint32_t result;
 464:Drivers/CMSIS/Include/cmsis_gcc.h **** 
 465:Drivers/CMSIS/Include/cmsis_gcc.h ****   __ASM volatile ("MRS %0, basepri" : "=r" (result) );
 466:Drivers/CMSIS/Include/cmsis_gcc.h ****   return(result);
 467:Drivers/CMSIS/Include/cmsis_gcc.h **** }
 468:Drivers/CMSIS/Include/cmsis_gcc.h **** 
 469:Drivers/CMSIS/Include/cmsis_gcc.h **** 
 470:Drivers/CMSIS/Include/cmsis_gcc.h **** #if (defined (__ARM_FEATURE_CMSE ) && (__ARM_FEATURE_CMSE == 3))
 471:Drivers/CMSIS/Include/cmsis_gcc.h **** /**
 472:Drivers/CMSIS/Include/cmsis_gcc.h ****   \brief   Get Base Priority (non-secure)
 473:Drivers/CMSIS/Include/cmsis_gcc.h ****   \details Returns the current value of the non-secure Base Priority register when in secure state.
 474:Drivers/CMSIS/Include/cmsis_gcc.h ****   \return               Base Priority register value
 475:Drivers/CMSIS/Include/cmsis_gcc.h ****  */
 476:Drivers/CMSIS/Include/cmsis_gcc.h **** __STATIC_FORCEINLINE uint32_t __TZ_get_BASEPRI_NS(void)
 477:Drivers/CMSIS/Include/cmsis_gcc.h **** {
 478:Drivers/CMSIS/Include/cmsis_gcc.h ****   uint32_t result;
 479:Drivers/CMSIS/Include/cmsis_gcc.h **** 
 480:Drivers/CMSIS/Include/cmsis_gcc.h ****   __ASM volatile ("MRS %0, basepri_ns" : "=r" (result) );
 481:Drivers/CMSIS/Include/cmsis_gcc.h ****   return(result);
 482:Drivers/CMSIS/Include/cmsis_gcc.h **** }
 483:Drivers/CMSIS/Include/cmsis_gcc.h **** #endif
 484:Drivers/CMSIS/Include/cmsis_gcc.h **** 
ARM GAS  /var/folders/b1/22c950295gx2kqj80tvj8wqc0000gn/T//ccykJ5HB.s 			page 19


 485:Drivers/CMSIS/Include/cmsis_gcc.h **** 
 486:Drivers/CMSIS/Include/cmsis_gcc.h **** /**
 487:Drivers/CMSIS/Include/cmsis_gcc.h ****   \brief   Set Base Priority
 488:Drivers/CMSIS/Include/cmsis_gcc.h ****   \details Assigns the given value to the Base Priority register.
 489:Drivers/CMSIS/Include/cmsis_gcc.h ****   \param [in]    basePri  Base Priority value to set
 490:Drivers/CMSIS/Include/cmsis_gcc.h ****  */
 491:Drivers/CMSIS/Include/cmsis_gcc.h **** __STATIC_FORCEINLINE void __set_BASEPRI(uint32_t basePri)
 492:Drivers/CMSIS/Include/cmsis_gcc.h **** {
 493:Drivers/CMSIS/Include/cmsis_gcc.h ****   __ASM volatile ("MSR basepri, %0" : : "r" (basePri) : "memory");
 494:Drivers/CMSIS/Include/cmsis_gcc.h **** }
 495:Drivers/CMSIS/Include/cmsis_gcc.h **** 
 496:Drivers/CMSIS/Include/cmsis_gcc.h **** 
 497:Drivers/CMSIS/Include/cmsis_gcc.h **** #if (defined (__ARM_FEATURE_CMSE ) && (__ARM_FEATURE_CMSE == 3))
 498:Drivers/CMSIS/Include/cmsis_gcc.h **** /**
 499:Drivers/CMSIS/Include/cmsis_gcc.h ****   \brief   Set Base Priority (non-secure)
 500:Drivers/CMSIS/Include/cmsis_gcc.h ****   \details Assigns the given value to the non-secure Base Priority register when in secure state.
 501:Drivers/CMSIS/Include/cmsis_gcc.h ****   \param [in]    basePri  Base Priority value to set
 502:Drivers/CMSIS/Include/cmsis_gcc.h ****  */
 503:Drivers/CMSIS/Include/cmsis_gcc.h **** __STATIC_FORCEINLINE void __TZ_set_BASEPRI_NS(uint32_t basePri)
 504:Drivers/CMSIS/Include/cmsis_gcc.h **** {
 505:Drivers/CMSIS/Include/cmsis_gcc.h ****   __ASM volatile ("MSR basepri_ns, %0" : : "r" (basePri) : "memory");
 506:Drivers/CMSIS/Include/cmsis_gcc.h **** }
 507:Drivers/CMSIS/Include/cmsis_gcc.h **** #endif
 508:Drivers/CMSIS/Include/cmsis_gcc.h **** 
 509:Drivers/CMSIS/Include/cmsis_gcc.h **** 
 510:Drivers/CMSIS/Include/cmsis_gcc.h **** /**
 511:Drivers/CMSIS/Include/cmsis_gcc.h ****   \brief   Set Base Priority with condition
 512:Drivers/CMSIS/Include/cmsis_gcc.h ****   \details Assigns the given value to the Base Priority register only if BASEPRI masking is disable
 513:Drivers/CMSIS/Include/cmsis_gcc.h ****            or the new value increases the BASEPRI priority level.
 514:Drivers/CMSIS/Include/cmsis_gcc.h ****   \param [in]    basePri  Base Priority value to set
 515:Drivers/CMSIS/Include/cmsis_gcc.h ****  */
 516:Drivers/CMSIS/Include/cmsis_gcc.h **** __STATIC_FORCEINLINE void __set_BASEPRI_MAX(uint32_t basePri)
 517:Drivers/CMSIS/Include/cmsis_gcc.h **** {
 518:Drivers/CMSIS/Include/cmsis_gcc.h ****   __ASM volatile ("MSR basepri_max, %0" : : "r" (basePri) : "memory");
 519:Drivers/CMSIS/Include/cmsis_gcc.h **** }
 520:Drivers/CMSIS/Include/cmsis_gcc.h **** 
 521:Drivers/CMSIS/Include/cmsis_gcc.h **** 
 522:Drivers/CMSIS/Include/cmsis_gcc.h **** /**
 523:Drivers/CMSIS/Include/cmsis_gcc.h ****   \brief   Get Fault Mask
 524:Drivers/CMSIS/Include/cmsis_gcc.h ****   \details Returns the current value of the Fault Mask register.
 525:Drivers/CMSIS/Include/cmsis_gcc.h ****   \return               Fault Mask register value
 526:Drivers/CMSIS/Include/cmsis_gcc.h ****  */
 527:Drivers/CMSIS/Include/cmsis_gcc.h **** __STATIC_FORCEINLINE uint32_t __get_FAULTMASK(void)
 528:Drivers/CMSIS/Include/cmsis_gcc.h **** {
 529:Drivers/CMSIS/Include/cmsis_gcc.h ****   uint32_t result;
 530:Drivers/CMSIS/Include/cmsis_gcc.h **** 
 531:Drivers/CMSIS/Include/cmsis_gcc.h ****   __ASM volatile ("MRS %0, faultmask" : "=r" (result) );
 532:Drivers/CMSIS/Include/cmsis_gcc.h ****   return(result);
 533:Drivers/CMSIS/Include/cmsis_gcc.h **** }
 534:Drivers/CMSIS/Include/cmsis_gcc.h **** 
 535:Drivers/CMSIS/Include/cmsis_gcc.h **** 
 536:Drivers/CMSIS/Include/cmsis_gcc.h **** #if (defined (__ARM_FEATURE_CMSE ) && (__ARM_FEATURE_CMSE == 3))
 537:Drivers/CMSIS/Include/cmsis_gcc.h **** /**
 538:Drivers/CMSIS/Include/cmsis_gcc.h ****   \brief   Get Fault Mask (non-secure)
 539:Drivers/CMSIS/Include/cmsis_gcc.h ****   \details Returns the current value of the non-secure Fault Mask register when in secure state.
 540:Drivers/CMSIS/Include/cmsis_gcc.h ****   \return               Fault Mask register value
 541:Drivers/CMSIS/Include/cmsis_gcc.h ****  */
ARM GAS  /var/folders/b1/22c950295gx2kqj80tvj8wqc0000gn/T//ccykJ5HB.s 			page 20


 542:Drivers/CMSIS/Include/cmsis_gcc.h **** __STATIC_FORCEINLINE uint32_t __TZ_get_FAULTMASK_NS(void)
 543:Drivers/CMSIS/Include/cmsis_gcc.h **** {
 544:Drivers/CMSIS/Include/cmsis_gcc.h ****   uint32_t result;
 545:Drivers/CMSIS/Include/cmsis_gcc.h **** 
 546:Drivers/CMSIS/Include/cmsis_gcc.h ****   __ASM volatile ("MRS %0, faultmask_ns" : "=r" (result) );
 547:Drivers/CMSIS/Include/cmsis_gcc.h ****   return(result);
 548:Drivers/CMSIS/Include/cmsis_gcc.h **** }
 549:Drivers/CMSIS/Include/cmsis_gcc.h **** #endif
 550:Drivers/CMSIS/Include/cmsis_gcc.h **** 
 551:Drivers/CMSIS/Include/cmsis_gcc.h **** 
 552:Drivers/CMSIS/Include/cmsis_gcc.h **** /**
 553:Drivers/CMSIS/Include/cmsis_gcc.h ****   \brief   Set Fault Mask
 554:Drivers/CMSIS/Include/cmsis_gcc.h ****   \details Assigns the given value to the Fault Mask register.
 555:Drivers/CMSIS/Include/cmsis_gcc.h ****   \param [in]    faultMask  Fault Mask value to set
 556:Drivers/CMSIS/Include/cmsis_gcc.h ****  */
 557:Drivers/CMSIS/Include/cmsis_gcc.h **** __STATIC_FORCEINLINE void __set_FAULTMASK(uint32_t faultMask)
 558:Drivers/CMSIS/Include/cmsis_gcc.h **** {
 559:Drivers/CMSIS/Include/cmsis_gcc.h ****   __ASM volatile ("MSR faultmask, %0" : : "r" (faultMask) : "memory");
 560:Drivers/CMSIS/Include/cmsis_gcc.h **** }
 561:Drivers/CMSIS/Include/cmsis_gcc.h **** 
 562:Drivers/CMSIS/Include/cmsis_gcc.h **** 
 563:Drivers/CMSIS/Include/cmsis_gcc.h **** #if (defined (__ARM_FEATURE_CMSE ) && (__ARM_FEATURE_CMSE == 3))
 564:Drivers/CMSIS/Include/cmsis_gcc.h **** /**
 565:Drivers/CMSIS/Include/cmsis_gcc.h ****   \brief   Set Fault Mask (non-secure)
 566:Drivers/CMSIS/Include/cmsis_gcc.h ****   \details Assigns the given value to the non-secure Fault Mask register when in secure state.
 567:Drivers/CMSIS/Include/cmsis_gcc.h ****   \param [in]    faultMask  Fault Mask value to set
 568:Drivers/CMSIS/Include/cmsis_gcc.h ****  */
 569:Drivers/CMSIS/Include/cmsis_gcc.h **** __STATIC_FORCEINLINE void __TZ_set_FAULTMASK_NS(uint32_t faultMask)
 570:Drivers/CMSIS/Include/cmsis_gcc.h **** {
 571:Drivers/CMSIS/Include/cmsis_gcc.h ****   __ASM volatile ("MSR faultmask_ns, %0" : : "r" (faultMask) : "memory");
 572:Drivers/CMSIS/Include/cmsis_gcc.h **** }
 573:Drivers/CMSIS/Include/cmsis_gcc.h **** #endif
 574:Drivers/CMSIS/Include/cmsis_gcc.h **** 
 575:Drivers/CMSIS/Include/cmsis_gcc.h **** #endif /* ((defined (__ARM_ARCH_7M__      ) && (__ARM_ARCH_7M__      == 1)) || \
 576:Drivers/CMSIS/Include/cmsis_gcc.h ****            (defined (__ARM_ARCH_7EM__     ) && (__ARM_ARCH_7EM__     == 1)) || \
 577:Drivers/CMSIS/Include/cmsis_gcc.h ****            (defined (__ARM_ARCH_8M_MAIN__ ) && (__ARM_ARCH_8M_MAIN__ == 1))    ) */
 578:Drivers/CMSIS/Include/cmsis_gcc.h **** 
 579:Drivers/CMSIS/Include/cmsis_gcc.h **** 
 580:Drivers/CMSIS/Include/cmsis_gcc.h **** #if ((defined (__ARM_ARCH_8M_MAIN__ ) && (__ARM_ARCH_8M_MAIN__ == 1)) || \
 581:Drivers/CMSIS/Include/cmsis_gcc.h ****      (defined (__ARM_ARCH_8M_BASE__ ) && (__ARM_ARCH_8M_BASE__ == 1))    )
 582:Drivers/CMSIS/Include/cmsis_gcc.h **** 
 583:Drivers/CMSIS/Include/cmsis_gcc.h **** /**
 584:Drivers/CMSIS/Include/cmsis_gcc.h ****   \brief   Get Process Stack Pointer Limit
 585:Drivers/CMSIS/Include/cmsis_gcc.h ****   Devices without ARMv8-M Main Extensions (i.e. Cortex-M23) lack the non-secure
 586:Drivers/CMSIS/Include/cmsis_gcc.h ****   Stack Pointer Limit register hence zero is returned always in non-secure
 587:Drivers/CMSIS/Include/cmsis_gcc.h ****   mode.
 588:Drivers/CMSIS/Include/cmsis_gcc.h ****   
 589:Drivers/CMSIS/Include/cmsis_gcc.h ****   \details Returns the current value of the Process Stack Pointer Limit (PSPLIM).
 590:Drivers/CMSIS/Include/cmsis_gcc.h ****   \return               PSPLIM Register value
 591:Drivers/CMSIS/Include/cmsis_gcc.h ****  */
 592:Drivers/CMSIS/Include/cmsis_gcc.h **** __STATIC_FORCEINLINE uint32_t __get_PSPLIM(void)
 593:Drivers/CMSIS/Include/cmsis_gcc.h **** {
 594:Drivers/CMSIS/Include/cmsis_gcc.h **** #if (!(defined (__ARM_ARCH_8M_MAIN__ ) && (__ARM_ARCH_8M_MAIN__ == 1)) && \
 595:Drivers/CMSIS/Include/cmsis_gcc.h ****     (!defined (__ARM_FEATURE_CMSE) || (__ARM_FEATURE_CMSE < 3)))
 596:Drivers/CMSIS/Include/cmsis_gcc.h ****     // without main extensions, the non-secure PSPLIM is RAZ/WI
 597:Drivers/CMSIS/Include/cmsis_gcc.h ****   return 0U;
 598:Drivers/CMSIS/Include/cmsis_gcc.h **** #else
ARM GAS  /var/folders/b1/22c950295gx2kqj80tvj8wqc0000gn/T//ccykJ5HB.s 			page 21


 599:Drivers/CMSIS/Include/cmsis_gcc.h ****   uint32_t result;
 600:Drivers/CMSIS/Include/cmsis_gcc.h ****   __ASM volatile ("MRS %0, psplim"  : "=r" (result) );
 601:Drivers/CMSIS/Include/cmsis_gcc.h ****   return result;
 602:Drivers/CMSIS/Include/cmsis_gcc.h **** #endif
 603:Drivers/CMSIS/Include/cmsis_gcc.h **** }
 604:Drivers/CMSIS/Include/cmsis_gcc.h **** 
 605:Drivers/CMSIS/Include/cmsis_gcc.h **** #if (defined (__ARM_FEATURE_CMSE) && (__ARM_FEATURE_CMSE == 3))
 606:Drivers/CMSIS/Include/cmsis_gcc.h **** /**
 607:Drivers/CMSIS/Include/cmsis_gcc.h ****   \brief   Get Process Stack Pointer Limit (non-secure)
 608:Drivers/CMSIS/Include/cmsis_gcc.h ****   Devices without ARMv8-M Main Extensions (i.e. Cortex-M23) lack the non-secure
 609:Drivers/CMSIS/Include/cmsis_gcc.h ****   Stack Pointer Limit register hence zero is returned always.
 610:Drivers/CMSIS/Include/cmsis_gcc.h **** 
 611:Drivers/CMSIS/Include/cmsis_gcc.h ****   \details Returns the current value of the non-secure Process Stack Pointer Limit (PSPLIM) when in
 612:Drivers/CMSIS/Include/cmsis_gcc.h ****   \return               PSPLIM Register value
 613:Drivers/CMSIS/Include/cmsis_gcc.h ****  */
 614:Drivers/CMSIS/Include/cmsis_gcc.h **** __STATIC_FORCEINLINE uint32_t __TZ_get_PSPLIM_NS(void)
 615:Drivers/CMSIS/Include/cmsis_gcc.h **** {
 616:Drivers/CMSIS/Include/cmsis_gcc.h **** #if (!(defined (__ARM_ARCH_8M_MAIN__ ) && (__ARM_ARCH_8M_MAIN__ == 1)))
 617:Drivers/CMSIS/Include/cmsis_gcc.h ****   // without main extensions, the non-secure PSPLIM is RAZ/WI
 618:Drivers/CMSIS/Include/cmsis_gcc.h ****   return 0U;
 619:Drivers/CMSIS/Include/cmsis_gcc.h **** #else
 620:Drivers/CMSIS/Include/cmsis_gcc.h ****   uint32_t result;
 621:Drivers/CMSIS/Include/cmsis_gcc.h ****   __ASM volatile ("MRS %0, psplim_ns"  : "=r" (result) );
 622:Drivers/CMSIS/Include/cmsis_gcc.h ****   return result;
 623:Drivers/CMSIS/Include/cmsis_gcc.h **** #endif
 624:Drivers/CMSIS/Include/cmsis_gcc.h **** }
 625:Drivers/CMSIS/Include/cmsis_gcc.h **** #endif
 626:Drivers/CMSIS/Include/cmsis_gcc.h **** 
 627:Drivers/CMSIS/Include/cmsis_gcc.h **** 
 628:Drivers/CMSIS/Include/cmsis_gcc.h **** /**
 629:Drivers/CMSIS/Include/cmsis_gcc.h ****   \brief   Set Process Stack Pointer Limit
 630:Drivers/CMSIS/Include/cmsis_gcc.h ****   Devices without ARMv8-M Main Extensions (i.e. Cortex-M23) lack the non-secure
 631:Drivers/CMSIS/Include/cmsis_gcc.h ****   Stack Pointer Limit register hence the write is silently ignored in non-secure
 632:Drivers/CMSIS/Include/cmsis_gcc.h ****   mode.
 633:Drivers/CMSIS/Include/cmsis_gcc.h ****   
 634:Drivers/CMSIS/Include/cmsis_gcc.h ****   \details Assigns the given value to the Process Stack Pointer Limit (PSPLIM).
 635:Drivers/CMSIS/Include/cmsis_gcc.h ****   \param [in]    ProcStackPtrLimit  Process Stack Pointer Limit value to set
 636:Drivers/CMSIS/Include/cmsis_gcc.h ****  */
 637:Drivers/CMSIS/Include/cmsis_gcc.h **** __STATIC_FORCEINLINE void __set_PSPLIM(uint32_t ProcStackPtrLimit)
 638:Drivers/CMSIS/Include/cmsis_gcc.h **** {
 639:Drivers/CMSIS/Include/cmsis_gcc.h **** #if (!(defined (__ARM_ARCH_8M_MAIN__ ) && (__ARM_ARCH_8M_MAIN__ == 1)) && \
 640:Drivers/CMSIS/Include/cmsis_gcc.h ****     (!defined (__ARM_FEATURE_CMSE) || (__ARM_FEATURE_CMSE < 3)))
 641:Drivers/CMSIS/Include/cmsis_gcc.h ****   // without main extensions, the non-secure PSPLIM is RAZ/WI
 642:Drivers/CMSIS/Include/cmsis_gcc.h ****   (void)ProcStackPtrLimit;
 643:Drivers/CMSIS/Include/cmsis_gcc.h **** #else
 644:Drivers/CMSIS/Include/cmsis_gcc.h ****   __ASM volatile ("MSR psplim, %0" : : "r" (ProcStackPtrLimit));
 645:Drivers/CMSIS/Include/cmsis_gcc.h **** #endif
 646:Drivers/CMSIS/Include/cmsis_gcc.h **** }
 647:Drivers/CMSIS/Include/cmsis_gcc.h **** 
 648:Drivers/CMSIS/Include/cmsis_gcc.h **** 
 649:Drivers/CMSIS/Include/cmsis_gcc.h **** #if (defined (__ARM_FEATURE_CMSE  ) && (__ARM_FEATURE_CMSE   == 3))
 650:Drivers/CMSIS/Include/cmsis_gcc.h **** /**
 651:Drivers/CMSIS/Include/cmsis_gcc.h ****   \brief   Set Process Stack Pointer (non-secure)
 652:Drivers/CMSIS/Include/cmsis_gcc.h ****   Devices without ARMv8-M Main Extensions (i.e. Cortex-M23) lack the non-secure
 653:Drivers/CMSIS/Include/cmsis_gcc.h ****   Stack Pointer Limit register hence the write is silently ignored.
 654:Drivers/CMSIS/Include/cmsis_gcc.h **** 
 655:Drivers/CMSIS/Include/cmsis_gcc.h ****   \details Assigns the given value to the non-secure Process Stack Pointer Limit (PSPLIM) when in s
ARM GAS  /var/folders/b1/22c950295gx2kqj80tvj8wqc0000gn/T//ccykJ5HB.s 			page 22


 656:Drivers/CMSIS/Include/cmsis_gcc.h ****   \param [in]    ProcStackPtrLimit  Process Stack Pointer Limit value to set
 657:Drivers/CMSIS/Include/cmsis_gcc.h ****  */
 658:Drivers/CMSIS/Include/cmsis_gcc.h **** __STATIC_FORCEINLINE void __TZ_set_PSPLIM_NS(uint32_t ProcStackPtrLimit)
 659:Drivers/CMSIS/Include/cmsis_gcc.h **** {
 660:Drivers/CMSIS/Include/cmsis_gcc.h **** #if (!(defined (__ARM_ARCH_8M_MAIN__ ) && (__ARM_ARCH_8M_MAIN__ == 1)))
 661:Drivers/CMSIS/Include/cmsis_gcc.h ****   // without main extensions, the non-secure PSPLIM is RAZ/WI
 662:Drivers/CMSIS/Include/cmsis_gcc.h ****   (void)ProcStackPtrLimit;
 663:Drivers/CMSIS/Include/cmsis_gcc.h **** #else
 664:Drivers/CMSIS/Include/cmsis_gcc.h ****   __ASM volatile ("MSR psplim_ns, %0\n" : : "r" (ProcStackPtrLimit));
 665:Drivers/CMSIS/Include/cmsis_gcc.h **** #endif
 666:Drivers/CMSIS/Include/cmsis_gcc.h **** }
 667:Drivers/CMSIS/Include/cmsis_gcc.h **** #endif
 668:Drivers/CMSIS/Include/cmsis_gcc.h **** 
 669:Drivers/CMSIS/Include/cmsis_gcc.h **** 
 670:Drivers/CMSIS/Include/cmsis_gcc.h **** /**
 671:Drivers/CMSIS/Include/cmsis_gcc.h ****   \brief   Get Main Stack Pointer Limit
 672:Drivers/CMSIS/Include/cmsis_gcc.h ****   Devices without ARMv8-M Main Extensions (i.e. Cortex-M23) lack the non-secure
 673:Drivers/CMSIS/Include/cmsis_gcc.h ****   Stack Pointer Limit register hence zero is returned always in non-secure
 674:Drivers/CMSIS/Include/cmsis_gcc.h ****   mode.
 675:Drivers/CMSIS/Include/cmsis_gcc.h **** 
 676:Drivers/CMSIS/Include/cmsis_gcc.h ****   \details Returns the current value of the Main Stack Pointer Limit (MSPLIM).
 677:Drivers/CMSIS/Include/cmsis_gcc.h ****   \return               MSPLIM Register value
 678:Drivers/CMSIS/Include/cmsis_gcc.h ****  */
 679:Drivers/CMSIS/Include/cmsis_gcc.h **** __STATIC_FORCEINLINE uint32_t __get_MSPLIM(void)
 680:Drivers/CMSIS/Include/cmsis_gcc.h **** {
 681:Drivers/CMSIS/Include/cmsis_gcc.h **** #if (!(defined (__ARM_ARCH_8M_MAIN__ ) && (__ARM_ARCH_8M_MAIN__ == 1)) && \
 682:Drivers/CMSIS/Include/cmsis_gcc.h ****     (!defined (__ARM_FEATURE_CMSE) || (__ARM_FEATURE_CMSE < 3)))
 683:Drivers/CMSIS/Include/cmsis_gcc.h ****   // without main extensions, the non-secure MSPLIM is RAZ/WI
 684:Drivers/CMSIS/Include/cmsis_gcc.h ****   return 0U;
 685:Drivers/CMSIS/Include/cmsis_gcc.h **** #else
 686:Drivers/CMSIS/Include/cmsis_gcc.h ****   uint32_t result;
 687:Drivers/CMSIS/Include/cmsis_gcc.h ****   __ASM volatile ("MRS %0, msplim" : "=r" (result) );
 688:Drivers/CMSIS/Include/cmsis_gcc.h ****   return result;
 689:Drivers/CMSIS/Include/cmsis_gcc.h **** #endif
 690:Drivers/CMSIS/Include/cmsis_gcc.h **** }
 691:Drivers/CMSIS/Include/cmsis_gcc.h **** 
 692:Drivers/CMSIS/Include/cmsis_gcc.h **** 
 693:Drivers/CMSIS/Include/cmsis_gcc.h **** #if (defined (__ARM_FEATURE_CMSE  ) && (__ARM_FEATURE_CMSE   == 3))
 694:Drivers/CMSIS/Include/cmsis_gcc.h **** /**
 695:Drivers/CMSIS/Include/cmsis_gcc.h ****   \brief   Get Main Stack Pointer Limit (non-secure)
 696:Drivers/CMSIS/Include/cmsis_gcc.h ****   Devices without ARMv8-M Main Extensions (i.e. Cortex-M23) lack the non-secure
 697:Drivers/CMSIS/Include/cmsis_gcc.h ****   Stack Pointer Limit register hence zero is returned always.
 698:Drivers/CMSIS/Include/cmsis_gcc.h **** 
 699:Drivers/CMSIS/Include/cmsis_gcc.h ****   \details Returns the current value of the non-secure Main Stack Pointer Limit(MSPLIM) when in sec
 700:Drivers/CMSIS/Include/cmsis_gcc.h ****   \return               MSPLIM Register value
 701:Drivers/CMSIS/Include/cmsis_gcc.h ****  */
 702:Drivers/CMSIS/Include/cmsis_gcc.h **** __STATIC_FORCEINLINE uint32_t __TZ_get_MSPLIM_NS(void)
 703:Drivers/CMSIS/Include/cmsis_gcc.h **** {
 704:Drivers/CMSIS/Include/cmsis_gcc.h **** #if (!(defined (__ARM_ARCH_8M_MAIN__ ) && (__ARM_ARCH_8M_MAIN__ == 1)))
 705:Drivers/CMSIS/Include/cmsis_gcc.h ****   // without main extensions, the non-secure MSPLIM is RAZ/WI
 706:Drivers/CMSIS/Include/cmsis_gcc.h ****   return 0U;
 707:Drivers/CMSIS/Include/cmsis_gcc.h **** #else
 708:Drivers/CMSIS/Include/cmsis_gcc.h ****   uint32_t result;
 709:Drivers/CMSIS/Include/cmsis_gcc.h ****   __ASM volatile ("MRS %0, msplim_ns" : "=r" (result) );
 710:Drivers/CMSIS/Include/cmsis_gcc.h ****   return result;
 711:Drivers/CMSIS/Include/cmsis_gcc.h **** #endif
 712:Drivers/CMSIS/Include/cmsis_gcc.h **** }
ARM GAS  /var/folders/b1/22c950295gx2kqj80tvj8wqc0000gn/T//ccykJ5HB.s 			page 23


 713:Drivers/CMSIS/Include/cmsis_gcc.h **** #endif
 714:Drivers/CMSIS/Include/cmsis_gcc.h **** 
 715:Drivers/CMSIS/Include/cmsis_gcc.h **** 
 716:Drivers/CMSIS/Include/cmsis_gcc.h **** /**
 717:Drivers/CMSIS/Include/cmsis_gcc.h ****   \brief   Set Main Stack Pointer Limit
 718:Drivers/CMSIS/Include/cmsis_gcc.h ****   Devices without ARMv8-M Main Extensions (i.e. Cortex-M23) lack the non-secure
 719:Drivers/CMSIS/Include/cmsis_gcc.h ****   Stack Pointer Limit register hence the write is silently ignored in non-secure
 720:Drivers/CMSIS/Include/cmsis_gcc.h ****   mode.
 721:Drivers/CMSIS/Include/cmsis_gcc.h **** 
 722:Drivers/CMSIS/Include/cmsis_gcc.h ****   \details Assigns the given value to the Main Stack Pointer Limit (MSPLIM).
 723:Drivers/CMSIS/Include/cmsis_gcc.h ****   \param [in]    MainStackPtrLimit  Main Stack Pointer Limit value to set
 724:Drivers/CMSIS/Include/cmsis_gcc.h ****  */
 725:Drivers/CMSIS/Include/cmsis_gcc.h **** __STATIC_FORCEINLINE void __set_MSPLIM(uint32_t MainStackPtrLimit)
 726:Drivers/CMSIS/Include/cmsis_gcc.h **** {
 727:Drivers/CMSIS/Include/cmsis_gcc.h **** #if (!(defined (__ARM_ARCH_8M_MAIN__ ) && (__ARM_ARCH_8M_MAIN__ == 1)) && \
 728:Drivers/CMSIS/Include/cmsis_gcc.h ****     (!defined (__ARM_FEATURE_CMSE) || (__ARM_FEATURE_CMSE < 3)))
 729:Drivers/CMSIS/Include/cmsis_gcc.h ****   // without main extensions, the non-secure MSPLIM is RAZ/WI
 730:Drivers/CMSIS/Include/cmsis_gcc.h ****   (void)MainStackPtrLimit;
 731:Drivers/CMSIS/Include/cmsis_gcc.h **** #else
 732:Drivers/CMSIS/Include/cmsis_gcc.h ****   __ASM volatile ("MSR msplim, %0" : : "r" (MainStackPtrLimit));
 733:Drivers/CMSIS/Include/cmsis_gcc.h **** #endif
 734:Drivers/CMSIS/Include/cmsis_gcc.h **** }
 735:Drivers/CMSIS/Include/cmsis_gcc.h **** 
 736:Drivers/CMSIS/Include/cmsis_gcc.h **** 
 737:Drivers/CMSIS/Include/cmsis_gcc.h **** #if (defined (__ARM_FEATURE_CMSE  ) && (__ARM_FEATURE_CMSE   == 3))
 738:Drivers/CMSIS/Include/cmsis_gcc.h **** /**
 739:Drivers/CMSIS/Include/cmsis_gcc.h ****   \brief   Set Main Stack Pointer Limit (non-secure)
 740:Drivers/CMSIS/Include/cmsis_gcc.h ****   Devices without ARMv8-M Main Extensions (i.e. Cortex-M23) lack the non-secure
 741:Drivers/CMSIS/Include/cmsis_gcc.h ****   Stack Pointer Limit register hence the write is silently ignored.
 742:Drivers/CMSIS/Include/cmsis_gcc.h **** 
 743:Drivers/CMSIS/Include/cmsis_gcc.h ****   \details Assigns the given value to the non-secure Main Stack Pointer Limit (MSPLIM) when in secu
 744:Drivers/CMSIS/Include/cmsis_gcc.h ****   \param [in]    MainStackPtrLimit  Main Stack Pointer value to set
 745:Drivers/CMSIS/Include/cmsis_gcc.h ****  */
 746:Drivers/CMSIS/Include/cmsis_gcc.h **** __STATIC_FORCEINLINE void __TZ_set_MSPLIM_NS(uint32_t MainStackPtrLimit)
 747:Drivers/CMSIS/Include/cmsis_gcc.h **** {
 748:Drivers/CMSIS/Include/cmsis_gcc.h **** #if (!(defined (__ARM_ARCH_8M_MAIN__ ) && (__ARM_ARCH_8M_MAIN__ == 1)))
 749:Drivers/CMSIS/Include/cmsis_gcc.h ****   // without main extensions, the non-secure MSPLIM is RAZ/WI
 750:Drivers/CMSIS/Include/cmsis_gcc.h ****   (void)MainStackPtrLimit;
 751:Drivers/CMSIS/Include/cmsis_gcc.h **** #else
 752:Drivers/CMSIS/Include/cmsis_gcc.h ****   __ASM volatile ("MSR msplim_ns, %0" : : "r" (MainStackPtrLimit));
 753:Drivers/CMSIS/Include/cmsis_gcc.h **** #endif
 754:Drivers/CMSIS/Include/cmsis_gcc.h **** }
 755:Drivers/CMSIS/Include/cmsis_gcc.h **** #endif
 756:Drivers/CMSIS/Include/cmsis_gcc.h **** 
 757:Drivers/CMSIS/Include/cmsis_gcc.h **** #endif /* ((defined (__ARM_ARCH_8M_MAIN__ ) && (__ARM_ARCH_8M_MAIN__ == 1)) || \
 758:Drivers/CMSIS/Include/cmsis_gcc.h ****            (defined (__ARM_ARCH_8M_BASE__ ) && (__ARM_ARCH_8M_BASE__ == 1))    ) */
 759:Drivers/CMSIS/Include/cmsis_gcc.h **** 
 760:Drivers/CMSIS/Include/cmsis_gcc.h **** 
 761:Drivers/CMSIS/Include/cmsis_gcc.h **** /**
 762:Drivers/CMSIS/Include/cmsis_gcc.h ****   \brief   Get FPSCR
 763:Drivers/CMSIS/Include/cmsis_gcc.h ****   \details Returns the current value of the Floating Point Status/Control register.
 764:Drivers/CMSIS/Include/cmsis_gcc.h ****   \return               Floating Point Status/Control register value
 765:Drivers/CMSIS/Include/cmsis_gcc.h ****  */
 766:Drivers/CMSIS/Include/cmsis_gcc.h **** __STATIC_FORCEINLINE uint32_t __get_FPSCR(void)
 767:Drivers/CMSIS/Include/cmsis_gcc.h **** {
 768:Drivers/CMSIS/Include/cmsis_gcc.h **** #if ((defined (__FPU_PRESENT) && (__FPU_PRESENT == 1U)) && \
 769:Drivers/CMSIS/Include/cmsis_gcc.h ****      (defined (__FPU_USED   ) && (__FPU_USED    == 1U))     )
ARM GAS  /var/folders/b1/22c950295gx2kqj80tvj8wqc0000gn/T//ccykJ5HB.s 			page 24


 770:Drivers/CMSIS/Include/cmsis_gcc.h **** #if __has_builtin(__builtin_arm_get_fpscr) 
 771:Drivers/CMSIS/Include/cmsis_gcc.h **** // Re-enable using built-in when GCC has been fixed
 772:Drivers/CMSIS/Include/cmsis_gcc.h **** // || (__GNUC__ > 7) || (__GNUC__ == 7 && __GNUC_MINOR__ >= 2)
 773:Drivers/CMSIS/Include/cmsis_gcc.h ****   /* see https://gcc.gnu.org/ml/gcc-patches/2017-04/msg00443.html */
 774:Drivers/CMSIS/Include/cmsis_gcc.h ****   return __builtin_arm_get_fpscr();
 775:Drivers/CMSIS/Include/cmsis_gcc.h **** #else
 776:Drivers/CMSIS/Include/cmsis_gcc.h ****   uint32_t result;
 777:Drivers/CMSIS/Include/cmsis_gcc.h **** 
 778:Drivers/CMSIS/Include/cmsis_gcc.h ****   __ASM volatile ("VMRS %0, fpscr" : "=r" (result) );
 779:Drivers/CMSIS/Include/cmsis_gcc.h ****   return(result);
 780:Drivers/CMSIS/Include/cmsis_gcc.h **** #endif
 781:Drivers/CMSIS/Include/cmsis_gcc.h **** #else
 782:Drivers/CMSIS/Include/cmsis_gcc.h ****   return(0U);
 783:Drivers/CMSIS/Include/cmsis_gcc.h **** #endif
 784:Drivers/CMSIS/Include/cmsis_gcc.h **** }
 785:Drivers/CMSIS/Include/cmsis_gcc.h **** 
 786:Drivers/CMSIS/Include/cmsis_gcc.h **** 
 787:Drivers/CMSIS/Include/cmsis_gcc.h **** /**
 788:Drivers/CMSIS/Include/cmsis_gcc.h ****   \brief   Set FPSCR
 789:Drivers/CMSIS/Include/cmsis_gcc.h ****   \details Assigns the given value to the Floating Point Status/Control register.
 790:Drivers/CMSIS/Include/cmsis_gcc.h ****   \param [in]    fpscr  Floating Point Status/Control value to set
 791:Drivers/CMSIS/Include/cmsis_gcc.h ****  */
 792:Drivers/CMSIS/Include/cmsis_gcc.h **** __STATIC_FORCEINLINE void __set_FPSCR(uint32_t fpscr)
 793:Drivers/CMSIS/Include/cmsis_gcc.h **** {
 794:Drivers/CMSIS/Include/cmsis_gcc.h **** #if ((defined (__FPU_PRESENT) && (__FPU_PRESENT == 1U)) && \
 795:Drivers/CMSIS/Include/cmsis_gcc.h ****      (defined (__FPU_USED   ) && (__FPU_USED    == 1U))     )
 796:Drivers/CMSIS/Include/cmsis_gcc.h **** #if __has_builtin(__builtin_arm_set_fpscr)
 797:Drivers/CMSIS/Include/cmsis_gcc.h **** // Re-enable using built-in when GCC has been fixed
 798:Drivers/CMSIS/Include/cmsis_gcc.h **** // || (__GNUC__ > 7) || (__GNUC__ == 7 && __GNUC_MINOR__ >= 2)
 799:Drivers/CMSIS/Include/cmsis_gcc.h ****   /* see https://gcc.gnu.org/ml/gcc-patches/2017-04/msg00443.html */
 800:Drivers/CMSIS/Include/cmsis_gcc.h ****   __builtin_arm_set_fpscr(fpscr);
 801:Drivers/CMSIS/Include/cmsis_gcc.h **** #else
 802:Drivers/CMSIS/Include/cmsis_gcc.h ****   __ASM volatile ("VMSR fpscr, %0" : : "r" (fpscr) : "vfpcc", "memory");
 803:Drivers/CMSIS/Include/cmsis_gcc.h **** #endif
 804:Drivers/CMSIS/Include/cmsis_gcc.h **** #else
 805:Drivers/CMSIS/Include/cmsis_gcc.h ****   (void)fpscr;
 806:Drivers/CMSIS/Include/cmsis_gcc.h **** #endif
 807:Drivers/CMSIS/Include/cmsis_gcc.h **** }
 808:Drivers/CMSIS/Include/cmsis_gcc.h **** 
 809:Drivers/CMSIS/Include/cmsis_gcc.h **** 
 810:Drivers/CMSIS/Include/cmsis_gcc.h **** /*@} end of CMSIS_Core_RegAccFunctions */
 811:Drivers/CMSIS/Include/cmsis_gcc.h **** 
 812:Drivers/CMSIS/Include/cmsis_gcc.h **** 
 813:Drivers/CMSIS/Include/cmsis_gcc.h **** /* ##########################  Core Instruction Access  ######################### */
 814:Drivers/CMSIS/Include/cmsis_gcc.h **** /** \defgroup CMSIS_Core_InstructionInterface CMSIS Core Instruction Interface
 815:Drivers/CMSIS/Include/cmsis_gcc.h ****   Access to dedicated instructions
 816:Drivers/CMSIS/Include/cmsis_gcc.h ****   @{
 817:Drivers/CMSIS/Include/cmsis_gcc.h **** */
 818:Drivers/CMSIS/Include/cmsis_gcc.h **** 
 819:Drivers/CMSIS/Include/cmsis_gcc.h **** /* Define macros for porting to both thumb1 and thumb2.
 820:Drivers/CMSIS/Include/cmsis_gcc.h ****  * For thumb1, use low register (r0-r7), specified by constraint "l"
 821:Drivers/CMSIS/Include/cmsis_gcc.h ****  * Otherwise, use general registers, specified by constraint "r" */
 822:Drivers/CMSIS/Include/cmsis_gcc.h **** #if defined (__thumb__) && !defined (__thumb2__)
 823:Drivers/CMSIS/Include/cmsis_gcc.h **** #define __CMSIS_GCC_OUT_REG(r) "=l" (r)
 824:Drivers/CMSIS/Include/cmsis_gcc.h **** #define __CMSIS_GCC_RW_REG(r) "+l" (r)
 825:Drivers/CMSIS/Include/cmsis_gcc.h **** #define __CMSIS_GCC_USE_REG(r) "l" (r)
 826:Drivers/CMSIS/Include/cmsis_gcc.h **** #else
ARM GAS  /var/folders/b1/22c950295gx2kqj80tvj8wqc0000gn/T//ccykJ5HB.s 			page 25


 827:Drivers/CMSIS/Include/cmsis_gcc.h **** #define __CMSIS_GCC_OUT_REG(r) "=r" (r)
 828:Drivers/CMSIS/Include/cmsis_gcc.h **** #define __CMSIS_GCC_RW_REG(r) "+r" (r)
 829:Drivers/CMSIS/Include/cmsis_gcc.h **** #define __CMSIS_GCC_USE_REG(r) "r" (r)
 830:Drivers/CMSIS/Include/cmsis_gcc.h **** #endif
 831:Drivers/CMSIS/Include/cmsis_gcc.h **** 
 832:Drivers/CMSIS/Include/cmsis_gcc.h **** /**
 833:Drivers/CMSIS/Include/cmsis_gcc.h ****   \brief   No Operation
 834:Drivers/CMSIS/Include/cmsis_gcc.h ****   \details No Operation does nothing. This instruction can be used for code alignment purposes.
 835:Drivers/CMSIS/Include/cmsis_gcc.h ****  */
 836:Drivers/CMSIS/Include/cmsis_gcc.h **** #define __NOP()                             __ASM volatile ("nop")
 837:Drivers/CMSIS/Include/cmsis_gcc.h **** 
 838:Drivers/CMSIS/Include/cmsis_gcc.h **** /**
 839:Drivers/CMSIS/Include/cmsis_gcc.h ****   \brief   Wait For Interrupt
 840:Drivers/CMSIS/Include/cmsis_gcc.h ****   \details Wait For Interrupt is a hint instruction that suspends execution until one of a number o
 841:Drivers/CMSIS/Include/cmsis_gcc.h ****  */
 842:Drivers/CMSIS/Include/cmsis_gcc.h **** #define __WFI()                             __ASM volatile ("wfi")
 843:Drivers/CMSIS/Include/cmsis_gcc.h **** 
 844:Drivers/CMSIS/Include/cmsis_gcc.h **** 
 845:Drivers/CMSIS/Include/cmsis_gcc.h **** /**
 846:Drivers/CMSIS/Include/cmsis_gcc.h ****   \brief   Wait For Event
 847:Drivers/CMSIS/Include/cmsis_gcc.h ****   \details Wait For Event is a hint instruction that permits the processor to enter
 848:Drivers/CMSIS/Include/cmsis_gcc.h ****            a low-power state until one of a number of events occurs.
 849:Drivers/CMSIS/Include/cmsis_gcc.h ****  */
 850:Drivers/CMSIS/Include/cmsis_gcc.h **** #define __WFE()                             __ASM volatile ("wfe")
 851:Drivers/CMSIS/Include/cmsis_gcc.h **** 
 852:Drivers/CMSIS/Include/cmsis_gcc.h **** 
 853:Drivers/CMSIS/Include/cmsis_gcc.h **** /**
 854:Drivers/CMSIS/Include/cmsis_gcc.h ****   \brief   Send Event
 855:Drivers/CMSIS/Include/cmsis_gcc.h ****   \details Send Event is a hint instruction. It causes an event to be signaled to the CPU.
 856:Drivers/CMSIS/Include/cmsis_gcc.h ****  */
 857:Drivers/CMSIS/Include/cmsis_gcc.h **** #define __SEV()                             __ASM volatile ("sev")
 858:Drivers/CMSIS/Include/cmsis_gcc.h **** 
 859:Drivers/CMSIS/Include/cmsis_gcc.h **** 
 860:Drivers/CMSIS/Include/cmsis_gcc.h **** /**
 861:Drivers/CMSIS/Include/cmsis_gcc.h ****   \brief   Instruction Synchronization Barrier
 862:Drivers/CMSIS/Include/cmsis_gcc.h ****   \details Instruction Synchronization Barrier flushes the pipeline in the processor,
 863:Drivers/CMSIS/Include/cmsis_gcc.h ****            so that all instructions following the ISB are fetched from cache or memory,
 864:Drivers/CMSIS/Include/cmsis_gcc.h ****            after the instruction has been completed.
 865:Drivers/CMSIS/Include/cmsis_gcc.h ****  */
 866:Drivers/CMSIS/Include/cmsis_gcc.h **** __STATIC_FORCEINLINE void __ISB(void)
 867:Drivers/CMSIS/Include/cmsis_gcc.h **** {
 868:Drivers/CMSIS/Include/cmsis_gcc.h ****   __ASM volatile ("isb 0xF":::"memory");
 869:Drivers/CMSIS/Include/cmsis_gcc.h **** }
 870:Drivers/CMSIS/Include/cmsis_gcc.h **** 
 871:Drivers/CMSIS/Include/cmsis_gcc.h **** 
 872:Drivers/CMSIS/Include/cmsis_gcc.h **** /**
 873:Drivers/CMSIS/Include/cmsis_gcc.h ****   \brief   Data Synchronization Barrier
 874:Drivers/CMSIS/Include/cmsis_gcc.h ****   \details Acts as a special kind of Data Memory Barrier.
 875:Drivers/CMSIS/Include/cmsis_gcc.h ****            It completes when all explicit memory accesses before this instruction complete.
 876:Drivers/CMSIS/Include/cmsis_gcc.h ****  */
 877:Drivers/CMSIS/Include/cmsis_gcc.h **** __STATIC_FORCEINLINE void __DSB(void)
 878:Drivers/CMSIS/Include/cmsis_gcc.h **** {
 879:Drivers/CMSIS/Include/cmsis_gcc.h ****   __ASM volatile ("dsb 0xF":::"memory");
 880:Drivers/CMSIS/Include/cmsis_gcc.h **** }
 881:Drivers/CMSIS/Include/cmsis_gcc.h **** 
 882:Drivers/CMSIS/Include/cmsis_gcc.h **** 
 883:Drivers/CMSIS/Include/cmsis_gcc.h **** /**
ARM GAS  /var/folders/b1/22c950295gx2kqj80tvj8wqc0000gn/T//ccykJ5HB.s 			page 26


 884:Drivers/CMSIS/Include/cmsis_gcc.h ****   \brief   Data Memory Barrier
 885:Drivers/CMSIS/Include/cmsis_gcc.h ****   \details Ensures the apparent order of the explicit memory operations before
 886:Drivers/CMSIS/Include/cmsis_gcc.h ****            and after the instruction, without ensuring their completion.
 887:Drivers/CMSIS/Include/cmsis_gcc.h ****  */
 888:Drivers/CMSIS/Include/cmsis_gcc.h **** __STATIC_FORCEINLINE void __DMB(void)
 889:Drivers/CMSIS/Include/cmsis_gcc.h **** {
 890:Drivers/CMSIS/Include/cmsis_gcc.h ****   __ASM volatile ("dmb 0xF":::"memory");
 891:Drivers/CMSIS/Include/cmsis_gcc.h **** }
 892:Drivers/CMSIS/Include/cmsis_gcc.h **** 
 893:Drivers/CMSIS/Include/cmsis_gcc.h **** 
 894:Drivers/CMSIS/Include/cmsis_gcc.h **** /**
 895:Drivers/CMSIS/Include/cmsis_gcc.h ****   \brief   Reverse byte order (32 bit)
 896:Drivers/CMSIS/Include/cmsis_gcc.h ****   \details Reverses the byte order in unsigned integer value. For example, 0x12345678 becomes 0x785
 897:Drivers/CMSIS/Include/cmsis_gcc.h ****   \param [in]    value  Value to reverse
 898:Drivers/CMSIS/Include/cmsis_gcc.h ****   \return               Reversed value
 899:Drivers/CMSIS/Include/cmsis_gcc.h ****  */
 900:Drivers/CMSIS/Include/cmsis_gcc.h **** __STATIC_FORCEINLINE uint32_t __REV(uint32_t value)
 901:Drivers/CMSIS/Include/cmsis_gcc.h **** {
 902:Drivers/CMSIS/Include/cmsis_gcc.h **** #if (__GNUC__ > 4) || (__GNUC__ == 4 && __GNUC_MINOR__ >= 5)
 903:Drivers/CMSIS/Include/cmsis_gcc.h ****   return __builtin_bswap32(value);
 904:Drivers/CMSIS/Include/cmsis_gcc.h **** #else
 905:Drivers/CMSIS/Include/cmsis_gcc.h ****   uint32_t result;
 906:Drivers/CMSIS/Include/cmsis_gcc.h **** 
 907:Drivers/CMSIS/Include/cmsis_gcc.h ****   __ASM volatile ("rev %0, %1" : __CMSIS_GCC_OUT_REG (result) : __CMSIS_GCC_USE_REG (value) );
 908:Drivers/CMSIS/Include/cmsis_gcc.h ****   return result;
 909:Drivers/CMSIS/Include/cmsis_gcc.h **** #endif
 910:Drivers/CMSIS/Include/cmsis_gcc.h **** }
 911:Drivers/CMSIS/Include/cmsis_gcc.h **** 
 912:Drivers/CMSIS/Include/cmsis_gcc.h **** 
 913:Drivers/CMSIS/Include/cmsis_gcc.h **** /**
 914:Drivers/CMSIS/Include/cmsis_gcc.h ****   \brief   Reverse byte order (16 bit)
 915:Drivers/CMSIS/Include/cmsis_gcc.h ****   \details Reverses the byte order within each halfword of a word. For example, 0x12345678 becomes 
 916:Drivers/CMSIS/Include/cmsis_gcc.h ****   \param [in]    value  Value to reverse
 917:Drivers/CMSIS/Include/cmsis_gcc.h ****   \return               Reversed value
 918:Drivers/CMSIS/Include/cmsis_gcc.h ****  */
 919:Drivers/CMSIS/Include/cmsis_gcc.h **** __STATIC_FORCEINLINE uint32_t __REV16(uint32_t value)
 920:Drivers/CMSIS/Include/cmsis_gcc.h **** {
 921:Drivers/CMSIS/Include/cmsis_gcc.h ****   uint32_t result;
 922:Drivers/CMSIS/Include/cmsis_gcc.h **** 
 923:Drivers/CMSIS/Include/cmsis_gcc.h ****   __ASM volatile ("rev16 %0, %1" : __CMSIS_GCC_OUT_REG (result) : __CMSIS_GCC_USE_REG (value) );
 924:Drivers/CMSIS/Include/cmsis_gcc.h ****   return result;
 925:Drivers/CMSIS/Include/cmsis_gcc.h **** }
 926:Drivers/CMSIS/Include/cmsis_gcc.h **** 
 927:Drivers/CMSIS/Include/cmsis_gcc.h **** 
 928:Drivers/CMSIS/Include/cmsis_gcc.h **** /**
 929:Drivers/CMSIS/Include/cmsis_gcc.h ****   \brief   Reverse byte order (16 bit)
 930:Drivers/CMSIS/Include/cmsis_gcc.h ****   \details Reverses the byte order in a 16-bit value and returns the signed 16-bit result. For exam
 931:Drivers/CMSIS/Include/cmsis_gcc.h ****   \param [in]    value  Value to reverse
 932:Drivers/CMSIS/Include/cmsis_gcc.h ****   \return               Reversed value
 933:Drivers/CMSIS/Include/cmsis_gcc.h ****  */
 934:Drivers/CMSIS/Include/cmsis_gcc.h **** __STATIC_FORCEINLINE int16_t __REVSH(int16_t value)
 935:Drivers/CMSIS/Include/cmsis_gcc.h **** {
 936:Drivers/CMSIS/Include/cmsis_gcc.h **** #if (__GNUC__ > 4) || (__GNUC__ == 4 && __GNUC_MINOR__ >= 8)
 937:Drivers/CMSIS/Include/cmsis_gcc.h ****   return (int16_t)__builtin_bswap16(value);
 938:Drivers/CMSIS/Include/cmsis_gcc.h **** #else
 939:Drivers/CMSIS/Include/cmsis_gcc.h ****   int16_t result;
 940:Drivers/CMSIS/Include/cmsis_gcc.h **** 
ARM GAS  /var/folders/b1/22c950295gx2kqj80tvj8wqc0000gn/T//ccykJ5HB.s 			page 27


 941:Drivers/CMSIS/Include/cmsis_gcc.h ****   __ASM volatile ("revsh %0, %1" : __CMSIS_GCC_OUT_REG (result) : __CMSIS_GCC_USE_REG (value) );
 942:Drivers/CMSIS/Include/cmsis_gcc.h ****   return result;
 943:Drivers/CMSIS/Include/cmsis_gcc.h **** #endif
 944:Drivers/CMSIS/Include/cmsis_gcc.h **** }
 945:Drivers/CMSIS/Include/cmsis_gcc.h **** 
 946:Drivers/CMSIS/Include/cmsis_gcc.h **** 
 947:Drivers/CMSIS/Include/cmsis_gcc.h **** /**
 948:Drivers/CMSIS/Include/cmsis_gcc.h ****   \brief   Rotate Right in unsigned value (32 bit)
 949:Drivers/CMSIS/Include/cmsis_gcc.h ****   \details Rotate Right (immediate) provides the value of the contents of a register rotated by a v
 950:Drivers/CMSIS/Include/cmsis_gcc.h ****   \param [in]    op1  Value to rotate
 951:Drivers/CMSIS/Include/cmsis_gcc.h ****   \param [in]    op2  Number of Bits to rotate
 952:Drivers/CMSIS/Include/cmsis_gcc.h ****   \return               Rotated value
 953:Drivers/CMSIS/Include/cmsis_gcc.h ****  */
 954:Drivers/CMSIS/Include/cmsis_gcc.h **** __STATIC_FORCEINLINE uint32_t __ROR(uint32_t op1, uint32_t op2)
 955:Drivers/CMSIS/Include/cmsis_gcc.h **** {
 956:Drivers/CMSIS/Include/cmsis_gcc.h ****   op2 %= 32U;
 957:Drivers/CMSIS/Include/cmsis_gcc.h ****   if (op2 == 0U)
 958:Drivers/CMSIS/Include/cmsis_gcc.h ****   {
 959:Drivers/CMSIS/Include/cmsis_gcc.h ****     return op1;
 960:Drivers/CMSIS/Include/cmsis_gcc.h ****   }
 961:Drivers/CMSIS/Include/cmsis_gcc.h ****   return (op1 >> op2) | (op1 << (32U - op2));
 962:Drivers/CMSIS/Include/cmsis_gcc.h **** }
 963:Drivers/CMSIS/Include/cmsis_gcc.h **** 
 964:Drivers/CMSIS/Include/cmsis_gcc.h **** 
 965:Drivers/CMSIS/Include/cmsis_gcc.h **** /**
 966:Drivers/CMSIS/Include/cmsis_gcc.h ****   \brief   Breakpoint
 967:Drivers/CMSIS/Include/cmsis_gcc.h ****   \details Causes the processor to enter Debug state.
 968:Drivers/CMSIS/Include/cmsis_gcc.h ****            Debug tools can use this to investigate system state when the instruction at a particula
 969:Drivers/CMSIS/Include/cmsis_gcc.h ****   \param [in]    value  is ignored by the processor.
 970:Drivers/CMSIS/Include/cmsis_gcc.h ****                  If required, a debugger can use it to store additional information about the break
 971:Drivers/CMSIS/Include/cmsis_gcc.h ****  */
 972:Drivers/CMSIS/Include/cmsis_gcc.h **** #define __BKPT(value)                       __ASM volatile ("bkpt "#value)
 973:Drivers/CMSIS/Include/cmsis_gcc.h **** 
 974:Drivers/CMSIS/Include/cmsis_gcc.h **** 
 975:Drivers/CMSIS/Include/cmsis_gcc.h **** /**
 976:Drivers/CMSIS/Include/cmsis_gcc.h ****   \brief   Reverse bit order of value
 977:Drivers/CMSIS/Include/cmsis_gcc.h ****   \details Reverses the bit order of the given value.
 978:Drivers/CMSIS/Include/cmsis_gcc.h ****   \param [in]    value  Value to reverse
 979:Drivers/CMSIS/Include/cmsis_gcc.h ****   \return               Reversed value
 980:Drivers/CMSIS/Include/cmsis_gcc.h ****  */
 981:Drivers/CMSIS/Include/cmsis_gcc.h **** __STATIC_FORCEINLINE uint32_t __RBIT(uint32_t value)
 982:Drivers/CMSIS/Include/cmsis_gcc.h **** {
 983:Drivers/CMSIS/Include/cmsis_gcc.h ****   uint32_t result;
 984:Drivers/CMSIS/Include/cmsis_gcc.h **** 
 985:Drivers/CMSIS/Include/cmsis_gcc.h **** #if ((defined (__ARM_ARCH_7M__      ) && (__ARM_ARCH_7M__      == 1)) || \
 986:Drivers/CMSIS/Include/cmsis_gcc.h ****      (defined (__ARM_ARCH_7EM__     ) && (__ARM_ARCH_7EM__     == 1)) || \
 987:Drivers/CMSIS/Include/cmsis_gcc.h ****      (defined (__ARM_ARCH_8M_MAIN__ ) && (__ARM_ARCH_8M_MAIN__ == 1))    )
 988:Drivers/CMSIS/Include/cmsis_gcc.h ****    __ASM volatile ("rbit %0, %1" : "=r" (result) : "r" (value) );
 207              		.loc 2 988 4 is_stmt 0 view .LVU67
 208 00b4 4FF08072 		mov	r2, #16777216
 209              	.LBE177:
 210              	.LBE176:
 294:Drivers/STM32F3xx_HAL_Driver/Src/stm32f3xx_hal_rcc.c **** 
 211              		.loc 1 294 3 view .LVU68
 212 00b8 B360     		str	r3, [r6, #8]
 297:Drivers/STM32F3xx_HAL_Driver/Src/stm32f3xx_hal_rcc.c **** 
 213              		.loc 1 297 3 is_stmt 1 view .LVU69
ARM GAS  /var/folders/b1/22c950295gx2kqj80tvj8wqc0000gn/T//ccykJ5HB.s 			page 28


 214              	.LVL16:
 215              	.LBB179:
 216              	.LBI176:
 981:Drivers/CMSIS/Include/cmsis_gcc.h **** {
 217              		.loc 2 981 31 view .LVU70
 218              	.LBB178:
 983:Drivers/CMSIS/Include/cmsis_gcc.h **** 
 219              		.loc 2 983 3 view .LVU71
 220              		.loc 2 988 4 view .LVU72
 221              		.syntax unified
 222              	@ 988 "Drivers/CMSIS/Include/cmsis_gcc.h" 1
 223 00ba 92FAA2F2 		rbit r2, r2
 224              	@ 0 "" 2
 225              	.LVL17:
 989:Drivers/CMSIS/Include/cmsis_gcc.h **** #else
 990:Drivers/CMSIS/Include/cmsis_gcc.h ****   uint32_t s = (4U /*sizeof(v)*/ * 8U) - 1U; /* extra shift needed at end */
 991:Drivers/CMSIS/Include/cmsis_gcc.h **** 
 992:Drivers/CMSIS/Include/cmsis_gcc.h ****   result = value;                      /* r will be reversed bits of v; first get LSB of v */
 993:Drivers/CMSIS/Include/cmsis_gcc.h ****   for (value >>= 1U; value != 0U; value >>= 1U)
 994:Drivers/CMSIS/Include/cmsis_gcc.h ****   {
 995:Drivers/CMSIS/Include/cmsis_gcc.h ****     result <<= 1U;
 996:Drivers/CMSIS/Include/cmsis_gcc.h ****     result |= value & 1U;
 997:Drivers/CMSIS/Include/cmsis_gcc.h ****     s--;
 998:Drivers/CMSIS/Include/cmsis_gcc.h ****   }
 999:Drivers/CMSIS/Include/cmsis_gcc.h ****   result <<= s;                        /* shift when v's highest bits are zero */
1000:Drivers/CMSIS/Include/cmsis_gcc.h **** #endif
1001:Drivers/CMSIS/Include/cmsis_gcc.h ****   return result;
 226              		.loc 2 1001 3 view .LVU73
 227              		.loc 2 1001 3 is_stmt 0 view .LVU74
 228              		.thumb
 229              		.syntax unified
 230              	.LBE178:
 231              	.LBE179:
 297:Drivers/STM32F3xx_HAL_Driver/Src/stm32f3xx_hal_rcc.c **** 
 232              		.loc 1 297 3 view .LVU75
 233 00be 094B     		ldr	r3, .L15+20
 234 00c0 B2FA82F2 		clz	r2, r2
 235 00c4 1344     		add	r3, r3, r2
 236 00c6 9B00     		lsls	r3, r3, #2
 237 00c8 0122     		movs	r2, #1
 238 00ca 1A60     		str	r2, [r3]
 299:Drivers/STM32F3xx_HAL_Driver/Src/stm32f3xx_hal_rcc.c **** }
 239              		.loc 1 299 3 is_stmt 1 view .LVU76
 299:Drivers/STM32F3xx_HAL_Driver/Src/stm32f3xx_hal_rcc.c **** }
 240              		.loc 1 299 10 is_stmt 0 view .LVU77
 241 00cc D1E7     		b	.L3
 242              	.L16:
 243 00ce 00BF     		.align	2
 244              	.L15:
 245 00d0 00100240 		.word	1073876992
 246 00d4 0CC0FFF8 		.word	-117456884
 247 00d8 00000000 		.word	uwTickPrio
 248 00dc 00000000 		.word	SystemCoreClock
 249 00e0 00127A00 		.word	8000000
 250 00e4 20819010 		.word	277905696
 251              		.cfi_endproc
 252              	.LFE123:
ARM GAS  /var/folders/b1/22c950295gx2kqj80tvj8wqc0000gn/T//ccykJ5HB.s 			page 29


 254              		.section	.text.HAL_RCC_OscConfig,"ax",%progbits
 255              		.align	1
 256              		.p2align 2,,3
 257              		.global	HAL_RCC_OscConfig
 258              		.syntax unified
 259              		.thumb
 260              		.thumb_func
 262              	HAL_RCC_OscConfig:
 263              	.LVL18:
 264              	.LFB124:
 301:Drivers/STM32F3xx_HAL_Driver/Src/stm32f3xx_hal_rcc.c **** 
 302:Drivers/STM32F3xx_HAL_Driver/Src/stm32f3xx_hal_rcc.c **** /**
 303:Drivers/STM32F3xx_HAL_Driver/Src/stm32f3xx_hal_rcc.c ****   * @brief  Initializes the RCC Oscillators according to the specified parameters in the
 304:Drivers/STM32F3xx_HAL_Driver/Src/stm32f3xx_hal_rcc.c ****   *         RCC_OscInitTypeDef.
 305:Drivers/STM32F3xx_HAL_Driver/Src/stm32f3xx_hal_rcc.c ****   * @param  RCC_OscInitStruct pointer to an RCC_OscInitTypeDef structure that
 306:Drivers/STM32F3xx_HAL_Driver/Src/stm32f3xx_hal_rcc.c ****   *         contains the configuration information for the RCC Oscillators.
 307:Drivers/STM32F3xx_HAL_Driver/Src/stm32f3xx_hal_rcc.c ****   * @note   The PLL is not disabled when used as system clock.
 308:Drivers/STM32F3xx_HAL_Driver/Src/stm32f3xx_hal_rcc.c ****   * @note   Transitions LSE Bypass to LSE On and LSE On to LSE Bypass are not
 309:Drivers/STM32F3xx_HAL_Driver/Src/stm32f3xx_hal_rcc.c ****   *         supported by this macro. User should request a transition to LSE Off
 310:Drivers/STM32F3xx_HAL_Driver/Src/stm32f3xx_hal_rcc.c ****   *         first and then LSE On or LSE Bypass.
 311:Drivers/STM32F3xx_HAL_Driver/Src/stm32f3xx_hal_rcc.c ****   * @note   Transition HSE Bypass to HSE On and HSE On to HSE Bypass are not
 312:Drivers/STM32F3xx_HAL_Driver/Src/stm32f3xx_hal_rcc.c ****   *         supported by this macro. User should request a transition to HSE Off
 313:Drivers/STM32F3xx_HAL_Driver/Src/stm32f3xx_hal_rcc.c ****   *         first and then HSE On or HSE Bypass.
 314:Drivers/STM32F3xx_HAL_Driver/Src/stm32f3xx_hal_rcc.c ****   * @retval HAL status
 315:Drivers/STM32F3xx_HAL_Driver/Src/stm32f3xx_hal_rcc.c ****   */
 316:Drivers/STM32F3xx_HAL_Driver/Src/stm32f3xx_hal_rcc.c **** HAL_StatusTypeDef HAL_RCC_OscConfig(RCC_OscInitTypeDef  *RCC_OscInitStruct)
 317:Drivers/STM32F3xx_HAL_Driver/Src/stm32f3xx_hal_rcc.c **** {
 265              		.loc 1 317 1 is_stmt 1 view -0
 266              		.cfi_startproc
 267              		@ args = 0, pretend = 0, frame = 8
 268              		@ frame_needed = 0, uses_anonymous_args = 0
 318:Drivers/STM32F3xx_HAL_Driver/Src/stm32f3xx_hal_rcc.c ****   uint32_t tickstart;
 269              		.loc 1 318 3 view .LVU79
 319:Drivers/STM32F3xx_HAL_Driver/Src/stm32f3xx_hal_rcc.c ****   uint32_t pll_config;
 270              		.loc 1 319 3 view .LVU80
 320:Drivers/STM32F3xx_HAL_Driver/Src/stm32f3xx_hal_rcc.c **** #if defined(RCC_CFGR_PLLSRC_HSI_PREDIV)
 321:Drivers/STM32F3xx_HAL_Driver/Src/stm32f3xx_hal_rcc.c ****   uint32_t pll_config2;
 322:Drivers/STM32F3xx_HAL_Driver/Src/stm32f3xx_hal_rcc.c **** #endif /* RCC_CFGR_PLLSRC_HSI_PREDIV */
 323:Drivers/STM32F3xx_HAL_Driver/Src/stm32f3xx_hal_rcc.c **** 
 324:Drivers/STM32F3xx_HAL_Driver/Src/stm32f3xx_hal_rcc.c ****   /* Check Null pointer */
 325:Drivers/STM32F3xx_HAL_Driver/Src/stm32f3xx_hal_rcc.c ****   if(RCC_OscInitStruct == NULL)
 271              		.loc 1 325 3 view .LVU81
 272              		.loc 1 325 5 is_stmt 0 view .LVU82
 273 0000 0028     		cmp	r0, #0
 274 0002 00F07082 		beq	.L117
 326:Drivers/STM32F3xx_HAL_Driver/Src/stm32f3xx_hal_rcc.c ****   {
 327:Drivers/STM32F3xx_HAL_Driver/Src/stm32f3xx_hal_rcc.c ****     return HAL_ERROR;
 328:Drivers/STM32F3xx_HAL_Driver/Src/stm32f3xx_hal_rcc.c ****   }
 329:Drivers/STM32F3xx_HAL_Driver/Src/stm32f3xx_hal_rcc.c **** 
 330:Drivers/STM32F3xx_HAL_Driver/Src/stm32f3xx_hal_rcc.c ****   /* Check the parameters */
 331:Drivers/STM32F3xx_HAL_Driver/Src/stm32f3xx_hal_rcc.c ****   assert_param(IS_RCC_OSCILLATORTYPE(RCC_OscInitStruct->OscillatorType));
 275              		.loc 1 331 3 is_stmt 1 view .LVU83
 332:Drivers/STM32F3xx_HAL_Driver/Src/stm32f3xx_hal_rcc.c **** 
 333:Drivers/STM32F3xx_HAL_Driver/Src/stm32f3xx_hal_rcc.c ****   /*------------------------------- HSE Configuration ------------------------*/ 
 334:Drivers/STM32F3xx_HAL_Driver/Src/stm32f3xx_hal_rcc.c ****   if(((RCC_OscInitStruct->OscillatorType) & RCC_OSCILLATORTYPE_HSE) == RCC_OSCILLATORTYPE_HSE)
 276              		.loc 1 334 3 view .LVU84
 317:Drivers/STM32F3xx_HAL_Driver/Src/stm32f3xx_hal_rcc.c ****   uint32_t tickstart;
ARM GAS  /var/folders/b1/22c950295gx2kqj80tvj8wqc0000gn/T//ccykJ5HB.s 			page 30


 277              		.loc 1 317 1 is_stmt 0 view .LVU85
 278 0006 2DE9F043 		push	{r4, r5, r6, r7, r8, r9, lr}
 279              	.LCFI1:
 280              		.cfi_def_cfa_offset 28
 281              		.cfi_offset 4, -28
 282              		.cfi_offset 5, -24
 283              		.cfi_offset 6, -20
 284              		.cfi_offset 7, -16
 285              		.cfi_offset 8, -12
 286              		.cfi_offset 9, -8
 287              		.cfi_offset 14, -4
 288              		.loc 1 334 25 view .LVU86
 289 000a 0368     		ldr	r3, [r0]
 290              		.loc 1 334 5 view .LVU87
 291 000c D907     		lsls	r1, r3, #31
 317:Drivers/STM32F3xx_HAL_Driver/Src/stm32f3xx_hal_rcc.c ****   uint32_t tickstart;
 292              		.loc 1 317 1 view .LVU88
 293 000e 83B0     		sub	sp, sp, #12
 294              	.LCFI2:
 295              		.cfi_def_cfa_offset 40
 296 0010 0446     		mov	r4, r0
 297              		.loc 1 334 5 view .LVU89
 298 0012 4DD5     		bpl	.L20
 335:Drivers/STM32F3xx_HAL_Driver/Src/stm32f3xx_hal_rcc.c ****   {
 336:Drivers/STM32F3xx_HAL_Driver/Src/stm32f3xx_hal_rcc.c ****     /* Check the parameters */
 337:Drivers/STM32F3xx_HAL_Driver/Src/stm32f3xx_hal_rcc.c ****     assert_param(IS_RCC_HSE(RCC_OscInitStruct->HSEState));
 299              		.loc 1 337 5 is_stmt 1 view .LVU90
 338:Drivers/STM32F3xx_HAL_Driver/Src/stm32f3xx_hal_rcc.c **** 
 339:Drivers/STM32F3xx_HAL_Driver/Src/stm32f3xx_hal_rcc.c ****     /* When the HSE is used as system clock or clock source for PLL in these cases it is not allowe
 340:Drivers/STM32F3xx_HAL_Driver/Src/stm32f3xx_hal_rcc.c ****     if((__HAL_RCC_GET_SYSCLK_SOURCE() == RCC_SYSCLKSOURCE_STATUS_HSE) 
 300              		.loc 1 340 5 view .LVU91
 301              		.loc 1 340 9 is_stmt 0 view .LVU92
 302 0014 AE49     		ldr	r1, .L131
 303 0016 4A68     		ldr	r2, [r1, #4]
 304 0018 02F00C02 		and	r2, r2, #12
 305              		.loc 1 340 7 view .LVU93
 306 001c 042A     		cmp	r2, #4
 307 001e 00F06181 		beq	.L21
 341:Drivers/STM32F3xx_HAL_Driver/Src/stm32f3xx_hal_rcc.c ****        || ((__HAL_RCC_GET_SYSCLK_SOURCE() == RCC_SYSCLKSOURCE_STATUS_PLLCLK) && (__HAL_RCC_GET_PLL_
 308              		.loc 1 341 13 view .LVU94
 309 0022 4A68     		ldr	r2, [r1, #4]
 310 0024 02F00C02 		and	r2, r2, #12
 311              		.loc 1 341 8 view .LVU95
 312 0028 082A     		cmp	r2, #8
 313 002a 00F05781 		beq	.L118
 314              	.L22:
 342:Drivers/STM32F3xx_HAL_Driver/Src/stm32f3xx_hal_rcc.c ****     {
 343:Drivers/STM32F3xx_HAL_Driver/Src/stm32f3xx_hal_rcc.c ****       if((__HAL_RCC_GET_FLAG(RCC_FLAG_HSERDY) != RESET) && (RCC_OscInitStruct->HSEState == RCC_HSE_
 344:Drivers/STM32F3xx_HAL_Driver/Src/stm32f3xx_hal_rcc.c ****       {
 345:Drivers/STM32F3xx_HAL_Driver/Src/stm32f3xx_hal_rcc.c ****         return HAL_ERROR;
 346:Drivers/STM32F3xx_HAL_Driver/Src/stm32f3xx_hal_rcc.c ****       }
 347:Drivers/STM32F3xx_HAL_Driver/Src/stm32f3xx_hal_rcc.c ****     }
 348:Drivers/STM32F3xx_HAL_Driver/Src/stm32f3xx_hal_rcc.c ****     else
 349:Drivers/STM32F3xx_HAL_Driver/Src/stm32f3xx_hal_rcc.c ****     {
 350:Drivers/STM32F3xx_HAL_Driver/Src/stm32f3xx_hal_rcc.c ****       /* Set the new HSE configuration ---------------------------------------*/
 351:Drivers/STM32F3xx_HAL_Driver/Src/stm32f3xx_hal_rcc.c ****       __HAL_RCC_HSE_CONFIG(RCC_OscInitStruct->HSEState);
 315              		.loc 1 351 7 is_stmt 1 view .LVU96
ARM GAS  /var/folders/b1/22c950295gx2kqj80tvj8wqc0000gn/T//ccykJ5HB.s 			page 31


 316              		.loc 1 351 7 view .LVU97
 317 002e 6368     		ldr	r3, [r4, #4]
 318 0030 B3F5803F 		cmp	r3, #65536
 319 0034 17D0     		beq	.L119
 320              		.loc 1 351 7 discriminator 2 view .LVU98
 321 0036 002B     		cmp	r3, #0
 322 0038 00F08E81 		beq	.L120
 323              		.loc 1 351 7 discriminator 5 view .LVU99
 324 003c B3F5A02F 		cmp	r3, #327680
 325 0040 00F03C82 		beq	.L121
 326              		.loc 1 351 7 discriminator 8 view .LVU100
 327 0044 A24B     		ldr	r3, .L131
 328 0046 1A68     		ldr	r2, [r3]
 329 0048 22F48032 		bic	r2, r2, #65536
 330 004c 1A60     		str	r2, [r3]
 331              		.loc 1 351 7 discriminator 8 view .LVU101
 332 004e 1A68     		ldr	r2, [r3]
 333 0050 22F48022 		bic	r2, r2, #262144
 334 0054 1A60     		str	r2, [r3]
 335              	.L29:
 336              		.loc 1 351 7 view .LVU102
 352:Drivers/STM32F3xx_HAL_Driver/Src/stm32f3xx_hal_rcc.c ****       
 353:Drivers/STM32F3xx_HAL_Driver/Src/stm32f3xx_hal_rcc.c **** #if defined(RCC_CFGR_PLLSRC_HSI_DIV2)
 354:Drivers/STM32F3xx_HAL_Driver/Src/stm32f3xx_hal_rcc.c ****       /* Configure the HSE predivision factor --------------------------------*/
 355:Drivers/STM32F3xx_HAL_Driver/Src/stm32f3xx_hal_rcc.c ****       __HAL_RCC_HSE_PREDIV_CONFIG(RCC_OscInitStruct->HSEPredivValue);
 337              		.loc 1 355 7 view .LVU103
 338 0056 9E4A     		ldr	r2, .L131
 339 0058 A168     		ldr	r1, [r4, #8]
 340 005a D36A     		ldr	r3, [r2, #44]
 341 005c 23F00F03 		bic	r3, r3, #15
 342 0060 0B43     		orrs	r3, r3, r1
 343 0062 D362     		str	r3, [r2, #44]
 356:Drivers/STM32F3xx_HAL_Driver/Src/stm32f3xx_hal_rcc.c **** #endif /* RCC_CFGR_PLLSRC_HSI_DIV2 */
 357:Drivers/STM32F3xx_HAL_Driver/Src/stm32f3xx_hal_rcc.c **** 
 358:Drivers/STM32F3xx_HAL_Driver/Src/stm32f3xx_hal_rcc.c ****        /* Check the HSE State */
 359:Drivers/STM32F3xx_HAL_Driver/Src/stm32f3xx_hal_rcc.c ****       if(RCC_OscInitStruct->HSEState != RCC_HSE_OFF)
 344              		.loc 1 359 7 view .LVU104
 345 0064 0AE0     		b	.L25
 346              	.L119:
 351:Drivers/STM32F3xx_HAL_Driver/Src/stm32f3xx_hal_rcc.c ****       
 347              		.loc 1 351 7 discriminator 1 view .LVU105
 348 0066 9A4A     		ldr	r2, .L131
 349 0068 1368     		ldr	r3, [r2]
 350 006a 43F48033 		orr	r3, r3, #65536
 351 006e 1360     		str	r3, [r2]
 351:Drivers/STM32F3xx_HAL_Driver/Src/stm32f3xx_hal_rcc.c ****       
 352              		.loc 1 351 7 discriminator 1 view .LVU106
 355:Drivers/STM32F3xx_HAL_Driver/Src/stm32f3xx_hal_rcc.c **** #endif /* RCC_CFGR_PLLSRC_HSI_DIV2 */
 353              		.loc 1 355 7 discriminator 1 view .LVU107
 354 0070 D36A     		ldr	r3, [r2, #44]
 355 0072 A168     		ldr	r1, [r4, #8]
 356 0074 23F00F03 		bic	r3, r3, #15
 357 0078 0B43     		orrs	r3, r3, r1
 358 007a D362     		str	r3, [r2, #44]
 359              		.loc 1 359 7 discriminator 1 view .LVU108
 360              	.L25:
 360:Drivers/STM32F3xx_HAL_Driver/Src/stm32f3xx_hal_rcc.c ****       {
ARM GAS  /var/folders/b1/22c950295gx2kqj80tvj8wqc0000gn/T//ccykJ5HB.s 			page 32


 361:Drivers/STM32F3xx_HAL_Driver/Src/stm32f3xx_hal_rcc.c ****         /* Get Start Tick */
 362:Drivers/STM32F3xx_HAL_Driver/Src/stm32f3xx_hal_rcc.c ****         tickstart = HAL_GetTick();
 361              		.loc 1 362 9 view .LVU109
 362              		.loc 1 362 21 is_stmt 0 view .LVU110
 363 007c FFF7FEFF 		bl	HAL_GetTick
 364              	.LVL19:
 363:Drivers/STM32F3xx_HAL_Driver/Src/stm32f3xx_hal_rcc.c ****         
 364:Drivers/STM32F3xx_HAL_Driver/Src/stm32f3xx_hal_rcc.c ****         /* Wait till HSE is ready */
 365:Drivers/STM32F3xx_HAL_Driver/Src/stm32f3xx_hal_rcc.c ****         while(__HAL_RCC_GET_FLAG(RCC_FLAG_HSERDY) == RESET)
 365              		.loc 1 365 15 view .LVU111
 366 0080 934F     		ldr	r7, .L131
 362:Drivers/STM32F3xx_HAL_Driver/Src/stm32f3xx_hal_rcc.c ****         
 367              		.loc 1 362 21 view .LVU112
 368 0082 0546     		mov	r5, r0
 369              	.LVL20:
 370              		.loc 1 365 9 is_stmt 1 view .LVU113
 371              	.LBB180:
 372              	.LBB181:
 988:Drivers/CMSIS/Include/cmsis_gcc.h **** #else
 373              		.loc 2 988 4 is_stmt 0 view .LVU114
 374 0084 4FF40038 		mov	r8, #131072
 375              	.LBE181:
 376              	.LBE180:
 377              		.loc 1 365 15 view .LVU115
 378 0088 0126     		movs	r6, #1
 379              		.loc 1 365 14 view .LVU116
 380 008a 05E0     		b	.L30
 381              	.LVL21:
 382              	.L31:
 366:Drivers/STM32F3xx_HAL_Driver/Src/stm32f3xx_hal_rcc.c ****         {
 367:Drivers/STM32F3xx_HAL_Driver/Src/stm32f3xx_hal_rcc.c ****           if((HAL_GetTick() - tickstart ) > HSE_TIMEOUT_VALUE)
 383              		.loc 1 367 15 view .LVU117
 384 008c FFF7FEFF 		bl	HAL_GetTick
 385              	.LVL22:
 386              		.loc 1 367 29 view .LVU118
 387 0090 401B     		subs	r0, r0, r5
 388              		.loc 1 367 13 view .LVU119
 389 0092 6428     		cmp	r0, #100
 390 0094 00F25C81 		bhi	.L32
 391              	.L30:
 365:Drivers/STM32F3xx_HAL_Driver/Src/stm32f3xx_hal_rcc.c ****         {
 392              		.loc 1 365 51 is_stmt 1 view .LVU120
 393              	.LVL23:
 394              	.LBB183:
 395              	.LBI180:
 981:Drivers/CMSIS/Include/cmsis_gcc.h **** {
 396              		.loc 2 981 31 view .LVU121
 397              	.LBB182:
 983:Drivers/CMSIS/Include/cmsis_gcc.h **** 
 398              		.loc 2 983 3 view .LVU122
 988:Drivers/CMSIS/Include/cmsis_gcc.h **** #else
 399              		.loc 2 988 4 view .LVU123
 400              		.syntax unified
 401              	@ 988 "Drivers/CMSIS/Include/cmsis_gcc.h" 1
 402 0098 98FAA8F3 		rbit r3, r8
 403              	@ 0 "" 2
 404              	.LVL24:
ARM GAS  /var/folders/b1/22c950295gx2kqj80tvj8wqc0000gn/T//ccykJ5HB.s 			page 33


 405              		.loc 2 1001 3 view .LVU124
 406              		.loc 2 1001 3 is_stmt 0 view .LVU125
 407              		.thumb
 408              		.syntax unified
 409              	.LBE182:
 410              	.LBE183:
 365:Drivers/STM32F3xx_HAL_Driver/Src/stm32f3xx_hal_rcc.c ****         {
 411              		.loc 1 365 15 view .LVU126
 412 009c 3A68     		ldr	r2, [r7]
 413              	.LVL25:
 414              	.LBB184:
 415              	.LBI184:
 981:Drivers/CMSIS/Include/cmsis_gcc.h **** {
 416              		.loc 2 981 31 is_stmt 1 view .LVU127
 417              	.LBB185:
 983:Drivers/CMSIS/Include/cmsis_gcc.h **** 
 418              		.loc 2 983 3 view .LVU128
 988:Drivers/CMSIS/Include/cmsis_gcc.h **** #else
 419              		.loc 2 988 4 view .LVU129
 420              		.syntax unified
 421              	@ 988 "Drivers/CMSIS/Include/cmsis_gcc.h" 1
 422 009e 98FAA8F3 		rbit r3, r8
 423              	@ 0 "" 2
 424              		.thumb
 425              		.syntax unified
 426              	.LBE185:
 427              	.LBE184:
 428              		.loc 1 367 11 view .LVU130
 429              	.LVL26:
 430              	.LBB187:
 431              	.LBB186:
 432              		.loc 2 1001 3 view .LVU131
 433              		.loc 2 1001 3 is_stmt 0 view .LVU132
 434              	.LBE186:
 435              	.LBE187:
 365:Drivers/STM32F3xx_HAL_Driver/Src/stm32f3xx_hal_rcc.c ****         {
 436              		.loc 1 365 15 view .LVU133
 437 00a2 B3FA83F3 		clz	r3, r3
 438 00a6 06FA03F3 		lsl	r3, r6, r3
 365:Drivers/STM32F3xx_HAL_Driver/Src/stm32f3xx_hal_rcc.c ****         {
 439              		.loc 1 365 51 view .LVU134
 440 00aa 1342     		tst	r3, r2
 441 00ac EED0     		beq	.L31
 442              	.LVL27:
 443              	.L115:
 368:Drivers/STM32F3xx_HAL_Driver/Src/stm32f3xx_hal_rcc.c ****           {
 369:Drivers/STM32F3xx_HAL_Driver/Src/stm32f3xx_hal_rcc.c ****             return HAL_TIMEOUT;
 370:Drivers/STM32F3xx_HAL_Driver/Src/stm32f3xx_hal_rcc.c ****           }
 371:Drivers/STM32F3xx_HAL_Driver/Src/stm32f3xx_hal_rcc.c ****         }
 372:Drivers/STM32F3xx_HAL_Driver/Src/stm32f3xx_hal_rcc.c ****       }
 373:Drivers/STM32F3xx_HAL_Driver/Src/stm32f3xx_hal_rcc.c ****       else
 374:Drivers/STM32F3xx_HAL_Driver/Src/stm32f3xx_hal_rcc.c ****       {
 375:Drivers/STM32F3xx_HAL_Driver/Src/stm32f3xx_hal_rcc.c ****         /* Get Start Tick */
 376:Drivers/STM32F3xx_HAL_Driver/Src/stm32f3xx_hal_rcc.c ****         tickstart = HAL_GetTick();
 377:Drivers/STM32F3xx_HAL_Driver/Src/stm32f3xx_hal_rcc.c ****         
 378:Drivers/STM32F3xx_HAL_Driver/Src/stm32f3xx_hal_rcc.c ****         /* Wait till HSE is disabled */
 379:Drivers/STM32F3xx_HAL_Driver/Src/stm32f3xx_hal_rcc.c ****         while(__HAL_RCC_GET_FLAG(RCC_FLAG_HSERDY) != RESET)
ARM GAS  /var/folders/b1/22c950295gx2kqj80tvj8wqc0000gn/T//ccykJ5HB.s 			page 34


 380:Drivers/STM32F3xx_HAL_Driver/Src/stm32f3xx_hal_rcc.c ****         {
 381:Drivers/STM32F3xx_HAL_Driver/Src/stm32f3xx_hal_rcc.c ****            if((HAL_GetTick() - tickstart ) > HSE_TIMEOUT_VALUE)
 382:Drivers/STM32F3xx_HAL_Driver/Src/stm32f3xx_hal_rcc.c ****           {
 383:Drivers/STM32F3xx_HAL_Driver/Src/stm32f3xx_hal_rcc.c ****             return HAL_TIMEOUT;
 384:Drivers/STM32F3xx_HAL_Driver/Src/stm32f3xx_hal_rcc.c ****           }
 385:Drivers/STM32F3xx_HAL_Driver/Src/stm32f3xx_hal_rcc.c ****         }
 386:Drivers/STM32F3xx_HAL_Driver/Src/stm32f3xx_hal_rcc.c ****       }
 387:Drivers/STM32F3xx_HAL_Driver/Src/stm32f3xx_hal_rcc.c ****     }
 388:Drivers/STM32F3xx_HAL_Driver/Src/stm32f3xx_hal_rcc.c ****   }
 389:Drivers/STM32F3xx_HAL_Driver/Src/stm32f3xx_hal_rcc.c ****   /*----------------------------- HSI Configuration --------------------------*/ 
 390:Drivers/STM32F3xx_HAL_Driver/Src/stm32f3xx_hal_rcc.c ****   if(((RCC_OscInitStruct->OscillatorType) & RCC_OSCILLATORTYPE_HSI) == RCC_OSCILLATORTYPE_HSI)
 444              		.loc 1 390 25 view .LVU135
 445 00ae 2368     		ldr	r3, [r4]
 446              	.L20:
 447              		.loc 1 390 3 is_stmt 1 view .LVU136
 448              		.loc 1 390 5 is_stmt 0 view .LVU137
 449 00b0 9F07     		lsls	r7, r3, #30
 450 00b2 3FD5     		bpl	.L34
 391:Drivers/STM32F3xx_HAL_Driver/Src/stm32f3xx_hal_rcc.c ****   {
 392:Drivers/STM32F3xx_HAL_Driver/Src/stm32f3xx_hal_rcc.c ****     /* Check the parameters */
 393:Drivers/STM32F3xx_HAL_Driver/Src/stm32f3xx_hal_rcc.c ****     assert_param(IS_RCC_HSI(RCC_OscInitStruct->HSIState));
 451              		.loc 1 393 5 is_stmt 1 view .LVU138
 394:Drivers/STM32F3xx_HAL_Driver/Src/stm32f3xx_hal_rcc.c ****     assert_param(IS_RCC_CALIBRATION_VALUE(RCC_OscInitStruct->HSICalibrationValue));
 452              		.loc 1 394 5 view .LVU139
 395:Drivers/STM32F3xx_HAL_Driver/Src/stm32f3xx_hal_rcc.c ****     
 396:Drivers/STM32F3xx_HAL_Driver/Src/stm32f3xx_hal_rcc.c ****     /* Check if HSI is used as system clock or as PLL source when PLL is selected as system clock *
 397:Drivers/STM32F3xx_HAL_Driver/Src/stm32f3xx_hal_rcc.c ****     if((__HAL_RCC_GET_SYSCLK_SOURCE() == RCC_SYSCLKSOURCE_STATUS_HSI) 
 453              		.loc 1 397 5 view .LVU140
 454              		.loc 1 397 9 is_stmt 0 view .LVU141
 455 00b4 864A     		ldr	r2, .L131
 456 00b6 5168     		ldr	r1, [r2, #4]
 457              		.loc 1 397 7 view .LVU142
 458 00b8 11F00C0F 		tst	r1, #12
 459 00bc 00F0C280 		beq	.L35
 398:Drivers/STM32F3xx_HAL_Driver/Src/stm32f3xx_hal_rcc.c ****        || ((__HAL_RCC_GET_SYSCLK_SOURCE() == RCC_SYSCLKSOURCE_STATUS_PLLCLK) && (__HAL_RCC_GET_PLL_
 460              		.loc 1 398 13 view .LVU143
 461 00c0 5168     		ldr	r1, [r2, #4]
 462 00c2 01F00C01 		and	r1, r1, #12
 463              		.loc 1 398 8 view .LVU144
 464 00c6 0829     		cmp	r1, #8
 465 00c8 00F0B880 		beq	.L122
 466              	.L36:
 399:Drivers/STM32F3xx_HAL_Driver/Src/stm32f3xx_hal_rcc.c ****     {
 400:Drivers/STM32F3xx_HAL_Driver/Src/stm32f3xx_hal_rcc.c ****       /* When HSI is used as system clock it will not disabled */
 401:Drivers/STM32F3xx_HAL_Driver/Src/stm32f3xx_hal_rcc.c ****       if((__HAL_RCC_GET_FLAG(RCC_FLAG_HSIRDY) != RESET) && (RCC_OscInitStruct->HSIState != RCC_HSI_
 402:Drivers/STM32F3xx_HAL_Driver/Src/stm32f3xx_hal_rcc.c ****       {
 403:Drivers/STM32F3xx_HAL_Driver/Src/stm32f3xx_hal_rcc.c ****         return HAL_ERROR;
 404:Drivers/STM32F3xx_HAL_Driver/Src/stm32f3xx_hal_rcc.c ****       }
 405:Drivers/STM32F3xx_HAL_Driver/Src/stm32f3xx_hal_rcc.c ****       /* Otherwise, just the calibration is allowed */
 406:Drivers/STM32F3xx_HAL_Driver/Src/stm32f3xx_hal_rcc.c ****       else
 407:Drivers/STM32F3xx_HAL_Driver/Src/stm32f3xx_hal_rcc.c ****       {
 408:Drivers/STM32F3xx_HAL_Driver/Src/stm32f3xx_hal_rcc.c ****         /* Adjusts the Internal High Speed oscillator (HSI) calibration value.*/
 409:Drivers/STM32F3xx_HAL_Driver/Src/stm32f3xx_hal_rcc.c ****         __HAL_RCC_HSI_CALIBRATIONVALUE_ADJUST(RCC_OscInitStruct->HSICalibrationValue);
 410:Drivers/STM32F3xx_HAL_Driver/Src/stm32f3xx_hal_rcc.c ****       }
 411:Drivers/STM32F3xx_HAL_Driver/Src/stm32f3xx_hal_rcc.c ****     }
 412:Drivers/STM32F3xx_HAL_Driver/Src/stm32f3xx_hal_rcc.c ****     else
 413:Drivers/STM32F3xx_HAL_Driver/Src/stm32f3xx_hal_rcc.c ****     {
ARM GAS  /var/folders/b1/22c950295gx2kqj80tvj8wqc0000gn/T//ccykJ5HB.s 			page 35


 414:Drivers/STM32F3xx_HAL_Driver/Src/stm32f3xx_hal_rcc.c ****       /* Check the HSI State */
 415:Drivers/STM32F3xx_HAL_Driver/Src/stm32f3xx_hal_rcc.c ****       if(RCC_OscInitStruct->HSIState != RCC_HSI_OFF)
 467              		.loc 1 415 7 is_stmt 1 view .LVU145
 468              		.loc 1 415 9 is_stmt 0 view .LVU146
 469 00cc 2269     		ldr	r2, [r4, #16]
 470 00ce 002A     		cmp	r2, #0
 471 00d0 00F09781 		beq	.L38
 416:Drivers/STM32F3xx_HAL_Driver/Src/stm32f3xx_hal_rcc.c ****       {
 417:Drivers/STM32F3xx_HAL_Driver/Src/stm32f3xx_hal_rcc.c ****        /* Enable the Internal High Speed oscillator (HSI). */
 418:Drivers/STM32F3xx_HAL_Driver/Src/stm32f3xx_hal_rcc.c ****         __HAL_RCC_HSI_ENABLE();
 472              		.loc 1 418 9 is_stmt 1 view .LVU147
 473              	.LVL28:
 474              	.LBB188:
 475              	.LBI188:
 981:Drivers/CMSIS/Include/cmsis_gcc.h **** {
 476              		.loc 2 981 31 view .LVU148
 477              	.LBB189:
 983:Drivers/CMSIS/Include/cmsis_gcc.h **** 
 478              		.loc 2 983 3 view .LVU149
 988:Drivers/CMSIS/Include/cmsis_gcc.h **** #else
 479              		.loc 2 988 4 view .LVU150
 480 00d4 0125     		movs	r5, #1
 481              		.syntax unified
 482              	@ 988 "Drivers/CMSIS/Include/cmsis_gcc.h" 1
 483 00d6 95FAA5F3 		rbit r3, r5
 484              	@ 0 "" 2
 485              	.LVL29:
 486              		.loc 2 1001 3 view .LVU151
 487              		.loc 2 1001 3 is_stmt 0 view .LVU152
 488              		.thumb
 489              		.syntax unified
 490              	.LBE189:
 491              	.LBE188:
 492              		.loc 1 418 9 view .LVU153
 493 00da B3FA83F3 		clz	r3, r3
 494 00de 03F18453 		add	r3, r3, #276824064
 495 00e2 03F58413 		add	r3, r3, #1081344
 496 00e6 9B00     		lsls	r3, r3, #2
 419:Drivers/STM32F3xx_HAL_Driver/Src/stm32f3xx_hal_rcc.c ****         
 420:Drivers/STM32F3xx_HAL_Driver/Src/stm32f3xx_hal_rcc.c ****         /* Get Start Tick */
 421:Drivers/STM32F3xx_HAL_Driver/Src/stm32f3xx_hal_rcc.c ****         tickstart = HAL_GetTick();
 422:Drivers/STM32F3xx_HAL_Driver/Src/stm32f3xx_hal_rcc.c ****         
 423:Drivers/STM32F3xx_HAL_Driver/Src/stm32f3xx_hal_rcc.c ****         /* Wait till HSI is ready */
 424:Drivers/STM32F3xx_HAL_Driver/Src/stm32f3xx_hal_rcc.c ****         while(__HAL_RCC_GET_FLAG(RCC_FLAG_HSIRDY) == RESET)
 497              		.loc 1 424 15 view .LVU154
 498 00e8 794F     		ldr	r7, .L131
 418:Drivers/STM32F3xx_HAL_Driver/Src/stm32f3xx_hal_rcc.c ****         
 499              		.loc 1 418 9 view .LVU155
 500 00ea 1D60     		str	r5, [r3]
 421:Drivers/STM32F3xx_HAL_Driver/Src/stm32f3xx_hal_rcc.c ****         
 501              		.loc 1 421 9 is_stmt 1 view .LVU156
 421:Drivers/STM32F3xx_HAL_Driver/Src/stm32f3xx_hal_rcc.c ****         
 502              		.loc 1 421 21 is_stmt 0 view .LVU157
 503 00ec FFF7FEFF 		bl	HAL_GetTick
 504              	.LVL30:
 505              	.LBB190:
 506              	.LBB191:
ARM GAS  /var/folders/b1/22c950295gx2kqj80tvj8wqc0000gn/T//ccykJ5HB.s 			page 36


 988:Drivers/CMSIS/Include/cmsis_gcc.h **** #else
 507              		.loc 2 988 4 view .LVU158
 508 00f0 4FF00208 		mov	r8, #2
 509              	.LBE191:
 510              	.LBE190:
 421:Drivers/STM32F3xx_HAL_Driver/Src/stm32f3xx_hal_rcc.c ****         
 511              		.loc 1 421 21 view .LVU159
 512 00f4 0646     		mov	r6, r0
 513              	.LVL31:
 514              		.loc 1 424 9 is_stmt 1 view .LVU160
 515              		.loc 1 424 14 is_stmt 0 view .LVU161
 516 00f6 05E0     		b	.L39
 517              	.LVL32:
 518              	.L40:
 425:Drivers/STM32F3xx_HAL_Driver/Src/stm32f3xx_hal_rcc.c ****         {
 426:Drivers/STM32F3xx_HAL_Driver/Src/stm32f3xx_hal_rcc.c ****           if((HAL_GetTick() - tickstart ) > HSI_TIMEOUT_VALUE)
 519              		.loc 1 426 15 view .LVU162
 520 00f8 FFF7FEFF 		bl	HAL_GetTick
 521              	.LVL33:
 522              		.loc 1 426 29 view .LVU163
 523 00fc 801B     		subs	r0, r0, r6
 524              		.loc 1 426 13 view .LVU164
 525 00fe 0228     		cmp	r0, #2
 526 0100 00F22681 		bhi	.L32
 527              	.L39:
 424:Drivers/STM32F3xx_HAL_Driver/Src/stm32f3xx_hal_rcc.c ****         {
 528              		.loc 1 424 51 is_stmt 1 view .LVU165
 529              	.LVL34:
 530              	.LBB193:
 531              	.LBI190:
 981:Drivers/CMSIS/Include/cmsis_gcc.h **** {
 532              		.loc 2 981 31 view .LVU166
 533              	.LBB192:
 983:Drivers/CMSIS/Include/cmsis_gcc.h **** 
 534              		.loc 2 983 3 view .LVU167
 988:Drivers/CMSIS/Include/cmsis_gcc.h **** #else
 535              		.loc 2 988 4 view .LVU168
 536              		.syntax unified
 537              	@ 988 "Drivers/CMSIS/Include/cmsis_gcc.h" 1
 538 0104 98FAA8F3 		rbit r3, r8
 539              	@ 0 "" 2
 540              	.LVL35:
 541              		.loc 2 1001 3 view .LVU169
 542              		.loc 2 1001 3 is_stmt 0 view .LVU170
 543              		.thumb
 544              		.syntax unified
 545              	.LBE192:
 546              	.LBE193:
 424:Drivers/STM32F3xx_HAL_Driver/Src/stm32f3xx_hal_rcc.c ****         {
 547              		.loc 1 424 15 view .LVU171
 548 0108 3A68     		ldr	r2, [r7]
 549              	.LVL36:
 550              	.LBB194:
 551              	.LBI194:
 981:Drivers/CMSIS/Include/cmsis_gcc.h **** {
 552              		.loc 2 981 31 is_stmt 1 view .LVU172
 553              	.LBB195:
ARM GAS  /var/folders/b1/22c950295gx2kqj80tvj8wqc0000gn/T//ccykJ5HB.s 			page 37


 983:Drivers/CMSIS/Include/cmsis_gcc.h **** 
 554              		.loc 2 983 3 view .LVU173
 988:Drivers/CMSIS/Include/cmsis_gcc.h **** #else
 555              		.loc 2 988 4 view .LVU174
 556              		.syntax unified
 557              	@ 988 "Drivers/CMSIS/Include/cmsis_gcc.h" 1
 558 010a 98FAA8F3 		rbit r3, r8
 559              	@ 0 "" 2
 560              		.thumb
 561              		.syntax unified
 562              	.LBE195:
 563              	.LBE194:
 564              		.loc 1 426 11 view .LVU175
 565              	.LVL37:
 566              	.LBB197:
 567              	.LBB196:
 568              		.loc 2 1001 3 view .LVU176
 569              		.loc 2 1001 3 is_stmt 0 view .LVU177
 570              	.LBE196:
 571              	.LBE197:
 424:Drivers/STM32F3xx_HAL_Driver/Src/stm32f3xx_hal_rcc.c ****         {
 572              		.loc 1 424 15 view .LVU178
 573 010e B3FA83F3 		clz	r3, r3
 574 0112 05FA03F3 		lsl	r3, r5, r3
 424:Drivers/STM32F3xx_HAL_Driver/Src/stm32f3xx_hal_rcc.c ****         {
 575              		.loc 1 424 51 view .LVU179
 576 0116 1342     		tst	r3, r2
 577 0118 EED0     		beq	.L40
 427:Drivers/STM32F3xx_HAL_Driver/Src/stm32f3xx_hal_rcc.c ****           {
 428:Drivers/STM32F3xx_HAL_Driver/Src/stm32f3xx_hal_rcc.c ****             return HAL_TIMEOUT;
 429:Drivers/STM32F3xx_HAL_Driver/Src/stm32f3xx_hal_rcc.c ****           }
 430:Drivers/STM32F3xx_HAL_Driver/Src/stm32f3xx_hal_rcc.c ****         }
 431:Drivers/STM32F3xx_HAL_Driver/Src/stm32f3xx_hal_rcc.c ****                 
 432:Drivers/STM32F3xx_HAL_Driver/Src/stm32f3xx_hal_rcc.c ****         /* Adjusts the Internal High Speed oscillator (HSI) calibration value.*/
 433:Drivers/STM32F3xx_HAL_Driver/Src/stm32f3xx_hal_rcc.c ****         __HAL_RCC_HSI_CALIBRATIONVALUE_ADJUST(RCC_OscInitStruct->HSICalibrationValue);
 578              		.loc 1 433 9 is_stmt 1 view .LVU180
 579 011a 3968     		ldr	r1, [r7]
 580              	.LVL38:
 581              	.LBB198:
 582              	.LBI198:
 981:Drivers/CMSIS/Include/cmsis_gcc.h **** {
 583              		.loc 2 981 31 view .LVU181
 584              	.LBB199:
 983:Drivers/CMSIS/Include/cmsis_gcc.h **** 
 585              		.loc 2 983 3 view .LVU182
 988:Drivers/CMSIS/Include/cmsis_gcc.h **** #else
 586              		.loc 2 988 4 view .LVU183
 587 011c F822     		movs	r2, #248
 588              		.syntax unified
 589              	@ 988 "Drivers/CMSIS/Include/cmsis_gcc.h" 1
 590 011e 92FAA2F2 		rbit r2, r2
 591              	@ 0 "" 2
 592              	.LVL39:
 593              		.loc 2 1001 3 view .LVU184
 594              		.loc 2 1001 3 is_stmt 0 view .LVU185
 595              		.thumb
 596              		.syntax unified
ARM GAS  /var/folders/b1/22c950295gx2kqj80tvj8wqc0000gn/T//ccykJ5HB.s 			page 38


 597              	.LBE199:
 598              	.LBE198:
 599              		.loc 1 433 9 view .LVU186
 600 0122 6369     		ldr	r3, [r4, #20]
 601 0124 B2FA82F2 		clz	r2, r2
 602 0128 9340     		lsls	r3, r3, r2
 603 012a 21F0F802 		bic	r2, r1, #248
 604 012e 1343     		orrs	r3, r3, r2
 605 0130 3B60     		str	r3, [r7]
 434:Drivers/STM32F3xx_HAL_Driver/Src/stm32f3xx_hal_rcc.c ****       }
 435:Drivers/STM32F3xx_HAL_Driver/Src/stm32f3xx_hal_rcc.c ****       else
 436:Drivers/STM32F3xx_HAL_Driver/Src/stm32f3xx_hal_rcc.c ****       {
 437:Drivers/STM32F3xx_HAL_Driver/Src/stm32f3xx_hal_rcc.c ****         /* Disable the Internal High Speed oscillator (HSI). */
 438:Drivers/STM32F3xx_HAL_Driver/Src/stm32f3xx_hal_rcc.c ****         __HAL_RCC_HSI_DISABLE();
 439:Drivers/STM32F3xx_HAL_Driver/Src/stm32f3xx_hal_rcc.c ****         
 440:Drivers/STM32F3xx_HAL_Driver/Src/stm32f3xx_hal_rcc.c ****         /* Get Start Tick */
 441:Drivers/STM32F3xx_HAL_Driver/Src/stm32f3xx_hal_rcc.c ****         tickstart = HAL_GetTick();
 442:Drivers/STM32F3xx_HAL_Driver/Src/stm32f3xx_hal_rcc.c ****         
 443:Drivers/STM32F3xx_HAL_Driver/Src/stm32f3xx_hal_rcc.c ****         /* Wait till HSI is disabled */
 444:Drivers/STM32F3xx_HAL_Driver/Src/stm32f3xx_hal_rcc.c ****         while(__HAL_RCC_GET_FLAG(RCC_FLAG_HSIRDY) != RESET)
 445:Drivers/STM32F3xx_HAL_Driver/Src/stm32f3xx_hal_rcc.c ****         {
 446:Drivers/STM32F3xx_HAL_Driver/Src/stm32f3xx_hal_rcc.c ****           if((HAL_GetTick() - tickstart ) > HSI_TIMEOUT_VALUE)
 447:Drivers/STM32F3xx_HAL_Driver/Src/stm32f3xx_hal_rcc.c ****           {
 448:Drivers/STM32F3xx_HAL_Driver/Src/stm32f3xx_hal_rcc.c ****             return HAL_TIMEOUT;
 449:Drivers/STM32F3xx_HAL_Driver/Src/stm32f3xx_hal_rcc.c ****           }
 450:Drivers/STM32F3xx_HAL_Driver/Src/stm32f3xx_hal_rcc.c ****         }
 451:Drivers/STM32F3xx_HAL_Driver/Src/stm32f3xx_hal_rcc.c ****       }
 452:Drivers/STM32F3xx_HAL_Driver/Src/stm32f3xx_hal_rcc.c ****     }
 453:Drivers/STM32F3xx_HAL_Driver/Src/stm32f3xx_hal_rcc.c ****   }
 454:Drivers/STM32F3xx_HAL_Driver/Src/stm32f3xx_hal_rcc.c ****   /*------------------------------ LSI Configuration -------------------------*/ 
 455:Drivers/STM32F3xx_HAL_Driver/Src/stm32f3xx_hal_rcc.c ****   if(((RCC_OscInitStruct->OscillatorType) & RCC_OSCILLATORTYPE_LSI) == RCC_OSCILLATORTYPE_LSI)
 606              		.loc 1 455 25 view .LVU187
 607 0132 2368     		ldr	r3, [r4]
 608              	.LVL40:
 609              	.L34:
 610              		.loc 1 455 3 is_stmt 1 view .LVU188
 611              		.loc 1 455 5 is_stmt 0 view .LVU189
 612 0134 1D07     		lsls	r5, r3, #28
 613 0136 20D4     		bmi	.L123
 614              	.L43:
 456:Drivers/STM32F3xx_HAL_Driver/Src/stm32f3xx_hal_rcc.c ****   {
 457:Drivers/STM32F3xx_HAL_Driver/Src/stm32f3xx_hal_rcc.c ****     /* Check the parameters */
 458:Drivers/STM32F3xx_HAL_Driver/Src/stm32f3xx_hal_rcc.c ****     assert_param(IS_RCC_LSI(RCC_OscInitStruct->LSIState));
 459:Drivers/STM32F3xx_HAL_Driver/Src/stm32f3xx_hal_rcc.c ****     
 460:Drivers/STM32F3xx_HAL_Driver/Src/stm32f3xx_hal_rcc.c ****     /* Check the LSI State */
 461:Drivers/STM32F3xx_HAL_Driver/Src/stm32f3xx_hal_rcc.c ****     if(RCC_OscInitStruct->LSIState != RCC_LSI_OFF)
 462:Drivers/STM32F3xx_HAL_Driver/Src/stm32f3xx_hal_rcc.c ****     {
 463:Drivers/STM32F3xx_HAL_Driver/Src/stm32f3xx_hal_rcc.c ****       /* Enable the Internal Low Speed oscillator (LSI). */
 464:Drivers/STM32F3xx_HAL_Driver/Src/stm32f3xx_hal_rcc.c ****       __HAL_RCC_LSI_ENABLE();
 465:Drivers/STM32F3xx_HAL_Driver/Src/stm32f3xx_hal_rcc.c ****       
 466:Drivers/STM32F3xx_HAL_Driver/Src/stm32f3xx_hal_rcc.c ****       /* Get Start Tick */
 467:Drivers/STM32F3xx_HAL_Driver/Src/stm32f3xx_hal_rcc.c ****       tickstart = HAL_GetTick();
 468:Drivers/STM32F3xx_HAL_Driver/Src/stm32f3xx_hal_rcc.c ****       
 469:Drivers/STM32F3xx_HAL_Driver/Src/stm32f3xx_hal_rcc.c ****       /* Wait till LSI is ready */  
 470:Drivers/STM32F3xx_HAL_Driver/Src/stm32f3xx_hal_rcc.c ****       while(__HAL_RCC_GET_FLAG(RCC_FLAG_LSIRDY) == RESET)
 471:Drivers/STM32F3xx_HAL_Driver/Src/stm32f3xx_hal_rcc.c ****       {
 472:Drivers/STM32F3xx_HAL_Driver/Src/stm32f3xx_hal_rcc.c ****         if((HAL_GetTick() - tickstart ) > LSI_TIMEOUT_VALUE)
ARM GAS  /var/folders/b1/22c950295gx2kqj80tvj8wqc0000gn/T//ccykJ5HB.s 			page 39


 473:Drivers/STM32F3xx_HAL_Driver/Src/stm32f3xx_hal_rcc.c ****         {
 474:Drivers/STM32F3xx_HAL_Driver/Src/stm32f3xx_hal_rcc.c ****           return HAL_TIMEOUT;
 475:Drivers/STM32F3xx_HAL_Driver/Src/stm32f3xx_hal_rcc.c ****         }
 476:Drivers/STM32F3xx_HAL_Driver/Src/stm32f3xx_hal_rcc.c ****       }
 477:Drivers/STM32F3xx_HAL_Driver/Src/stm32f3xx_hal_rcc.c ****     }
 478:Drivers/STM32F3xx_HAL_Driver/Src/stm32f3xx_hal_rcc.c ****     else
 479:Drivers/STM32F3xx_HAL_Driver/Src/stm32f3xx_hal_rcc.c ****     {
 480:Drivers/STM32F3xx_HAL_Driver/Src/stm32f3xx_hal_rcc.c ****       /* Disable the Internal Low Speed oscillator (LSI). */
 481:Drivers/STM32F3xx_HAL_Driver/Src/stm32f3xx_hal_rcc.c ****       __HAL_RCC_LSI_DISABLE();
 482:Drivers/STM32F3xx_HAL_Driver/Src/stm32f3xx_hal_rcc.c ****       
 483:Drivers/STM32F3xx_HAL_Driver/Src/stm32f3xx_hal_rcc.c ****       /* Get Start Tick */
 484:Drivers/STM32F3xx_HAL_Driver/Src/stm32f3xx_hal_rcc.c ****       tickstart = HAL_GetTick();
 485:Drivers/STM32F3xx_HAL_Driver/Src/stm32f3xx_hal_rcc.c ****       
 486:Drivers/STM32F3xx_HAL_Driver/Src/stm32f3xx_hal_rcc.c ****       /* Wait till LSI is disabled */  
 487:Drivers/STM32F3xx_HAL_Driver/Src/stm32f3xx_hal_rcc.c ****       while(__HAL_RCC_GET_FLAG(RCC_FLAG_LSIRDY) != RESET)
 488:Drivers/STM32F3xx_HAL_Driver/Src/stm32f3xx_hal_rcc.c ****       {
 489:Drivers/STM32F3xx_HAL_Driver/Src/stm32f3xx_hal_rcc.c ****         if((HAL_GetTick() - tickstart ) > LSI_TIMEOUT_VALUE)
 490:Drivers/STM32F3xx_HAL_Driver/Src/stm32f3xx_hal_rcc.c ****         {
 491:Drivers/STM32F3xx_HAL_Driver/Src/stm32f3xx_hal_rcc.c ****           return HAL_TIMEOUT;
 492:Drivers/STM32F3xx_HAL_Driver/Src/stm32f3xx_hal_rcc.c ****         }
 493:Drivers/STM32F3xx_HAL_Driver/Src/stm32f3xx_hal_rcc.c ****       }
 494:Drivers/STM32F3xx_HAL_Driver/Src/stm32f3xx_hal_rcc.c ****     }
 495:Drivers/STM32F3xx_HAL_Driver/Src/stm32f3xx_hal_rcc.c ****   }
 496:Drivers/STM32F3xx_HAL_Driver/Src/stm32f3xx_hal_rcc.c ****   /*------------------------------ LSE Configuration -------------------------*/ 
 497:Drivers/STM32F3xx_HAL_Driver/Src/stm32f3xx_hal_rcc.c ****   if(((RCC_OscInitStruct->OscillatorType) & RCC_OSCILLATORTYPE_LSE) == RCC_OSCILLATORTYPE_LSE)
 615              		.loc 1 497 3 is_stmt 1 view .LVU190
 616              		.loc 1 497 5 is_stmt 0 view .LVU191
 617 0138 5807     		lsls	r0, r3, #29
 618 013a 4AD5     		bpl	.L50
 619              	.L128:
 620              	.LBB200:
 498:Drivers/STM32F3xx_HAL_Driver/Src/stm32f3xx_hal_rcc.c ****   {
 499:Drivers/STM32F3xx_HAL_Driver/Src/stm32f3xx_hal_rcc.c ****     FlagStatus       pwrclkchanged = RESET;
 621              		.loc 1 499 5 is_stmt 1 view .LVU192
 622              	.LVL41:
 500:Drivers/STM32F3xx_HAL_Driver/Src/stm32f3xx_hal_rcc.c ****     
 501:Drivers/STM32F3xx_HAL_Driver/Src/stm32f3xx_hal_rcc.c ****     /* Check the parameters */
 502:Drivers/STM32F3xx_HAL_Driver/Src/stm32f3xx_hal_rcc.c ****     assert_param(IS_RCC_LSE(RCC_OscInitStruct->LSEState));
 623              		.loc 1 502 5 view .LVU193
 503:Drivers/STM32F3xx_HAL_Driver/Src/stm32f3xx_hal_rcc.c **** 
 504:Drivers/STM32F3xx_HAL_Driver/Src/stm32f3xx_hal_rcc.c ****     /* Update LSE configuration in Backup Domain control register    */
 505:Drivers/STM32F3xx_HAL_Driver/Src/stm32f3xx_hal_rcc.c ****     /* Requires to enable write access to Backup Domain of necessary */
 506:Drivers/STM32F3xx_HAL_Driver/Src/stm32f3xx_hal_rcc.c ****     if(__HAL_RCC_PWR_IS_CLK_DISABLED())
 624              		.loc 1 506 5 view .LVU194
 625              		.loc 1 506 8 is_stmt 0 view .LVU195
 626 013c 644B     		ldr	r3, .L131
 627 013e DA69     		ldr	r2, [r3, #28]
 628              		.loc 1 506 7 view .LVU196
 629 0140 D100     		lsls	r1, r2, #3
 630 0142 40F1BA80 		bpl	.L124
 499:Drivers/STM32F3xx_HAL_Driver/Src/stm32f3xx_hal_rcc.c ****     
 631              		.loc 1 499 22 view .LVU197
 632 0146 0025     		movs	r5, #0
 633              	.LVL42:
 634              	.L51:
 507:Drivers/STM32F3xx_HAL_Driver/Src/stm32f3xx_hal_rcc.c ****     {
 508:Drivers/STM32F3xx_HAL_Driver/Src/stm32f3xx_hal_rcc.c ****       __HAL_RCC_PWR_CLK_ENABLE();
ARM GAS  /var/folders/b1/22c950295gx2kqj80tvj8wqc0000gn/T//ccykJ5HB.s 			page 40


 509:Drivers/STM32F3xx_HAL_Driver/Src/stm32f3xx_hal_rcc.c ****       pwrclkchanged = SET;
 510:Drivers/STM32F3xx_HAL_Driver/Src/stm32f3xx_hal_rcc.c ****     }
 511:Drivers/STM32F3xx_HAL_Driver/Src/stm32f3xx_hal_rcc.c ****     
 512:Drivers/STM32F3xx_HAL_Driver/Src/stm32f3xx_hal_rcc.c ****     if(HAL_IS_BIT_CLR(PWR->CR, PWR_CR_DBP))
 635              		.loc 1 512 5 is_stmt 1 view .LVU198
 636              		.loc 1 512 8 is_stmt 0 view .LVU199
 637 0148 624E     		ldr	r6, .L131+4
 638 014a 3368     		ldr	r3, [r6]
 639              		.loc 1 512 7 view .LVU200
 640 014c DA05     		lsls	r2, r3, #23
 641 014e 40F1EF80 		bpl	.L52
 642              	.L57:
 513:Drivers/STM32F3xx_HAL_Driver/Src/stm32f3xx_hal_rcc.c ****     {
 514:Drivers/STM32F3xx_HAL_Driver/Src/stm32f3xx_hal_rcc.c ****       /* Enable write access to Backup domain */
 515:Drivers/STM32F3xx_HAL_Driver/Src/stm32f3xx_hal_rcc.c ****       SET_BIT(PWR->CR, PWR_CR_DBP);
 516:Drivers/STM32F3xx_HAL_Driver/Src/stm32f3xx_hal_rcc.c ****       
 517:Drivers/STM32F3xx_HAL_Driver/Src/stm32f3xx_hal_rcc.c ****       /* Wait for Backup domain Write protection disable */
 518:Drivers/STM32F3xx_HAL_Driver/Src/stm32f3xx_hal_rcc.c ****       tickstart = HAL_GetTick();
 519:Drivers/STM32F3xx_HAL_Driver/Src/stm32f3xx_hal_rcc.c **** 
 520:Drivers/STM32F3xx_HAL_Driver/Src/stm32f3xx_hal_rcc.c ****       while(HAL_IS_BIT_CLR(PWR->CR, PWR_CR_DBP))
 521:Drivers/STM32F3xx_HAL_Driver/Src/stm32f3xx_hal_rcc.c ****       {
 522:Drivers/STM32F3xx_HAL_Driver/Src/stm32f3xx_hal_rcc.c ****         if((HAL_GetTick() - tickstart) > RCC_DBP_TIMEOUT_VALUE)
 523:Drivers/STM32F3xx_HAL_Driver/Src/stm32f3xx_hal_rcc.c ****         {
 524:Drivers/STM32F3xx_HAL_Driver/Src/stm32f3xx_hal_rcc.c ****           return HAL_TIMEOUT;
 525:Drivers/STM32F3xx_HAL_Driver/Src/stm32f3xx_hal_rcc.c ****         }
 526:Drivers/STM32F3xx_HAL_Driver/Src/stm32f3xx_hal_rcc.c ****       }
 527:Drivers/STM32F3xx_HAL_Driver/Src/stm32f3xx_hal_rcc.c ****     }
 528:Drivers/STM32F3xx_HAL_Driver/Src/stm32f3xx_hal_rcc.c **** 
 529:Drivers/STM32F3xx_HAL_Driver/Src/stm32f3xx_hal_rcc.c ****     /* Set the new LSE configuration -----------------------------------------*/
 530:Drivers/STM32F3xx_HAL_Driver/Src/stm32f3xx_hal_rcc.c ****     __HAL_RCC_LSE_CONFIG(RCC_OscInitStruct->LSEState);
 643              		.loc 1 530 5 is_stmt 1 view .LVU201
 644              		.loc 1 530 5 view .LVU202
 645 0152 E368     		ldr	r3, [r4, #12]
 646 0154 012B     		cmp	r3, #1
 647 0156 00F07881 		beq	.L125
 648              		.loc 1 530 5 discriminator 2 view .LVU203
 649 015a 002B     		cmp	r3, #0
 650 015c 00F02381 		beq	.L126
 651              		.loc 1 530 5 discriminator 5 view .LVU204
 652 0160 052B     		cmp	r3, #5
 653 0162 5B4B     		ldr	r3, .L131
 654 0164 1A6A     		ldr	r2, [r3, #32]
 655 0166 00F0B681 		beq	.L127
 656              		.loc 1 530 5 discriminator 8 view .LVU205
 657 016a 22F00102 		bic	r2, r2, #1
 658 016e 1A62     		str	r2, [r3, #32]
 659              		.loc 1 530 5 discriminator 8 view .LVU206
 660 0170 1A6A     		ldr	r2, [r3, #32]
 661 0172 22F00402 		bic	r2, r2, #4
 662 0176 1A62     		str	r2, [r3, #32]
 663 0178 6CE1     		b	.L58
 664              	.LVL43:
 665              	.L123:
 666              		.loc 1 530 5 is_stmt 0 discriminator 8 view .LVU207
 667              	.LBE200:
 458:Drivers/STM32F3xx_HAL_Driver/Src/stm32f3xx_hal_rcc.c ****     
 668              		.loc 1 458 5 is_stmt 1 view .LVU208
ARM GAS  /var/folders/b1/22c950295gx2kqj80tvj8wqc0000gn/T//ccykJ5HB.s 			page 41


 461:Drivers/STM32F3xx_HAL_Driver/Src/stm32f3xx_hal_rcc.c ****     {
 669              		.loc 1 461 5 view .LVU209
 461:Drivers/STM32F3xx_HAL_Driver/Src/stm32f3xx_hal_rcc.c ****     {
 670              		.loc 1 461 7 is_stmt 0 view .LVU210
 671 017a A269     		ldr	r2, [r4, #24]
 672 017c 002A     		cmp	r2, #0
 673 017e 76D0     		beq	.L44
 464:Drivers/STM32F3xx_HAL_Driver/Src/stm32f3xx_hal_rcc.c ****       
 674              		.loc 1 464 7 is_stmt 1 view .LVU211
 675              	.LVL44:
 676              	.LBB222:
 677              	.LBI222:
 981:Drivers/CMSIS/Include/cmsis_gcc.h **** {
 678              		.loc 2 981 31 view .LVU212
 679              	.LBB223:
 983:Drivers/CMSIS/Include/cmsis_gcc.h **** 
 680              		.loc 2 983 3 view .LVU213
 988:Drivers/CMSIS/Include/cmsis_gcc.h **** #else
 681              		.loc 2 988 4 view .LVU214
 682 0180 0126     		movs	r6, #1
 683              		.syntax unified
 684              	@ 988 "Drivers/CMSIS/Include/cmsis_gcc.h" 1
 685 0182 96FAA6F2 		rbit r2, r6
 686              	@ 0 "" 2
 687              	.LVL45:
 688              		.loc 2 1001 3 view .LVU215
 689              		.loc 2 1001 3 is_stmt 0 view .LVU216
 690              		.thumb
 691              		.syntax unified
 692              	.LBE223:
 693              	.LBE222:
 464:Drivers/STM32F3xx_HAL_Driver/Src/stm32f3xx_hal_rcc.c ****       
 694              		.loc 1 464 7 view .LVU217
 695 0186 544B     		ldr	r3, .L131+8
 470:Drivers/STM32F3xx_HAL_Driver/Src/stm32f3xx_hal_rcc.c ****       {
 696              		.loc 1 470 13 view .LVU218
 697 0188 DFF84481 		ldr	r8, .L131
 464:Drivers/STM32F3xx_HAL_Driver/Src/stm32f3xx_hal_rcc.c ****       
 698              		.loc 1 464 7 view .LVU219
 699 018c B2FA82F2 		clz	r2, r2
 700 0190 1344     		add	r3, r3, r2
 701 0192 9B00     		lsls	r3, r3, #2
 702              	.LBB224:
 703              	.LBB225:
 988:Drivers/CMSIS/Include/cmsis_gcc.h **** #else
 704              		.loc 2 988 4 view .LVU220
 705 0194 0225     		movs	r5, #2
 706              	.LBE225:
 707              	.LBE224:
 464:Drivers/STM32F3xx_HAL_Driver/Src/stm32f3xx_hal_rcc.c ****       
 708              		.loc 1 464 7 view .LVU221
 709 0196 1E60     		str	r6, [r3]
 467:Drivers/STM32F3xx_HAL_Driver/Src/stm32f3xx_hal_rcc.c ****       
 710              		.loc 1 467 7 is_stmt 1 view .LVU222
 467:Drivers/STM32F3xx_HAL_Driver/Src/stm32f3xx_hal_rcc.c ****       
 711              		.loc 1 467 19 is_stmt 0 view .LVU223
 712 0198 FFF7FEFF 		bl	HAL_GetTick
ARM GAS  /var/folders/b1/22c950295gx2kqj80tvj8wqc0000gn/T//ccykJ5HB.s 			page 42


 713              	.LVL46:
 714 019c 0746     		mov	r7, r0
 715              	.LVL47:
 470:Drivers/STM32F3xx_HAL_Driver/Src/stm32f3xx_hal_rcc.c ****       {
 716              		.loc 1 470 7 is_stmt 1 view .LVU224
 470:Drivers/STM32F3xx_HAL_Driver/Src/stm32f3xx_hal_rcc.c ****       {
 717              		.loc 1 470 12 is_stmt 0 view .LVU225
 718 019e 05E0     		b	.L45
 719              	.LVL48:
 720              	.L46:
 472:Drivers/STM32F3xx_HAL_Driver/Src/stm32f3xx_hal_rcc.c ****         {
 721              		.loc 1 472 13 view .LVU226
 722 01a0 FFF7FEFF 		bl	HAL_GetTick
 723              	.LVL49:
 472:Drivers/STM32F3xx_HAL_Driver/Src/stm32f3xx_hal_rcc.c ****         {
 724              		.loc 1 472 27 view .LVU227
 725 01a4 C01B     		subs	r0, r0, r7
 472:Drivers/STM32F3xx_HAL_Driver/Src/stm32f3xx_hal_rcc.c ****         {
 726              		.loc 1 472 11 view .LVU228
 727 01a6 0228     		cmp	r0, #2
 728 01a8 00F2D280 		bhi	.L32
 729              	.L45:
 470:Drivers/STM32F3xx_HAL_Driver/Src/stm32f3xx_hal_rcc.c ****       {
 730              		.loc 1 470 49 is_stmt 1 view .LVU229
 731              	.LVL50:
 732              	.LBB227:
 733              	.LBI224:
 981:Drivers/CMSIS/Include/cmsis_gcc.h **** {
 734              		.loc 2 981 31 view .LVU230
 735              	.LBB226:
 983:Drivers/CMSIS/Include/cmsis_gcc.h **** 
 736              		.loc 2 983 3 view .LVU231
 988:Drivers/CMSIS/Include/cmsis_gcc.h **** #else
 737              		.loc 2 988 4 view .LVU232
 738              		.syntax unified
 739              	@ 988 "Drivers/CMSIS/Include/cmsis_gcc.h" 1
 740 01ac 95FAA5F3 		rbit r3, r5
 741              	@ 0 "" 2
 742              	.LVL51:
 743              		.loc 2 1001 3 view .LVU233
 744              		.loc 2 1001 3 is_stmt 0 view .LVU234
 745              		.thumb
 746              		.syntax unified
 747              	.LBE226:
 748              	.LBE227:
 749              	.LBB228:
 750              	.LBI228:
 981:Drivers/CMSIS/Include/cmsis_gcc.h **** {
 751              		.loc 2 981 31 is_stmt 1 view .LVU235
 752              	.LBB229:
 983:Drivers/CMSIS/Include/cmsis_gcc.h **** 
 753              		.loc 2 983 3 view .LVU236
 988:Drivers/CMSIS/Include/cmsis_gcc.h **** #else
 754              		.loc 2 988 4 view .LVU237
 755              		.syntax unified
 756              	@ 988 "Drivers/CMSIS/Include/cmsis_gcc.h" 1
 757 01b0 95FAA5F3 		rbit r3, r5
ARM GAS  /var/folders/b1/22c950295gx2kqj80tvj8wqc0000gn/T//ccykJ5HB.s 			page 43


 758              	@ 0 "" 2
 759              	.LVL52:
 760              		.loc 2 1001 3 view .LVU238
 761              		.loc 2 1001 3 is_stmt 0 view .LVU239
 762              		.thumb
 763              		.syntax unified
 764              	.LBE229:
 765              	.LBE228:
 766              	.LBB230:
 767              	.LBI230:
 981:Drivers/CMSIS/Include/cmsis_gcc.h **** {
 768              		.loc 2 981 31 is_stmt 1 view .LVU240
 769              	.LBB231:
 983:Drivers/CMSIS/Include/cmsis_gcc.h **** 
 770              		.loc 2 983 3 view .LVU241
 988:Drivers/CMSIS/Include/cmsis_gcc.h **** #else
 771              		.loc 2 988 4 view .LVU242
 772              		.syntax unified
 773              	@ 988 "Drivers/CMSIS/Include/cmsis_gcc.h" 1
 774 01b4 95FAA5F3 		rbit r3, r5
 775              	@ 0 "" 2
 776              	.LVL53:
 777              		.loc 2 1001 3 view .LVU243
 778              		.loc 2 1001 3 is_stmt 0 view .LVU244
 779              		.thumb
 780              		.syntax unified
 781              	.LBE231:
 782              	.LBE230:
 470:Drivers/STM32F3xx_HAL_Driver/Src/stm32f3xx_hal_rcc.c ****       {
 783              		.loc 1 470 13 view .LVU245
 784 01b8 D8F82420 		ldr	r2, [r8, #36]
 785              	.LVL54:
 786              	.LBB232:
 787              	.LBI232:
 981:Drivers/CMSIS/Include/cmsis_gcc.h **** {
 788              		.loc 2 981 31 is_stmt 1 view .LVU246
 789              	.LBB233:
 983:Drivers/CMSIS/Include/cmsis_gcc.h **** 
 790              		.loc 2 983 3 view .LVU247
 988:Drivers/CMSIS/Include/cmsis_gcc.h **** #else
 791              		.loc 2 988 4 view .LVU248
 792              		.syntax unified
 793              	@ 988 "Drivers/CMSIS/Include/cmsis_gcc.h" 1
 794 01bc 95FAA5F3 		rbit r3, r5
 795              	@ 0 "" 2
 796              		.thumb
 797              		.syntax unified
 798              	.LBE233:
 799              	.LBE232:
 472:Drivers/STM32F3xx_HAL_Driver/Src/stm32f3xx_hal_rcc.c ****         {
 800              		.loc 1 472 9 view .LVU249
 801              	.LVL55:
 802              	.LBB235:
 803              	.LBB234:
 804              		.loc 2 1001 3 view .LVU250
 805              		.loc 2 1001 3 is_stmt 0 view .LVU251
 806              	.LBE234:
ARM GAS  /var/folders/b1/22c950295gx2kqj80tvj8wqc0000gn/T//ccykJ5HB.s 			page 44


 807              	.LBE235:
 470:Drivers/STM32F3xx_HAL_Driver/Src/stm32f3xx_hal_rcc.c ****       {
 808              		.loc 1 470 13 view .LVU252
 809 01c0 B3FA83F3 		clz	r3, r3
 810 01c4 06FA03F3 		lsl	r3, r6, r3
 470:Drivers/STM32F3xx_HAL_Driver/Src/stm32f3xx_hal_rcc.c ****       {
 811              		.loc 1 470 49 view .LVU253
 812 01c8 1342     		tst	r3, r2
 813 01ca E9D0     		beq	.L46
 814              	.LVL56:
 815              	.L116:
 497:Drivers/STM32F3xx_HAL_Driver/Src/stm32f3xx_hal_rcc.c ****   {
 816              		.loc 1 497 25 view .LVU254
 817 01cc 2368     		ldr	r3, [r4]
 497:Drivers/STM32F3xx_HAL_Driver/Src/stm32f3xx_hal_rcc.c ****   {
 818              		.loc 1 497 3 is_stmt 1 view .LVU255
 497:Drivers/STM32F3xx_HAL_Driver/Src/stm32f3xx_hal_rcc.c ****   {
 819              		.loc 1 497 5 is_stmt 0 view .LVU256
 820 01ce 5807     		lsls	r0, r3, #29
 821 01d0 B4D4     		bmi	.L128
 822              	.L50:
 531:Drivers/STM32F3xx_HAL_Driver/Src/stm32f3xx_hal_rcc.c ****     /* Check the LSE State */
 532:Drivers/STM32F3xx_HAL_Driver/Src/stm32f3xx_hal_rcc.c ****     if(RCC_OscInitStruct->LSEState != RCC_LSE_OFF)
 533:Drivers/STM32F3xx_HAL_Driver/Src/stm32f3xx_hal_rcc.c ****     {
 534:Drivers/STM32F3xx_HAL_Driver/Src/stm32f3xx_hal_rcc.c ****       /* Get Start Tick */
 535:Drivers/STM32F3xx_HAL_Driver/Src/stm32f3xx_hal_rcc.c ****       tickstart = HAL_GetTick();
 536:Drivers/STM32F3xx_HAL_Driver/Src/stm32f3xx_hal_rcc.c ****       
 537:Drivers/STM32F3xx_HAL_Driver/Src/stm32f3xx_hal_rcc.c ****       /* Wait till LSE is ready */  
 538:Drivers/STM32F3xx_HAL_Driver/Src/stm32f3xx_hal_rcc.c ****       while(__HAL_RCC_GET_FLAG(RCC_FLAG_LSERDY) == RESET)
 539:Drivers/STM32F3xx_HAL_Driver/Src/stm32f3xx_hal_rcc.c ****       {
 540:Drivers/STM32F3xx_HAL_Driver/Src/stm32f3xx_hal_rcc.c ****         if((HAL_GetTick() - tickstart ) > RCC_LSE_TIMEOUT_VALUE)
 541:Drivers/STM32F3xx_HAL_Driver/Src/stm32f3xx_hal_rcc.c ****         {
 542:Drivers/STM32F3xx_HAL_Driver/Src/stm32f3xx_hal_rcc.c ****           return HAL_TIMEOUT;
 543:Drivers/STM32F3xx_HAL_Driver/Src/stm32f3xx_hal_rcc.c ****         }
 544:Drivers/STM32F3xx_HAL_Driver/Src/stm32f3xx_hal_rcc.c ****       }
 545:Drivers/STM32F3xx_HAL_Driver/Src/stm32f3xx_hal_rcc.c ****     }
 546:Drivers/STM32F3xx_HAL_Driver/Src/stm32f3xx_hal_rcc.c ****     else
 547:Drivers/STM32F3xx_HAL_Driver/Src/stm32f3xx_hal_rcc.c ****     {
 548:Drivers/STM32F3xx_HAL_Driver/Src/stm32f3xx_hal_rcc.c ****       /* Get Start Tick */
 549:Drivers/STM32F3xx_HAL_Driver/Src/stm32f3xx_hal_rcc.c ****       tickstart = HAL_GetTick();
 550:Drivers/STM32F3xx_HAL_Driver/Src/stm32f3xx_hal_rcc.c ****       
 551:Drivers/STM32F3xx_HAL_Driver/Src/stm32f3xx_hal_rcc.c ****       /* Wait till LSE is disabled */  
 552:Drivers/STM32F3xx_HAL_Driver/Src/stm32f3xx_hal_rcc.c ****       while(__HAL_RCC_GET_FLAG(RCC_FLAG_LSERDY) != RESET)
 553:Drivers/STM32F3xx_HAL_Driver/Src/stm32f3xx_hal_rcc.c ****       {
 554:Drivers/STM32F3xx_HAL_Driver/Src/stm32f3xx_hal_rcc.c ****         if((HAL_GetTick() - tickstart ) > RCC_LSE_TIMEOUT_VALUE)
 555:Drivers/STM32F3xx_HAL_Driver/Src/stm32f3xx_hal_rcc.c ****         {
 556:Drivers/STM32F3xx_HAL_Driver/Src/stm32f3xx_hal_rcc.c ****           return HAL_TIMEOUT;
 557:Drivers/STM32F3xx_HAL_Driver/Src/stm32f3xx_hal_rcc.c ****         }
 558:Drivers/STM32F3xx_HAL_Driver/Src/stm32f3xx_hal_rcc.c ****       }
 559:Drivers/STM32F3xx_HAL_Driver/Src/stm32f3xx_hal_rcc.c ****     }
 560:Drivers/STM32F3xx_HAL_Driver/Src/stm32f3xx_hal_rcc.c **** 
 561:Drivers/STM32F3xx_HAL_Driver/Src/stm32f3xx_hal_rcc.c ****     /* Require to disable power clock if necessary */
 562:Drivers/STM32F3xx_HAL_Driver/Src/stm32f3xx_hal_rcc.c ****     if(pwrclkchanged == SET)
 563:Drivers/STM32F3xx_HAL_Driver/Src/stm32f3xx_hal_rcc.c ****     {
 564:Drivers/STM32F3xx_HAL_Driver/Src/stm32f3xx_hal_rcc.c ****       __HAL_RCC_PWR_CLK_DISABLE();
 565:Drivers/STM32F3xx_HAL_Driver/Src/stm32f3xx_hal_rcc.c ****     }
 566:Drivers/STM32F3xx_HAL_Driver/Src/stm32f3xx_hal_rcc.c ****   }
ARM GAS  /var/folders/b1/22c950295gx2kqj80tvj8wqc0000gn/T//ccykJ5HB.s 			page 45


 567:Drivers/STM32F3xx_HAL_Driver/Src/stm32f3xx_hal_rcc.c **** 
 568:Drivers/STM32F3xx_HAL_Driver/Src/stm32f3xx_hal_rcc.c ****   /*-------------------------------- PLL Configuration -----------------------*/
 569:Drivers/STM32F3xx_HAL_Driver/Src/stm32f3xx_hal_rcc.c ****   /* Check the parameters */
 570:Drivers/STM32F3xx_HAL_Driver/Src/stm32f3xx_hal_rcc.c ****   assert_param(IS_RCC_PLL(RCC_OscInitStruct->PLL.PLLState));
 823              		.loc 1 570 3 is_stmt 1 view .LVU257
 571:Drivers/STM32F3xx_HAL_Driver/Src/stm32f3xx_hal_rcc.c ****   if ((RCC_OscInitStruct->PLL.PLLState) != RCC_PLL_NONE)
 824              		.loc 1 571 3 view .LVU258
 825              		.loc 1 571 30 is_stmt 0 view .LVU259
 826 01d2 E069     		ldr	r0, [r4, #28]
 827              		.loc 1 571 6 view .LVU260
 828 01d4 70B3     		cbz	r0, .L76
 572:Drivers/STM32F3xx_HAL_Driver/Src/stm32f3xx_hal_rcc.c ****   {
 573:Drivers/STM32F3xx_HAL_Driver/Src/stm32f3xx_hal_rcc.c ****     /* Check if the PLL is used as system clock or not */
 574:Drivers/STM32F3xx_HAL_Driver/Src/stm32f3xx_hal_rcc.c ****     if(__HAL_RCC_GET_SYSCLK_SOURCE() != RCC_SYSCLKSOURCE_STATUS_PLLCLK)
 829              		.loc 1 574 5 is_stmt 1 view .LVU261
 830              		.loc 1 574 8 is_stmt 0 view .LVU262
 831 01d6 3E4D     		ldr	r5, .L131
 832 01d8 6B68     		ldr	r3, [r5, #4]
 833 01da 03F00C03 		and	r3, r3, #12
 834              		.loc 1 574 7 view .LVU263
 835 01de 082B     		cmp	r3, #8
 836 01e0 00F05B81 		beq	.L70
 575:Drivers/STM32F3xx_HAL_Driver/Src/stm32f3xx_hal_rcc.c ****     { 
 576:Drivers/STM32F3xx_HAL_Driver/Src/stm32f3xx_hal_rcc.c ****       if((RCC_OscInitStruct->PLL.PLLState) == RCC_PLL_ON)
 837              		.loc 1 576 7 is_stmt 1 view .LVU264
 838              		.loc 1 576 9 is_stmt 0 view .LVU265
 839 01e4 0228     		cmp	r0, #2
 840              	.LBB236:
 841              	.LBB237:
 988:Drivers/CMSIS/Include/cmsis_gcc.h **** #else
 842              		.loc 2 988 4 view .LVU266
 843 01e6 4FF08073 		mov	r3, #16777216
 844              	.LBE237:
 845              	.LBE236:
 846              		.loc 1 576 9 view .LVU267
 847 01ea 00F07E81 		beq	.L129
 577:Drivers/STM32F3xx_HAL_Driver/Src/stm32f3xx_hal_rcc.c ****       {
 578:Drivers/STM32F3xx_HAL_Driver/Src/stm32f3xx_hal_rcc.c ****         /* Check the parameters */
 579:Drivers/STM32F3xx_HAL_Driver/Src/stm32f3xx_hal_rcc.c ****         assert_param(IS_RCC_PLLSOURCE(RCC_OscInitStruct->PLL.PLLSource));
 580:Drivers/STM32F3xx_HAL_Driver/Src/stm32f3xx_hal_rcc.c ****         assert_param(IS_RCC_PLL_MUL(RCC_OscInitStruct->PLL.PLLMUL));
 581:Drivers/STM32F3xx_HAL_Driver/Src/stm32f3xx_hal_rcc.c **** #if   defined(RCC_CFGR_PLLSRC_HSI_PREDIV)
 582:Drivers/STM32F3xx_HAL_Driver/Src/stm32f3xx_hal_rcc.c ****         assert_param(IS_RCC_PREDIV(RCC_OscInitStruct->PLL.PREDIV));
 583:Drivers/STM32F3xx_HAL_Driver/Src/stm32f3xx_hal_rcc.c **** #endif
 584:Drivers/STM32F3xx_HAL_Driver/Src/stm32f3xx_hal_rcc.c ****   
 585:Drivers/STM32F3xx_HAL_Driver/Src/stm32f3xx_hal_rcc.c ****         /* Disable the main PLL. */
 586:Drivers/STM32F3xx_HAL_Driver/Src/stm32f3xx_hal_rcc.c ****         __HAL_RCC_PLL_DISABLE();
 587:Drivers/STM32F3xx_HAL_Driver/Src/stm32f3xx_hal_rcc.c ****         
 588:Drivers/STM32F3xx_HAL_Driver/Src/stm32f3xx_hal_rcc.c ****         /* Get Start Tick */
 589:Drivers/STM32F3xx_HAL_Driver/Src/stm32f3xx_hal_rcc.c ****         tickstart = HAL_GetTick();
 590:Drivers/STM32F3xx_HAL_Driver/Src/stm32f3xx_hal_rcc.c ****         
 591:Drivers/STM32F3xx_HAL_Driver/Src/stm32f3xx_hal_rcc.c ****         /* Wait till PLL is disabled */
 592:Drivers/STM32F3xx_HAL_Driver/Src/stm32f3xx_hal_rcc.c ****         while(__HAL_RCC_GET_FLAG(RCC_FLAG_PLLRDY)  != RESET)
 593:Drivers/STM32F3xx_HAL_Driver/Src/stm32f3xx_hal_rcc.c ****         {
 594:Drivers/STM32F3xx_HAL_Driver/Src/stm32f3xx_hal_rcc.c ****           if((HAL_GetTick() - tickstart ) > PLL_TIMEOUT_VALUE)
 595:Drivers/STM32F3xx_HAL_Driver/Src/stm32f3xx_hal_rcc.c ****           {
 596:Drivers/STM32F3xx_HAL_Driver/Src/stm32f3xx_hal_rcc.c ****             return HAL_TIMEOUT;
 597:Drivers/STM32F3xx_HAL_Driver/Src/stm32f3xx_hal_rcc.c ****           }
ARM GAS  /var/folders/b1/22c950295gx2kqj80tvj8wqc0000gn/T//ccykJ5HB.s 			page 46


 598:Drivers/STM32F3xx_HAL_Driver/Src/stm32f3xx_hal_rcc.c ****         }
 599:Drivers/STM32F3xx_HAL_Driver/Src/stm32f3xx_hal_rcc.c **** 
 600:Drivers/STM32F3xx_HAL_Driver/Src/stm32f3xx_hal_rcc.c **** #if defined(RCC_CFGR_PLLSRC_HSI_PREDIV)
 601:Drivers/STM32F3xx_HAL_Driver/Src/stm32f3xx_hal_rcc.c ****         /* Configure the main PLL clock source, predivider and multiplication factor. */
 602:Drivers/STM32F3xx_HAL_Driver/Src/stm32f3xx_hal_rcc.c ****         __HAL_RCC_PLL_CONFIG(RCC_OscInitStruct->PLL.PLLSource,
 603:Drivers/STM32F3xx_HAL_Driver/Src/stm32f3xx_hal_rcc.c ****                              RCC_OscInitStruct->PLL.PREDIV,
 604:Drivers/STM32F3xx_HAL_Driver/Src/stm32f3xx_hal_rcc.c ****                              RCC_OscInitStruct->PLL.PLLMUL);
 605:Drivers/STM32F3xx_HAL_Driver/Src/stm32f3xx_hal_rcc.c **** #else
 606:Drivers/STM32F3xx_HAL_Driver/Src/stm32f3xx_hal_rcc.c ****       /* Configure the main PLL clock source and multiplication factor. */
 607:Drivers/STM32F3xx_HAL_Driver/Src/stm32f3xx_hal_rcc.c ****       __HAL_RCC_PLL_CONFIG(RCC_OscInitStruct->PLL.PLLSource,
 608:Drivers/STM32F3xx_HAL_Driver/Src/stm32f3xx_hal_rcc.c ****                            RCC_OscInitStruct->PLL.PLLMUL);
 609:Drivers/STM32F3xx_HAL_Driver/Src/stm32f3xx_hal_rcc.c **** #endif /* RCC_CFGR_PLLSRC_HSI_PREDIV */
 610:Drivers/STM32F3xx_HAL_Driver/Src/stm32f3xx_hal_rcc.c ****         /* Enable the main PLL. */
 611:Drivers/STM32F3xx_HAL_Driver/Src/stm32f3xx_hal_rcc.c ****         __HAL_RCC_PLL_ENABLE();
 612:Drivers/STM32F3xx_HAL_Driver/Src/stm32f3xx_hal_rcc.c ****         
 613:Drivers/STM32F3xx_HAL_Driver/Src/stm32f3xx_hal_rcc.c ****         /* Get Start Tick */
 614:Drivers/STM32F3xx_HAL_Driver/Src/stm32f3xx_hal_rcc.c ****         tickstart = HAL_GetTick();
 615:Drivers/STM32F3xx_HAL_Driver/Src/stm32f3xx_hal_rcc.c ****         
 616:Drivers/STM32F3xx_HAL_Driver/Src/stm32f3xx_hal_rcc.c ****         /* Wait till PLL is ready */
 617:Drivers/STM32F3xx_HAL_Driver/Src/stm32f3xx_hal_rcc.c ****         while(__HAL_RCC_GET_FLAG(RCC_FLAG_PLLRDY)  == RESET)
 618:Drivers/STM32F3xx_HAL_Driver/Src/stm32f3xx_hal_rcc.c ****         {
 619:Drivers/STM32F3xx_HAL_Driver/Src/stm32f3xx_hal_rcc.c ****           if((HAL_GetTick() - tickstart ) > PLL_TIMEOUT_VALUE)
 620:Drivers/STM32F3xx_HAL_Driver/Src/stm32f3xx_hal_rcc.c ****           {
 621:Drivers/STM32F3xx_HAL_Driver/Src/stm32f3xx_hal_rcc.c ****             return HAL_TIMEOUT;
 622:Drivers/STM32F3xx_HAL_Driver/Src/stm32f3xx_hal_rcc.c ****           }
 623:Drivers/STM32F3xx_HAL_Driver/Src/stm32f3xx_hal_rcc.c ****         }
 624:Drivers/STM32F3xx_HAL_Driver/Src/stm32f3xx_hal_rcc.c ****       }
 625:Drivers/STM32F3xx_HAL_Driver/Src/stm32f3xx_hal_rcc.c ****       else
 626:Drivers/STM32F3xx_HAL_Driver/Src/stm32f3xx_hal_rcc.c ****       {
 627:Drivers/STM32F3xx_HAL_Driver/Src/stm32f3xx_hal_rcc.c ****         /* Disable the main PLL. */
 628:Drivers/STM32F3xx_HAL_Driver/Src/stm32f3xx_hal_rcc.c ****         __HAL_RCC_PLL_DISABLE();
 848              		.loc 1 628 9 is_stmt 1 view .LVU268
 849              	.LVL57:
 850              	.LBB239:
 851              	.LBI239:
 981:Drivers/CMSIS/Include/cmsis_gcc.h **** {
 852              		.loc 2 981 31 view .LVU269
 853              	.LBB240:
 983:Drivers/CMSIS/Include/cmsis_gcc.h **** 
 854              		.loc 2 983 3 view .LVU270
 988:Drivers/CMSIS/Include/cmsis_gcc.h **** #else
 855              		.loc 2 988 4 view .LVU271
 856              		.syntax unified
 857              	@ 988 "Drivers/CMSIS/Include/cmsis_gcc.h" 1
 858 01ee 93FAA3F3 		rbit r3, r3
 859              	@ 0 "" 2
 860              	.LVL58:
 861              		.loc 2 1001 3 view .LVU272
 862              		.loc 2 1001 3 is_stmt 0 view .LVU273
 863              		.thumb
 864              		.syntax unified
 865              	.LBE240:
 866              	.LBE239:
 867              		.loc 1 628 9 view .LVU274
 868 01f2 B3FA83F3 		clz	r3, r3
 869 01f6 03F18453 		add	r3, r3, #276824064
 870 01fa 03F58413 		add	r3, r3, #1081344
ARM GAS  /var/folders/b1/22c950295gx2kqj80tvj8wqc0000gn/T//ccykJ5HB.s 			page 47


 871 01fe 9B00     		lsls	r3, r3, #2
 872 0200 0022     		movs	r2, #0
 873 0202 1A60     		str	r2, [r3]
 629:Drivers/STM32F3xx_HAL_Driver/Src/stm32f3xx_hal_rcc.c ****  
 630:Drivers/STM32F3xx_HAL_Driver/Src/stm32f3xx_hal_rcc.c ****         /* Get Start Tick */
 631:Drivers/STM32F3xx_HAL_Driver/Src/stm32f3xx_hal_rcc.c ****         tickstart = HAL_GetTick();
 874              		.loc 1 631 9 is_stmt 1 view .LVU275
 875              		.loc 1 631 21 is_stmt 0 view .LVU276
 876 0204 FFF7FEFF 		bl	HAL_GetTick
 877              	.LVL59:
 878              	.LBB241:
 879              	.LBB242:
 988:Drivers/CMSIS/Include/cmsis_gcc.h **** #else
 880              		.loc 2 988 4 view .LVU277
 881 0208 4FF00077 		mov	r7, #33554432
 882              	.LBE242:
 883              	.LBE241:
 884              		.loc 1 631 21 view .LVU278
 885 020c 0446     		mov	r4, r0
 886              	.LVL60:
 632:Drivers/STM32F3xx_HAL_Driver/Src/stm32f3xx_hal_rcc.c ****         
 633:Drivers/STM32F3xx_HAL_Driver/Src/stm32f3xx_hal_rcc.c ****         /* Wait till PLL is disabled */  
 634:Drivers/STM32F3xx_HAL_Driver/Src/stm32f3xx_hal_rcc.c ****         while(__HAL_RCC_GET_FLAG(RCC_FLAG_PLLRDY)  != RESET)
 887              		.loc 1 634 9 is_stmt 1 view .LVU279
 888              		.loc 1 634 15 is_stmt 0 view .LVU280
 889 020e 0126     		movs	r6, #1
 890              		.loc 1 634 14 view .LVU281
 891 0210 05E0     		b	.L77
 892              	.LVL61:
 893              	.L78:
 635:Drivers/STM32F3xx_HAL_Driver/Src/stm32f3xx_hal_rcc.c ****         {
 636:Drivers/STM32F3xx_HAL_Driver/Src/stm32f3xx_hal_rcc.c ****           if((HAL_GetTick() - tickstart ) > PLL_TIMEOUT_VALUE)
 894              		.loc 1 636 15 view .LVU282
 895 0212 FFF7FEFF 		bl	HAL_GetTick
 896              	.LVL62:
 897              		.loc 1 636 29 view .LVU283
 898 0216 001B     		subs	r0, r0, r4
 899              		.loc 1 636 13 view .LVU284
 900 0218 0228     		cmp	r0, #2
 901 021a 00F29980 		bhi	.L32
 902              	.L77:
 634:Drivers/STM32F3xx_HAL_Driver/Src/stm32f3xx_hal_rcc.c ****         {
 903              		.loc 1 634 52 is_stmt 1 view .LVU285
 904              	.LVL63:
 905              	.LBB244:
 906              	.LBI241:
 981:Drivers/CMSIS/Include/cmsis_gcc.h **** {
 907              		.loc 2 981 31 view .LVU286
 908              	.LBB243:
 983:Drivers/CMSIS/Include/cmsis_gcc.h **** 
 909              		.loc 2 983 3 view .LVU287
 988:Drivers/CMSIS/Include/cmsis_gcc.h **** #else
 910              		.loc 2 988 4 view .LVU288
 911              		.syntax unified
 912              	@ 988 "Drivers/CMSIS/Include/cmsis_gcc.h" 1
 913 021e 97FAA7F3 		rbit r3, r7
 914              	@ 0 "" 2
ARM GAS  /var/folders/b1/22c950295gx2kqj80tvj8wqc0000gn/T//ccykJ5HB.s 			page 48


 915              	.LVL64:
 916              		.loc 2 1001 3 view .LVU289
 917              		.loc 2 1001 3 is_stmt 0 view .LVU290
 918              		.thumb
 919              		.syntax unified
 920              	.LBE243:
 921              	.LBE244:
 634:Drivers/STM32F3xx_HAL_Driver/Src/stm32f3xx_hal_rcc.c ****         {
 922              		.loc 1 634 15 view .LVU291
 923 0222 2A68     		ldr	r2, [r5]
 924              	.LVL65:
 925              	.LBB245:
 926              	.LBI245:
 981:Drivers/CMSIS/Include/cmsis_gcc.h **** {
 927              		.loc 2 981 31 is_stmt 1 view .LVU292
 928              	.LBB246:
 983:Drivers/CMSIS/Include/cmsis_gcc.h **** 
 929              		.loc 2 983 3 view .LVU293
 988:Drivers/CMSIS/Include/cmsis_gcc.h **** #else
 930              		.loc 2 988 4 view .LVU294
 931              		.syntax unified
 932              	@ 988 "Drivers/CMSIS/Include/cmsis_gcc.h" 1
 933 0224 97FAA7F3 		rbit r3, r7
 934              	@ 0 "" 2
 935              		.thumb
 936              		.syntax unified
 937              	.LBE246:
 938              	.LBE245:
 939              		.loc 1 636 11 view .LVU295
 940              	.LVL66:
 941              	.LBB248:
 942              	.LBB247:
 943              		.loc 2 1001 3 view .LVU296
 944              		.loc 2 1001 3 is_stmt 0 view .LVU297
 945              	.LBE247:
 946              	.LBE248:
 634:Drivers/STM32F3xx_HAL_Driver/Src/stm32f3xx_hal_rcc.c ****         {
 947              		.loc 1 634 15 view .LVU298
 948 0228 B3FA83F3 		clz	r3, r3
 949 022c 06FA03F3 		lsl	r3, r6, r3
 634:Drivers/STM32F3xx_HAL_Driver/Src/stm32f3xx_hal_rcc.c ****         {
 950              		.loc 1 634 52 view .LVU299
 951 0230 1342     		tst	r3, r2
 952 0232 EED1     		bne	.L78
 953              	.LVL67:
 954              	.L76:
 637:Drivers/STM32F3xx_HAL_Driver/Src/stm32f3xx_hal_rcc.c ****           {
 638:Drivers/STM32F3xx_HAL_Driver/Src/stm32f3xx_hal_rcc.c ****             return HAL_TIMEOUT;
 639:Drivers/STM32F3xx_HAL_Driver/Src/stm32f3xx_hal_rcc.c ****           }
 640:Drivers/STM32F3xx_HAL_Driver/Src/stm32f3xx_hal_rcc.c ****         }
 641:Drivers/STM32F3xx_HAL_Driver/Src/stm32f3xx_hal_rcc.c ****       }
 642:Drivers/STM32F3xx_HAL_Driver/Src/stm32f3xx_hal_rcc.c ****     }
 643:Drivers/STM32F3xx_HAL_Driver/Src/stm32f3xx_hal_rcc.c ****     else
 644:Drivers/STM32F3xx_HAL_Driver/Src/stm32f3xx_hal_rcc.c ****     {
 645:Drivers/STM32F3xx_HAL_Driver/Src/stm32f3xx_hal_rcc.c ****       /* Check if there is a request to disable the PLL used as System clock source */
 646:Drivers/STM32F3xx_HAL_Driver/Src/stm32f3xx_hal_rcc.c ****       if((RCC_OscInitStruct->PLL.PLLState) == RCC_PLL_OFF)
 647:Drivers/STM32F3xx_HAL_Driver/Src/stm32f3xx_hal_rcc.c ****       {
ARM GAS  /var/folders/b1/22c950295gx2kqj80tvj8wqc0000gn/T//ccykJ5HB.s 			page 49


 648:Drivers/STM32F3xx_HAL_Driver/Src/stm32f3xx_hal_rcc.c ****         return HAL_ERROR;
 649:Drivers/STM32F3xx_HAL_Driver/Src/stm32f3xx_hal_rcc.c ****       }
 650:Drivers/STM32F3xx_HAL_Driver/Src/stm32f3xx_hal_rcc.c ****       else
 651:Drivers/STM32F3xx_HAL_Driver/Src/stm32f3xx_hal_rcc.c ****       {
 652:Drivers/STM32F3xx_HAL_Driver/Src/stm32f3xx_hal_rcc.c ****         /* Do not return HAL_ERROR if request repeats the current configuration */
 653:Drivers/STM32F3xx_HAL_Driver/Src/stm32f3xx_hal_rcc.c ****         pll_config = RCC->CFGR;
 654:Drivers/STM32F3xx_HAL_Driver/Src/stm32f3xx_hal_rcc.c **** #if defined(RCC_CFGR_PLLSRC_HSI_PREDIV)
 655:Drivers/STM32F3xx_HAL_Driver/Src/stm32f3xx_hal_rcc.c ****         pll_config2 = RCC->CFGR2;
 656:Drivers/STM32F3xx_HAL_Driver/Src/stm32f3xx_hal_rcc.c ****         if((READ_BIT(pll_config, RCC_CFGR_PLLSRC)   != RCC_OscInitStruct->PLL.PLLSource) ||      
 657:Drivers/STM32F3xx_HAL_Driver/Src/stm32f3xx_hal_rcc.c ****            (READ_BIT(pll_config, RCC_CFGR_PLLMUL)   != RCC_OscInitStruct->PLL.PLLMUL)    ||      
 658:Drivers/STM32F3xx_HAL_Driver/Src/stm32f3xx_hal_rcc.c ****            (READ_BIT(pll_config2, RCC_CFGR2_PREDIV)  != RCC_OscInitStruct->PLL.PREDIV))     
 659:Drivers/STM32F3xx_HAL_Driver/Src/stm32f3xx_hal_rcc.c **** #else
 660:Drivers/STM32F3xx_HAL_Driver/Src/stm32f3xx_hal_rcc.c ****         if((READ_BIT(pll_config, RCC_CFGR_PLLSRC)   != RCC_OscInitStruct->PLL.PLLSource) ||      
 661:Drivers/STM32F3xx_HAL_Driver/Src/stm32f3xx_hal_rcc.c ****            (READ_BIT(pll_config, RCC_CFGR_PLLMUL)   != RCC_OscInitStruct->PLL.PLLMUL))
 662:Drivers/STM32F3xx_HAL_Driver/Src/stm32f3xx_hal_rcc.c **** #endif
 663:Drivers/STM32F3xx_HAL_Driver/Src/stm32f3xx_hal_rcc.c ****         {
 664:Drivers/STM32F3xx_HAL_Driver/Src/stm32f3xx_hal_rcc.c ****           return HAL_ERROR;
 665:Drivers/STM32F3xx_HAL_Driver/Src/stm32f3xx_hal_rcc.c ****         }
 666:Drivers/STM32F3xx_HAL_Driver/Src/stm32f3xx_hal_rcc.c ****       }
 667:Drivers/STM32F3xx_HAL_Driver/Src/stm32f3xx_hal_rcc.c ****     }
 668:Drivers/STM32F3xx_HAL_Driver/Src/stm32f3xx_hal_rcc.c ****   }
 669:Drivers/STM32F3xx_HAL_Driver/Src/stm32f3xx_hal_rcc.c **** 
 670:Drivers/STM32F3xx_HAL_Driver/Src/stm32f3xx_hal_rcc.c ****   return HAL_OK;
 955              		.loc 1 670 10 view .LVU300
 956 0234 0020     		movs	r0, #0
 957              	.L110:
 671:Drivers/STM32F3xx_HAL_Driver/Src/stm32f3xx_hal_rcc.c **** }
 958              		.loc 1 671 1 view .LVU301
 959 0236 03B0     		add	sp, sp, #12
 960              	.LCFI3:
 961              		.cfi_remember_state
 962              		.cfi_def_cfa_offset 28
 963              		@ sp needed
 964 0238 BDE8F083 		pop	{r4, r5, r6, r7, r8, r9, pc}
 965              	.LVL68:
 966              	.L122:
 967              	.LCFI4:
 968              		.cfi_restore_state
 398:Drivers/STM32F3xx_HAL_Driver/Src/stm32f3xx_hal_rcc.c ****     {
 969              		.loc 1 398 82 discriminator 1 view .LVU302
 970 023c 5268     		ldr	r2, [r2, #4]
 398:Drivers/STM32F3xx_HAL_Driver/Src/stm32f3xx_hal_rcc.c ****     {
 971              		.loc 1 398 78 discriminator 1 view .LVU303
 972 023e D603     		lsls	r6, r2, #15
 973 0240 3FF544AF 		bmi	.L36
 974              	.L35:
 401:Drivers/STM32F3xx_HAL_Driver/Src/stm32f3xx_hal_rcc.c ****       {
 975              		.loc 1 401 7 is_stmt 1 view .LVU304
 976              	.LVL69:
 977              	.LBB249:
 978              	.LBI249:
 981:Drivers/CMSIS/Include/cmsis_gcc.h **** {
 979              		.loc 2 981 31 view .LVU305
 980              	.LBB250:
 983:Drivers/CMSIS/Include/cmsis_gcc.h **** 
 981              		.loc 2 983 3 view .LVU306
 988:Drivers/CMSIS/Include/cmsis_gcc.h **** #else
ARM GAS  /var/folders/b1/22c950295gx2kqj80tvj8wqc0000gn/T//ccykJ5HB.s 			page 50


 982              		.loc 2 988 4 view .LVU307
 983 0244 0222     		movs	r2, #2
 984              		.syntax unified
 985              	@ 988 "Drivers/CMSIS/Include/cmsis_gcc.h" 1
 986 0246 92FAA2F1 		rbit r1, r2
 987              	@ 0 "" 2
 988              	.LVL70:
 989              		.loc 2 1001 3 view .LVU308
 990              		.loc 2 1001 3 is_stmt 0 view .LVU309
 991              		.thumb
 992              		.syntax unified
 993              	.LBE250:
 994              	.LBE249:
 401:Drivers/STM32F3xx_HAL_Driver/Src/stm32f3xx_hal_rcc.c ****       {
 995              		.loc 1 401 11 view .LVU310
 996 024a 2149     		ldr	r1, .L131
 997 024c 0868     		ldr	r0, [r1]
 998              	.LVL71:
 999              	.LBB251:
 1000              	.LBI251:
 981:Drivers/CMSIS/Include/cmsis_gcc.h **** {
 1001              		.loc 2 981 31 is_stmt 1 view .LVU311
 1002              	.LBB252:
 983:Drivers/CMSIS/Include/cmsis_gcc.h **** 
 1003              		.loc 2 983 3 view .LVU312
 988:Drivers/CMSIS/Include/cmsis_gcc.h **** #else
 1004              		.loc 2 988 4 view .LVU313
 1005              		.syntax unified
 1006              	@ 988 "Drivers/CMSIS/Include/cmsis_gcc.h" 1
 1007 024e 92FAA2F2 		rbit r2, r2
 1008              	@ 0 "" 2
 1009              	.LVL72:
 1010              		.loc 2 1001 3 view .LVU314
 1011              		.loc 2 1001 3 is_stmt 0 view .LVU315
 1012              		.thumb
 1013              		.syntax unified
 1014              	.LBE252:
 1015              	.LBE251:
 401:Drivers/STM32F3xx_HAL_Driver/Src/stm32f3xx_hal_rcc.c ****       {
 1016              		.loc 1 401 11 view .LVU316
 1017 0252 0121     		movs	r1, #1
 1018 0254 B2FA82F2 		clz	r2, r2
 1019 0258 01FA02F2 		lsl	r2, r1, r2
 401:Drivers/STM32F3xx_HAL_Driver/Src/stm32f3xx_hal_rcc.c ****       {
 1020              		.loc 1 401 9 view .LVU317
 1021 025c 0242     		tst	r2, r0
 1022 025e 56D0     		beq	.L37
 401:Drivers/STM32F3xx_HAL_Driver/Src/stm32f3xx_hal_rcc.c ****       {
 1023              		.loc 1 401 57 discriminator 13 view .LVU318
 1024 0260 2269     		ldr	r2, [r4, #16]
 1025 0262 8A42     		cmp	r2, r1
 1026 0264 53D0     		beq	.L37
 1027              	.L81:
 648:Drivers/STM32F3xx_HAL_Driver/Src/stm32f3xx_hal_rcc.c ****       }
 1028              		.loc 1 648 16 view .LVU319
 1029 0266 0120     		movs	r0, #1
 1030              		.loc 1 671 1 view .LVU320
ARM GAS  /var/folders/b1/22c950295gx2kqj80tvj8wqc0000gn/T//ccykJ5HB.s 			page 51


 1031 0268 03B0     		add	sp, sp, #12
 1032              	.LCFI5:
 1033              		.cfi_remember_state
 1034              		.cfi_def_cfa_offset 28
 1035              		@ sp needed
 1036 026a BDE8F083 		pop	{r4, r5, r6, r7, r8, r9, pc}
 1037              	.LVL73:
 1038              	.L44:
 1039              	.LCFI6:
 1040              		.cfi_restore_state
 481:Drivers/STM32F3xx_HAL_Driver/Src/stm32f3xx_hal_rcc.c ****       
 1041              		.loc 1 481 7 is_stmt 1 view .LVU321
 1042              	.LBB253:
 1043              	.LBI253:
 981:Drivers/CMSIS/Include/cmsis_gcc.h **** {
 1044              		.loc 2 981 31 view .LVU322
 1045              	.LBB254:
 983:Drivers/CMSIS/Include/cmsis_gcc.h **** 
 1046              		.loc 2 983 3 view .LVU323
 988:Drivers/CMSIS/Include/cmsis_gcc.h **** #else
 1047              		.loc 2 988 4 view .LVU324
 1048 026e 0127     		movs	r7, #1
 1049              		.syntax unified
 1050              	@ 988 "Drivers/CMSIS/Include/cmsis_gcc.h" 1
 1051 0270 97FAA7F1 		rbit r1, r7
 1052              	@ 0 "" 2
 1053              	.LVL74:
 1054              		.loc 2 1001 3 view .LVU325
 1055              		.loc 2 1001 3 is_stmt 0 view .LVU326
 1056              		.thumb
 1057              		.syntax unified
 1058              	.LBE254:
 1059              	.LBE253:
 481:Drivers/STM32F3xx_HAL_Driver/Src/stm32f3xx_hal_rcc.c ****       
 1060              		.loc 1 481 7 view .LVU327
 1061 0274 184B     		ldr	r3, .L131+8
 487:Drivers/STM32F3xx_HAL_Driver/Src/stm32f3xx_hal_rcc.c ****       {
 1062              		.loc 1 487 13 view .LVU328
 1063 0276 DFF85880 		ldr	r8, .L131
 481:Drivers/STM32F3xx_HAL_Driver/Src/stm32f3xx_hal_rcc.c ****       
 1064              		.loc 1 481 7 view .LVU329
 1065 027a B1FA81F1 		clz	r1, r1
 1066 027e 0B44     		add	r3, r3, r1
 1067 0280 9B00     		lsls	r3, r3, #2
 1068              	.LBB255:
 1069              	.LBB256:
 988:Drivers/CMSIS/Include/cmsis_gcc.h **** #else
 1070              		.loc 2 988 4 view .LVU330
 1071 0282 0225     		movs	r5, #2
 1072              	.LBE256:
 1073              	.LBE255:
 481:Drivers/STM32F3xx_HAL_Driver/Src/stm32f3xx_hal_rcc.c ****       
 1074              		.loc 1 481 7 view .LVU331
 1075 0284 1A60     		str	r2, [r3]
 484:Drivers/STM32F3xx_HAL_Driver/Src/stm32f3xx_hal_rcc.c ****       
 1076              		.loc 1 484 7 is_stmt 1 view .LVU332
 484:Drivers/STM32F3xx_HAL_Driver/Src/stm32f3xx_hal_rcc.c ****       
ARM GAS  /var/folders/b1/22c950295gx2kqj80tvj8wqc0000gn/T//ccykJ5HB.s 			page 52


 1077              		.loc 1 484 19 is_stmt 0 view .LVU333
 1078 0286 FFF7FEFF 		bl	HAL_GetTick
 1079              	.LVL75:
 1080 028a 0646     		mov	r6, r0
 1081              	.LVL76:
 487:Drivers/STM32F3xx_HAL_Driver/Src/stm32f3xx_hal_rcc.c ****       {
 1082              		.loc 1 487 7 is_stmt 1 view .LVU334
 487:Drivers/STM32F3xx_HAL_Driver/Src/stm32f3xx_hal_rcc.c ****       {
 1083              		.loc 1 487 12 is_stmt 0 view .LVU335
 1084 028c 04E0     		b	.L47
 1085              	.LVL77:
 1086              	.L48:
 489:Drivers/STM32F3xx_HAL_Driver/Src/stm32f3xx_hal_rcc.c ****         {
 1087              		.loc 1 489 13 view .LVU336
 1088 028e FFF7FEFF 		bl	HAL_GetTick
 1089              	.LVL78:
 489:Drivers/STM32F3xx_HAL_Driver/Src/stm32f3xx_hal_rcc.c ****         {
 1090              		.loc 1 489 27 view .LVU337
 1091 0292 801B     		subs	r0, r0, r6
 489:Drivers/STM32F3xx_HAL_Driver/Src/stm32f3xx_hal_rcc.c ****         {
 1092              		.loc 1 489 11 view .LVU338
 1093 0294 0228     		cmp	r0, #2
 1094 0296 5BD8     		bhi	.L32
 1095              	.L47:
 487:Drivers/STM32F3xx_HAL_Driver/Src/stm32f3xx_hal_rcc.c ****       {
 1096              		.loc 1 487 49 is_stmt 1 view .LVU339
 1097              	.LVL79:
 1098              	.LBB258:
 1099              	.LBI255:
 981:Drivers/CMSIS/Include/cmsis_gcc.h **** {
 1100              		.loc 2 981 31 view .LVU340
 1101              	.LBB257:
 983:Drivers/CMSIS/Include/cmsis_gcc.h **** 
 1102              		.loc 2 983 3 view .LVU341
 988:Drivers/CMSIS/Include/cmsis_gcc.h **** #else
 1103              		.loc 2 988 4 view .LVU342
 1104              		.syntax unified
 1105              	@ 988 "Drivers/CMSIS/Include/cmsis_gcc.h" 1
 1106 0298 95FAA5F3 		rbit r3, r5
 1107              	@ 0 "" 2
 1108              	.LVL80:
 1109              		.loc 2 1001 3 view .LVU343
 1110              		.loc 2 1001 3 is_stmt 0 view .LVU344
 1111              		.thumb
 1112              		.syntax unified
 1113              	.LBE257:
 1114              	.LBE258:
 1115              	.LBB259:
 1116              	.LBI259:
 981:Drivers/CMSIS/Include/cmsis_gcc.h **** {
 1117              		.loc 2 981 31 is_stmt 1 view .LVU345
 1118              	.LBB260:
 983:Drivers/CMSIS/Include/cmsis_gcc.h **** 
 1119              		.loc 2 983 3 view .LVU346
 988:Drivers/CMSIS/Include/cmsis_gcc.h **** #else
 1120              		.loc 2 988 4 view .LVU347
 1121              		.syntax unified
ARM GAS  /var/folders/b1/22c950295gx2kqj80tvj8wqc0000gn/T//ccykJ5HB.s 			page 53


 1122              	@ 988 "Drivers/CMSIS/Include/cmsis_gcc.h" 1
 1123 029c 95FAA5F3 		rbit r3, r5
 1124              	@ 0 "" 2
 1125              	.LVL81:
 1126              		.loc 2 1001 3 view .LVU348
 1127              		.loc 2 1001 3 is_stmt 0 view .LVU349
 1128              		.thumb
 1129              		.syntax unified
 1130              	.LBE260:
 1131              	.LBE259:
 1132              	.LBB261:
 1133              	.LBI261:
 981:Drivers/CMSIS/Include/cmsis_gcc.h **** {
 1134              		.loc 2 981 31 is_stmt 1 view .LVU350
 1135              	.LBB262:
 983:Drivers/CMSIS/Include/cmsis_gcc.h **** 
 1136              		.loc 2 983 3 view .LVU351
 988:Drivers/CMSIS/Include/cmsis_gcc.h **** #else
 1137              		.loc 2 988 4 view .LVU352
 1138              		.syntax unified
 1139              	@ 988 "Drivers/CMSIS/Include/cmsis_gcc.h" 1
 1140 02a0 95FAA5F3 		rbit r3, r5
 1141              	@ 0 "" 2
 1142              	.LVL82:
 1143              		.loc 2 1001 3 view .LVU353
 1144              		.loc 2 1001 3 is_stmt 0 view .LVU354
 1145              		.thumb
 1146              		.syntax unified
 1147              	.LBE262:
 1148              	.LBE261:
 487:Drivers/STM32F3xx_HAL_Driver/Src/stm32f3xx_hal_rcc.c ****       {
 1149              		.loc 1 487 13 view .LVU355
 1150 02a4 D8F82420 		ldr	r2, [r8, #36]
 1151              	.LVL83:
 1152              	.LBB263:
 1153              	.LBI263:
 981:Drivers/CMSIS/Include/cmsis_gcc.h **** {
 1154              		.loc 2 981 31 is_stmt 1 view .LVU356
 1155              	.LBB264:
 983:Drivers/CMSIS/Include/cmsis_gcc.h **** 
 1156              		.loc 2 983 3 view .LVU357
 988:Drivers/CMSIS/Include/cmsis_gcc.h **** #else
 1157              		.loc 2 988 4 view .LVU358
 1158              		.syntax unified
 1159              	@ 988 "Drivers/CMSIS/Include/cmsis_gcc.h" 1
 1160 02a8 95FAA5F3 		rbit r3, r5
 1161              	@ 0 "" 2
 1162              		.thumb
 1163              		.syntax unified
 1164              	.LBE264:
 1165              	.LBE263:
 489:Drivers/STM32F3xx_HAL_Driver/Src/stm32f3xx_hal_rcc.c ****         {
 1166              		.loc 1 489 9 view .LVU359
 1167              	.LVL84:
 1168              	.LBB266:
 1169              	.LBB265:
 1170              		.loc 2 1001 3 view .LVU360
ARM GAS  /var/folders/b1/22c950295gx2kqj80tvj8wqc0000gn/T//ccykJ5HB.s 			page 54


 1171              		.loc 2 1001 3 is_stmt 0 view .LVU361
 1172              	.LBE265:
 1173              	.LBE266:
 487:Drivers/STM32F3xx_HAL_Driver/Src/stm32f3xx_hal_rcc.c ****       {
 1174              		.loc 1 487 13 view .LVU362
 1175 02ac B3FA83F3 		clz	r3, r3
 1176 02b0 07FA03F3 		lsl	r3, r7, r3
 487:Drivers/STM32F3xx_HAL_Driver/Src/stm32f3xx_hal_rcc.c ****       {
 1177              		.loc 1 487 49 view .LVU363
 1178 02b4 1342     		tst	r3, r2
 1179 02b6 EAD1     		bne	.L48
 1180 02b8 88E7     		b	.L116
 1181              	.LVL85:
 1182              	.L124:
 1183              	.LBB267:
 508:Drivers/STM32F3xx_HAL_Driver/Src/stm32f3xx_hal_rcc.c ****       pwrclkchanged = SET;
 1184              		.loc 1 508 7 is_stmt 1 view .LVU364
 1185              	.LBB201:
 508:Drivers/STM32F3xx_HAL_Driver/Src/stm32f3xx_hal_rcc.c ****       pwrclkchanged = SET;
 1186              		.loc 1 508 7 view .LVU365
 508:Drivers/STM32F3xx_HAL_Driver/Src/stm32f3xx_hal_rcc.c ****       pwrclkchanged = SET;
 1187              		.loc 1 508 7 view .LVU366
 1188 02ba DA69     		ldr	r2, [r3, #28]
 1189 02bc 42F08052 		orr	r2, r2, #268435456
 1190 02c0 DA61     		str	r2, [r3, #28]
 508:Drivers/STM32F3xx_HAL_Driver/Src/stm32f3xx_hal_rcc.c ****       pwrclkchanged = SET;
 1191              		.loc 1 508 7 view .LVU367
 1192 02c2 DB69     		ldr	r3, [r3, #28]
 1193 02c4 03F08053 		and	r3, r3, #268435456
 1194 02c8 0193     		str	r3, [sp, #4]
 508:Drivers/STM32F3xx_HAL_Driver/Src/stm32f3xx_hal_rcc.c ****       pwrclkchanged = SET;
 1195              		.loc 1 508 7 view .LVU368
 1196 02ca 019B     		ldr	r3, [sp, #4]
 1197              	.LBE201:
 508:Drivers/STM32F3xx_HAL_Driver/Src/stm32f3xx_hal_rcc.c ****       pwrclkchanged = SET;
 1198              		.loc 1 508 7 view .LVU369
 509:Drivers/STM32F3xx_HAL_Driver/Src/stm32f3xx_hal_rcc.c ****     }
 1199              		.loc 1 509 7 view .LVU370
 1200              	.LVL86:
 509:Drivers/STM32F3xx_HAL_Driver/Src/stm32f3xx_hal_rcc.c ****     }
 1201              		.loc 1 509 21 is_stmt 0 view .LVU371
 1202 02cc 0125     		movs	r5, #1
 1203 02ce 3BE7     		b	.L51
 1204              	.L132:
 1205              		.align	2
 1206              	.L131:
 1207 02d0 00100240 		.word	1073876992
 1208 02d4 00700040 		.word	1073770496
 1209 02d8 20819010 		.word	277905696
 1210              	.LVL87:
 1211              	.L118:
 509:Drivers/STM32F3xx_HAL_Driver/Src/stm32f3xx_hal_rcc.c ****     }
 1212              		.loc 1 509 21 view .LVU372
 1213              	.LBE267:
 341:Drivers/STM32F3xx_HAL_Driver/Src/stm32f3xx_hal_rcc.c ****     {
 1214              		.loc 1 341 82 discriminator 1 view .LVU373
 1215 02dc 4A68     		ldr	r2, [r1, #4]
ARM GAS  /var/folders/b1/22c950295gx2kqj80tvj8wqc0000gn/T//ccykJ5HB.s 			page 55


 341:Drivers/STM32F3xx_HAL_Driver/Src/stm32f3xx_hal_rcc.c ****     {
 1216              		.loc 1 341 78 discriminator 1 view .LVU374
 1217 02de D203     		lsls	r2, r2, #15
 1218 02e0 7FF5A5AE 		bpl	.L22
 1219              	.L21:
 343:Drivers/STM32F3xx_HAL_Driver/Src/stm32f3xx_hal_rcc.c ****       {
 1220              		.loc 1 343 7 is_stmt 1 view .LVU375
 1221              	.LVL88:
 1222              	.LBB268:
 1223              	.LBI268:
 981:Drivers/CMSIS/Include/cmsis_gcc.h **** {
 1224              		.loc 2 981 31 view .LVU376
 1225              	.LBB269:
 983:Drivers/CMSIS/Include/cmsis_gcc.h **** 
 1226              		.loc 2 983 3 view .LVU377
 988:Drivers/CMSIS/Include/cmsis_gcc.h **** #else
 1227              		.loc 2 988 4 view .LVU378
 1228 02e4 4FF40032 		mov	r2, #131072
 1229              		.syntax unified
 1230              	@ 988 "Drivers/CMSIS/Include/cmsis_gcc.h" 1
 1231 02e8 92FAA2F1 		rbit r1, r2
 1232              	@ 0 "" 2
 1233              	.LVL89:
 1234              		.loc 2 1001 3 view .LVU379
 1235              		.loc 2 1001 3 is_stmt 0 view .LVU380
 1236              		.thumb
 1237              		.syntax unified
 1238              	.LBE269:
 1239              	.LBE268:
 343:Drivers/STM32F3xx_HAL_Driver/Src/stm32f3xx_hal_rcc.c ****       {
 1240              		.loc 1 343 11 view .LVU381
 1241 02ec A749     		ldr	r1, .L133
 1242 02ee 0868     		ldr	r0, [r1]
 1243              	.LVL90:
 1244              	.LBB270:
 1245              	.LBI270:
 981:Drivers/CMSIS/Include/cmsis_gcc.h **** {
 1246              		.loc 2 981 31 is_stmt 1 view .LVU382
 1247              	.LBB271:
 983:Drivers/CMSIS/Include/cmsis_gcc.h **** 
 1248              		.loc 2 983 3 view .LVU383
 988:Drivers/CMSIS/Include/cmsis_gcc.h **** #else
 1249              		.loc 2 988 4 view .LVU384
 1250              		.syntax unified
 1251              	@ 988 "Drivers/CMSIS/Include/cmsis_gcc.h" 1
 1252 02f0 92FAA2F2 		rbit r2, r2
 1253              	@ 0 "" 2
 1254              	.LVL91:
 1255              		.loc 2 1001 3 view .LVU385
 1256              		.loc 2 1001 3 is_stmt 0 view .LVU386
 1257              		.thumb
 1258              		.syntax unified
 1259              	.LBE271:
 1260              	.LBE270:
 343:Drivers/STM32F3xx_HAL_Driver/Src/stm32f3xx_hal_rcc.c ****       {
 1261              		.loc 1 343 11 view .LVU387
 1262 02f4 0121     		movs	r1, #1
ARM GAS  /var/folders/b1/22c950295gx2kqj80tvj8wqc0000gn/T//ccykJ5HB.s 			page 56


 1263 02f6 B2FA82F2 		clz	r2, r2
 1264 02fa 01FA02F2 		lsl	r2, r1, r2
 343:Drivers/STM32F3xx_HAL_Driver/Src/stm32f3xx_hal_rcc.c ****       {
 1265              		.loc 1 343 9 view .LVU388
 1266 02fe 0242     		tst	r2, r0
 1267 0300 3FF4D6AE 		beq	.L20
 343:Drivers/STM32F3xx_HAL_Driver/Src/stm32f3xx_hal_rcc.c ****       {
 1268              		.loc 1 343 57 discriminator 13 view .LVU389
 1269 0304 6268     		ldr	r2, [r4, #4]
 1270 0306 002A     		cmp	r2, #0
 1271 0308 7FF4D2AE 		bne	.L20
 1272 030c ABE7     		b	.L81
 1273              	.L37:
 409:Drivers/STM32F3xx_HAL_Driver/Src/stm32f3xx_hal_rcc.c ****       }
 1274              		.loc 1 409 9 is_stmt 1 view .LVU390
 1275 030e 9F4D     		ldr	r5, .L133
 1276              	.LBB272:
 1277              	.LBB273:
 988:Drivers/CMSIS/Include/cmsis_gcc.h **** #else
 1278              		.loc 2 988 4 is_stmt 0 view .LVU391
 1279 0310 F821     		movs	r1, #248
 1280              	.LBE273:
 1281              	.LBE272:
 409:Drivers/STM32F3xx_HAL_Driver/Src/stm32f3xx_hal_rcc.c ****       }
 1282              		.loc 1 409 9 view .LVU392
 1283 0312 2868     		ldr	r0, [r5]
 1284              	.LVL92:
 1285              	.LBB275:
 1286              	.LBI272:
 981:Drivers/CMSIS/Include/cmsis_gcc.h **** {
 1287              		.loc 2 981 31 is_stmt 1 view .LVU393
 1288              	.LBB274:
 983:Drivers/CMSIS/Include/cmsis_gcc.h **** 
 1289              		.loc 2 983 3 view .LVU394
 988:Drivers/CMSIS/Include/cmsis_gcc.h **** #else
 1290              		.loc 2 988 4 view .LVU395
 1291              		.syntax unified
 1292              	@ 988 "Drivers/CMSIS/Include/cmsis_gcc.h" 1
 1293 0314 91FAA1F1 		rbit r1, r1
 1294              	@ 0 "" 2
 1295              	.LVL93:
 1296              		.loc 2 1001 3 view .LVU396
 1297              		.loc 2 1001 3 is_stmt 0 view .LVU397
 1298              		.thumb
 1299              		.syntax unified
 1300              	.LBE274:
 1301              	.LBE275:
 409:Drivers/STM32F3xx_HAL_Driver/Src/stm32f3xx_hal_rcc.c ****       }
 1302              		.loc 1 409 9 view .LVU398
 1303 0318 6269     		ldr	r2, [r4, #20]
 1304 031a B1FA81F1 		clz	r1, r1
 1305 031e 20F0F800 		bic	r0, r0, #248
 1306 0322 8A40     		lsls	r2, r2, r1
 1307 0324 0243     		orrs	r2, r2, r0
 1308 0326 2A60     		str	r2, [r5]
 455:Drivers/STM32F3xx_HAL_Driver/Src/stm32f3xx_hal_rcc.c ****   {
 1309              		.loc 1 455 3 is_stmt 1 view .LVU399
ARM GAS  /var/folders/b1/22c950295gx2kqj80tvj8wqc0000gn/T//ccykJ5HB.s 			page 57


 455:Drivers/STM32F3xx_HAL_Driver/Src/stm32f3xx_hal_rcc.c ****   {
 1310              		.loc 1 455 5 is_stmt 0 view .LVU400
 1311 0328 1D07     		lsls	r5, r3, #28
 1312 032a 7FF505AF 		bpl	.L43
 1313 032e 24E7     		b	.L123
 1314              	.LVL94:
 1315              	.L52:
 1316              	.LBB276:
 515:Drivers/STM32F3xx_HAL_Driver/Src/stm32f3xx_hal_rcc.c ****       
 1317              		.loc 1 515 7 is_stmt 1 view .LVU401
 1318 0330 3368     		ldr	r3, [r6]
 1319 0332 43F48073 		orr	r3, r3, #256
 1320 0336 3360     		str	r3, [r6]
 518:Drivers/STM32F3xx_HAL_Driver/Src/stm32f3xx_hal_rcc.c **** 
 1321              		.loc 1 518 7 view .LVU402
 518:Drivers/STM32F3xx_HAL_Driver/Src/stm32f3xx_hal_rcc.c **** 
 1322              		.loc 1 518 19 is_stmt 0 view .LVU403
 1323 0338 FFF7FEFF 		bl	HAL_GetTick
 1324              	.LVL95:
 1325 033c 0746     		mov	r7, r0
 1326              	.LVL96:
 520:Drivers/STM32F3xx_HAL_Driver/Src/stm32f3xx_hal_rcc.c ****       {
 1327              		.loc 1 520 7 is_stmt 1 view .LVU404
 1328              	.L55:
 522:Drivers/STM32F3xx_HAL_Driver/Src/stm32f3xx_hal_rcc.c ****         {
 1329              		.loc 1 522 9 view .LVU405
 520:Drivers/STM32F3xx_HAL_Driver/Src/stm32f3xx_hal_rcc.c ****       {
 1330              		.loc 1 520 13 view .LVU406
 1331 033e 3368     		ldr	r3, [r6]
 1332 0340 DB05     		lsls	r3, r3, #23
 1333 0342 3FF506AF 		bmi	.L57
 522:Drivers/STM32F3xx_HAL_Driver/Src/stm32f3xx_hal_rcc.c ****         {
 1334              		.loc 1 522 13 is_stmt 0 view .LVU407
 1335 0346 FFF7FEFF 		bl	HAL_GetTick
 1336              	.LVL97:
 522:Drivers/STM32F3xx_HAL_Driver/Src/stm32f3xx_hal_rcc.c ****         {
 1337              		.loc 1 522 27 view .LVU408
 1338 034a C01B     		subs	r0, r0, r7
 522:Drivers/STM32F3xx_HAL_Driver/Src/stm32f3xx_hal_rcc.c ****         {
 1339              		.loc 1 522 11 view .LVU409
 1340 034c 6428     		cmp	r0, #100
 1341 034e F6D9     		bls	.L55
 1342              	.LVL98:
 1343              	.L32:
 522:Drivers/STM32F3xx_HAL_Driver/Src/stm32f3xx_hal_rcc.c ****         {
 1344              		.loc 1 522 11 view .LVU410
 1345              	.LBE276:
 369:Drivers/STM32F3xx_HAL_Driver/Src/stm32f3xx_hal_rcc.c ****           }
 1346              		.loc 1 369 20 view .LVU411
 1347 0350 0320     		movs	r0, #3
 1348              		.loc 1 671 1 view .LVU412
 1349 0352 03B0     		add	sp, sp, #12
 1350              	.LCFI7:
 1351              		.cfi_remember_state
 1352              		.cfi_def_cfa_offset 28
 1353              		@ sp needed
 1354 0354 BDE8F083 		pop	{r4, r5, r6, r7, r8, r9, pc}
ARM GAS  /var/folders/b1/22c950295gx2kqj80tvj8wqc0000gn/T//ccykJ5HB.s 			page 58


 1355              	.LVL99:
 1356              	.L120:
 1357              	.LCFI8:
 1358              		.cfi_restore_state
 351:Drivers/STM32F3xx_HAL_Driver/Src/stm32f3xx_hal_rcc.c ****       
 1359              		.loc 1 351 7 is_stmt 1 discriminator 4 view .LVU413
 1360 0358 8C4D     		ldr	r5, .L133
 1361 035a 2B68     		ldr	r3, [r5]
 1362 035c 23F48033 		bic	r3, r3, #65536
 1363 0360 2B60     		str	r3, [r5]
 351:Drivers/STM32F3xx_HAL_Driver/Src/stm32f3xx_hal_rcc.c ****       
 1364              		.loc 1 351 7 discriminator 4 view .LVU414
 1365 0362 2B68     		ldr	r3, [r5]
 1366 0364 23F48023 		bic	r3, r3, #262144
 1367 0368 2B60     		str	r3, [r5]
 351:Drivers/STM32F3xx_HAL_Driver/Src/stm32f3xx_hal_rcc.c ****       
 1368              		.loc 1 351 7 discriminator 4 view .LVU415
 355:Drivers/STM32F3xx_HAL_Driver/Src/stm32f3xx_hal_rcc.c **** #endif /* RCC_CFGR_PLLSRC_HSI_DIV2 */
 1369              		.loc 1 355 7 discriminator 4 view .LVU416
 1370 036a EB6A     		ldr	r3, [r5, #44]
 1371 036c A268     		ldr	r2, [r4, #8]
 1372 036e 23F00F03 		bic	r3, r3, #15
 1373 0372 1343     		orrs	r3, r3, r2
 1374 0374 EB62     		str	r3, [r5, #44]
 359:Drivers/STM32F3xx_HAL_Driver/Src/stm32f3xx_hal_rcc.c ****       {
 1375              		.loc 1 359 7 discriminator 4 view .LVU417
 376:Drivers/STM32F3xx_HAL_Driver/Src/stm32f3xx_hal_rcc.c ****         
 1376              		.loc 1 376 9 discriminator 4 view .LVU418
 376:Drivers/STM32F3xx_HAL_Driver/Src/stm32f3xx_hal_rcc.c ****         
 1377              		.loc 1 376 21 is_stmt 0 discriminator 4 view .LVU419
 1378 0376 FFF7FEFF 		bl	HAL_GetTick
 1379              	.LVL100:
 1380              	.LBB277:
 1381              	.LBB278:
 988:Drivers/CMSIS/Include/cmsis_gcc.h **** #else
 1382              		.loc 2 988 4 discriminator 4 view .LVU420
 1383 037a 4FF40038 		mov	r8, #131072
 1384              	.LBE278:
 1385              	.LBE277:
 376:Drivers/STM32F3xx_HAL_Driver/Src/stm32f3xx_hal_rcc.c ****         
 1386              		.loc 1 376 21 discriminator 4 view .LVU421
 1387 037e 0646     		mov	r6, r0
 1388              	.LVL101:
 379:Drivers/STM32F3xx_HAL_Driver/Src/stm32f3xx_hal_rcc.c ****         {
 1389              		.loc 1 379 9 is_stmt 1 discriminator 4 view .LVU422
 379:Drivers/STM32F3xx_HAL_Driver/Src/stm32f3xx_hal_rcc.c ****         {
 1390              		.loc 1 379 15 is_stmt 0 discriminator 4 view .LVU423
 1391 0380 0127     		movs	r7, #1
 379:Drivers/STM32F3xx_HAL_Driver/Src/stm32f3xx_hal_rcc.c ****         {
 1392              		.loc 1 379 14 discriminator 4 view .LVU424
 1393 0382 04E0     		b	.L27
 1394              	.LVL102:
 1395              	.L33:
 381:Drivers/STM32F3xx_HAL_Driver/Src/stm32f3xx_hal_rcc.c ****           {
 1396              		.loc 1 381 16 view .LVU425
 1397 0384 FFF7FEFF 		bl	HAL_GetTick
 1398              	.LVL103:
ARM GAS  /var/folders/b1/22c950295gx2kqj80tvj8wqc0000gn/T//ccykJ5HB.s 			page 59


 381:Drivers/STM32F3xx_HAL_Driver/Src/stm32f3xx_hal_rcc.c ****           {
 1399              		.loc 1 381 30 view .LVU426
 1400 0388 801B     		subs	r0, r0, r6
 381:Drivers/STM32F3xx_HAL_Driver/Src/stm32f3xx_hal_rcc.c ****           {
 1401              		.loc 1 381 14 view .LVU427
 1402 038a 6428     		cmp	r0, #100
 1403 038c E0D8     		bhi	.L32
 1404              	.L27:
 379:Drivers/STM32F3xx_HAL_Driver/Src/stm32f3xx_hal_rcc.c ****         {
 1405              		.loc 1 379 51 is_stmt 1 view .LVU428
 1406              	.LVL104:
 1407              	.LBB280:
 1408              	.LBI277:
 981:Drivers/CMSIS/Include/cmsis_gcc.h **** {
 1409              		.loc 2 981 31 view .LVU429
 1410              	.LBB279:
 983:Drivers/CMSIS/Include/cmsis_gcc.h **** 
 1411              		.loc 2 983 3 view .LVU430
 988:Drivers/CMSIS/Include/cmsis_gcc.h **** #else
 1412              		.loc 2 988 4 view .LVU431
 1413              		.syntax unified
 1414              	@ 988 "Drivers/CMSIS/Include/cmsis_gcc.h" 1
 1415 038e 98FAA8F3 		rbit r3, r8
 1416              	@ 0 "" 2
 1417              	.LVL105:
 1418              		.loc 2 1001 3 view .LVU432
 1419              		.loc 2 1001 3 is_stmt 0 view .LVU433
 1420              		.thumb
 1421              		.syntax unified
 1422              	.LBE279:
 1423              	.LBE280:
 379:Drivers/STM32F3xx_HAL_Driver/Src/stm32f3xx_hal_rcc.c ****         {
 1424              		.loc 1 379 15 view .LVU434
 1425 0392 2A68     		ldr	r2, [r5]
 1426              	.LVL106:
 1427              	.LBB281:
 1428              	.LBI281:
 981:Drivers/CMSIS/Include/cmsis_gcc.h **** {
 1429              		.loc 2 981 31 is_stmt 1 view .LVU435
 1430              	.LBB282:
 983:Drivers/CMSIS/Include/cmsis_gcc.h **** 
 1431              		.loc 2 983 3 view .LVU436
 988:Drivers/CMSIS/Include/cmsis_gcc.h **** #else
 1432              		.loc 2 988 4 view .LVU437
 1433              		.syntax unified
 1434              	@ 988 "Drivers/CMSIS/Include/cmsis_gcc.h" 1
 1435 0394 98FAA8F3 		rbit r3, r8
 1436              	@ 0 "" 2
 1437              		.thumb
 1438              		.syntax unified
 1439              	.LBE282:
 1440              	.LBE281:
 381:Drivers/STM32F3xx_HAL_Driver/Src/stm32f3xx_hal_rcc.c ****           {
 1441              		.loc 1 381 12 view .LVU438
 1442              	.LVL107:
 1443              	.LBB284:
 1444              	.LBB283:
ARM GAS  /var/folders/b1/22c950295gx2kqj80tvj8wqc0000gn/T//ccykJ5HB.s 			page 60


 1445              		.loc 2 1001 3 view .LVU439
 1446              		.loc 2 1001 3 is_stmt 0 view .LVU440
 1447              	.LBE283:
 1448              	.LBE284:
 379:Drivers/STM32F3xx_HAL_Driver/Src/stm32f3xx_hal_rcc.c ****         {
 1449              		.loc 1 379 15 view .LVU441
 1450 0398 B3FA83F3 		clz	r3, r3
 1451 039c 07FA03F3 		lsl	r3, r7, r3
 379:Drivers/STM32F3xx_HAL_Driver/Src/stm32f3xx_hal_rcc.c ****         {
 1452              		.loc 1 379 51 view .LVU442
 1453 03a0 1342     		tst	r3, r2
 1454 03a2 EFD1     		bne	.L33
 1455 03a4 83E6     		b	.L115
 1456              	.LVL108:
 1457              	.L126:
 1458              	.LBB285:
 530:Drivers/STM32F3xx_HAL_Driver/Src/stm32f3xx_hal_rcc.c ****     /* Check the LSE State */
 1459              		.loc 1 530 5 is_stmt 1 discriminator 4 view .LVU443
 1460 03a6 794E     		ldr	r6, .L133
 1461 03a8 336A     		ldr	r3, [r6, #32]
 1462 03aa 23F00103 		bic	r3, r3, #1
 1463 03ae 3362     		str	r3, [r6, #32]
 530:Drivers/STM32F3xx_HAL_Driver/Src/stm32f3xx_hal_rcc.c ****     /* Check the LSE State */
 1464              		.loc 1 530 5 discriminator 4 view .LVU444
 1465 03b0 336A     		ldr	r3, [r6, #32]
 1466 03b2 23F00403 		bic	r3, r3, #4
 1467 03b6 3362     		str	r3, [r6, #32]
 530:Drivers/STM32F3xx_HAL_Driver/Src/stm32f3xx_hal_rcc.c ****     /* Check the LSE State */
 1468              		.loc 1 530 5 discriminator 4 view .LVU445
 532:Drivers/STM32F3xx_HAL_Driver/Src/stm32f3xx_hal_rcc.c ****     {
 1469              		.loc 1 532 5 discriminator 4 view .LVU446
 549:Drivers/STM32F3xx_HAL_Driver/Src/stm32f3xx_hal_rcc.c ****       
 1470              		.loc 1 549 7 discriminator 4 view .LVU447
 549:Drivers/STM32F3xx_HAL_Driver/Src/stm32f3xx_hal_rcc.c ****       
 1471              		.loc 1 549 19 is_stmt 0 discriminator 4 view .LVU448
 1472 03b8 FFF7FEFF 		bl	HAL_GetTick
 1473              	.LVL109:
 1474              	.LBB202:
 1475              	.LBB203:
 988:Drivers/CMSIS/Include/cmsis_gcc.h **** #else
 1476              		.loc 2 988 4 discriminator 4 view .LVU449
 1477 03bc 4FF00209 		mov	r9, #2
 1478              	.LBE203:
 1479              	.LBE202:
 549:Drivers/STM32F3xx_HAL_Driver/Src/stm32f3xx_hal_rcc.c ****       
 1480              		.loc 1 549 19 discriminator 4 view .LVU450
 1481 03c0 0746     		mov	r7, r0
 1482              	.LVL110:
 552:Drivers/STM32F3xx_HAL_Driver/Src/stm32f3xx_hal_rcc.c ****       {
 1483              		.loc 1 552 7 is_stmt 1 discriminator 4 view .LVU451
 552:Drivers/STM32F3xx_HAL_Driver/Src/stm32f3xx_hal_rcc.c ****       {
 1484              		.loc 1 552 13 is_stmt 0 discriminator 4 view .LVU452
 1485 03c2 4FF00108 		mov	r8, #1
 552:Drivers/STM32F3xx_HAL_Driver/Src/stm32f3xx_hal_rcc.c ****       {
 1486              		.loc 1 552 12 discriminator 4 view .LVU453
 1487 03c6 06E0     		b	.L60
 1488              	.LVL111:
ARM GAS  /var/folders/b1/22c950295gx2kqj80tvj8wqc0000gn/T//ccykJ5HB.s 			page 61


 1489              	.L67:
 554:Drivers/STM32F3xx_HAL_Driver/Src/stm32f3xx_hal_rcc.c ****         {
 1490              		.loc 1 554 13 view .LVU454
 1491 03c8 FFF7FEFF 		bl	HAL_GetTick
 1492              	.LVL112:
 554:Drivers/STM32F3xx_HAL_Driver/Src/stm32f3xx_hal_rcc.c ****         {
 1493              		.loc 1 554 11 view .LVU455
 1494 03cc 41F28833 		movw	r3, #5000
 554:Drivers/STM32F3xx_HAL_Driver/Src/stm32f3xx_hal_rcc.c ****         {
 1495              		.loc 1 554 27 view .LVU456
 1496 03d0 C01B     		subs	r0, r0, r7
 554:Drivers/STM32F3xx_HAL_Driver/Src/stm32f3xx_hal_rcc.c ****         {
 1497              		.loc 1 554 11 view .LVU457
 1498 03d2 9842     		cmp	r0, r3
 1499 03d4 BCD8     		bhi	.L32
 1500              	.L60:
 552:Drivers/STM32F3xx_HAL_Driver/Src/stm32f3xx_hal_rcc.c ****       {
 1501              		.loc 1 552 49 is_stmt 1 view .LVU458
 1502              	.LVL113:
 1503              	.LBB205:
 1504              	.LBI202:
 981:Drivers/CMSIS/Include/cmsis_gcc.h **** {
 1505              		.loc 2 981 31 view .LVU459
 1506              	.LBB204:
 983:Drivers/CMSIS/Include/cmsis_gcc.h **** 
 1507              		.loc 2 983 3 view .LVU460
 988:Drivers/CMSIS/Include/cmsis_gcc.h **** #else
 1508              		.loc 2 988 4 view .LVU461
 1509              		.syntax unified
 1510              	@ 988 "Drivers/CMSIS/Include/cmsis_gcc.h" 1
 1511 03d6 99FAA9F3 		rbit r3, r9
 1512              	@ 0 "" 2
 1513              	.LVL114:
 1514              		.loc 2 1001 3 view .LVU462
 1515              		.loc 2 1001 3 is_stmt 0 view .LVU463
 1516              		.thumb
 1517              		.syntax unified
 1518              	.LBE204:
 1519              	.LBE205:
 1520              	.LBB206:
 1521              	.LBI206:
 981:Drivers/CMSIS/Include/cmsis_gcc.h **** {
 1522              		.loc 2 981 31 is_stmt 1 view .LVU464
 1523              	.LBB207:
 983:Drivers/CMSIS/Include/cmsis_gcc.h **** 
 1524              		.loc 2 983 3 view .LVU465
 988:Drivers/CMSIS/Include/cmsis_gcc.h **** #else
 1525              		.loc 2 988 4 view .LVU466
 1526              		.syntax unified
 1527              	@ 988 "Drivers/CMSIS/Include/cmsis_gcc.h" 1
 1528 03da 99FAA9F3 		rbit r3, r9
 1529              	@ 0 "" 2
 1530              	.LVL115:
 1531              		.loc 2 1001 3 view .LVU467
 1532              		.loc 2 1001 3 is_stmt 0 view .LVU468
 1533              		.thumb
 1534              		.syntax unified
ARM GAS  /var/folders/b1/22c950295gx2kqj80tvj8wqc0000gn/T//ccykJ5HB.s 			page 62


 1535              	.LBE207:
 1536              	.LBE206:
 552:Drivers/STM32F3xx_HAL_Driver/Src/stm32f3xx_hal_rcc.c ****       {
 1537              		.loc 1 552 13 view .LVU469
 1538 03de 326A     		ldr	r2, [r6, #32]
 1539              	.LVL116:
 1540              	.LBB208:
 1541              	.LBI208:
 981:Drivers/CMSIS/Include/cmsis_gcc.h **** {
 1542              		.loc 2 981 31 is_stmt 1 view .LVU470
 1543              	.LBB209:
 983:Drivers/CMSIS/Include/cmsis_gcc.h **** 
 1544              		.loc 2 983 3 view .LVU471
 988:Drivers/CMSIS/Include/cmsis_gcc.h **** #else
 1545              		.loc 2 988 4 view .LVU472
 1546              		.syntax unified
 1547              	@ 988 "Drivers/CMSIS/Include/cmsis_gcc.h" 1
 1548 03e0 99FAA9F3 		rbit r3, r9
 1549              	@ 0 "" 2
 1550              		.thumb
 1551              		.syntax unified
 1552              	.LBE209:
 1553              	.LBE208:
 554:Drivers/STM32F3xx_HAL_Driver/Src/stm32f3xx_hal_rcc.c ****         {
 1554              		.loc 1 554 9 view .LVU473
 1555              	.LVL117:
 1556              	.LBB211:
 1557              	.LBB210:
 1558              		.loc 2 1001 3 view .LVU474
 1559              		.loc 2 1001 3 is_stmt 0 view .LVU475
 1560              	.LBE210:
 1561              	.LBE211:
 552:Drivers/STM32F3xx_HAL_Driver/Src/stm32f3xx_hal_rcc.c ****       {
 1562              		.loc 1 552 13 view .LVU476
 1563 03e4 B3FA83F3 		clz	r3, r3
 1564 03e8 08FA03F3 		lsl	r3, r8, r3
 552:Drivers/STM32F3xx_HAL_Driver/Src/stm32f3xx_hal_rcc.c ****       {
 1565              		.loc 1 552 49 view .LVU477
 1566 03ec 1342     		tst	r3, r2
 1567 03ee EBD1     		bne	.L67
 562:Drivers/STM32F3xx_HAL_Driver/Src/stm32f3xx_hal_rcc.c ****     {
 1568              		.loc 1 562 5 is_stmt 1 view .LVU478
 562:Drivers/STM32F3xx_HAL_Driver/Src/stm32f3xx_hal_rcc.c ****     {
 1569              		.loc 1 562 7 is_stmt 0 view .LVU479
 1570 03f0 002D     		cmp	r5, #0
 1571 03f2 3FF4EEAE 		beq	.L50
 1572              	.LVL118:
 1573              	.L130:
 564:Drivers/STM32F3xx_HAL_Driver/Src/stm32f3xx_hal_rcc.c ****     }
 1574              		.loc 1 564 7 is_stmt 1 view .LVU480
 1575 03f6 654A     		ldr	r2, .L133
 1576 03f8 D369     		ldr	r3, [r2, #28]
 1577 03fa 23F08053 		bic	r3, r3, #268435456
 1578 03fe D361     		str	r3, [r2, #28]
 1579 0400 E7E6     		b	.L50
 1580              	.LVL119:
 1581              	.L38:
ARM GAS  /var/folders/b1/22c950295gx2kqj80tvj8wqc0000gn/T//ccykJ5HB.s 			page 63


 564:Drivers/STM32F3xx_HAL_Driver/Src/stm32f3xx_hal_rcc.c ****     }
 1582              		.loc 1 564 7 is_stmt 0 view .LVU481
 1583              	.LBE285:
 438:Drivers/STM32F3xx_HAL_Driver/Src/stm32f3xx_hal_rcc.c ****         
 1584              		.loc 1 438 9 is_stmt 1 view .LVU482
 1585              	.LBB286:
 1586              	.LBI286:
 981:Drivers/CMSIS/Include/cmsis_gcc.h **** {
 1587              		.loc 2 981 31 view .LVU483
 1588              	.LBB287:
 983:Drivers/CMSIS/Include/cmsis_gcc.h **** 
 1589              		.loc 2 983 3 view .LVU484
 988:Drivers/CMSIS/Include/cmsis_gcc.h **** #else
 1590              		.loc 2 988 4 view .LVU485
 1591 0402 0126     		movs	r6, #1
 1592              		.syntax unified
 1593              	@ 988 "Drivers/CMSIS/Include/cmsis_gcc.h" 1
 1594 0404 96FAA6F3 		rbit r3, r6
 1595              	@ 0 "" 2
 1596              	.LVL120:
 1597              		.loc 2 1001 3 view .LVU486
 1598              		.loc 2 1001 3 is_stmt 0 view .LVU487
 1599              		.thumb
 1600              		.syntax unified
 1601              	.LBE287:
 1602              	.LBE286:
 438:Drivers/STM32F3xx_HAL_Driver/Src/stm32f3xx_hal_rcc.c ****         
 1603              		.loc 1 438 9 view .LVU488
 1604 0408 B3FA83F3 		clz	r3, r3
 1605 040c 03F18453 		add	r3, r3, #276824064
 1606 0410 03F58413 		add	r3, r3, #1081344
 1607 0414 9B00     		lsls	r3, r3, #2
 444:Drivers/STM32F3xx_HAL_Driver/Src/stm32f3xx_hal_rcc.c ****         {
 1608              		.loc 1 444 15 view .LVU489
 1609 0416 5D4F     		ldr	r7, .L133
 438:Drivers/STM32F3xx_HAL_Driver/Src/stm32f3xx_hal_rcc.c ****         
 1610              		.loc 1 438 9 view .LVU490
 1611 0418 1A60     		str	r2, [r3]
 441:Drivers/STM32F3xx_HAL_Driver/Src/stm32f3xx_hal_rcc.c ****         
 1612              		.loc 1 441 9 is_stmt 1 view .LVU491
 441:Drivers/STM32F3xx_HAL_Driver/Src/stm32f3xx_hal_rcc.c ****         
 1613              		.loc 1 441 21 is_stmt 0 view .LVU492
 1614 041a FFF7FEFF 		bl	HAL_GetTick
 1615              	.LVL121:
 1616              	.LBB288:
 1617              	.LBB289:
 988:Drivers/CMSIS/Include/cmsis_gcc.h **** #else
 1618              		.loc 2 988 4 view .LVU493
 1619 041e 4FF00208 		mov	r8, #2
 1620              	.LBE289:
 1621              	.LBE288:
 441:Drivers/STM32F3xx_HAL_Driver/Src/stm32f3xx_hal_rcc.c ****         
 1622              		.loc 1 441 21 view .LVU494
 1623 0422 0546     		mov	r5, r0
 1624              	.LVL122:
 444:Drivers/STM32F3xx_HAL_Driver/Src/stm32f3xx_hal_rcc.c ****         {
 1625              		.loc 1 444 9 is_stmt 1 view .LVU495
ARM GAS  /var/folders/b1/22c950295gx2kqj80tvj8wqc0000gn/T//ccykJ5HB.s 			page 64


 444:Drivers/STM32F3xx_HAL_Driver/Src/stm32f3xx_hal_rcc.c ****         {
 1626              		.loc 1 444 14 is_stmt 0 view .LVU496
 1627 0424 04E0     		b	.L41
 1628              	.LVL123:
 1629              	.L42:
 446:Drivers/STM32F3xx_HAL_Driver/Src/stm32f3xx_hal_rcc.c ****           {
 1630              		.loc 1 446 15 view .LVU497
 1631 0426 FFF7FEFF 		bl	HAL_GetTick
 1632              	.LVL124:
 446:Drivers/STM32F3xx_HAL_Driver/Src/stm32f3xx_hal_rcc.c ****           {
 1633              		.loc 1 446 29 view .LVU498
 1634 042a 401B     		subs	r0, r0, r5
 446:Drivers/STM32F3xx_HAL_Driver/Src/stm32f3xx_hal_rcc.c ****           {
 1635              		.loc 1 446 13 view .LVU499
 1636 042c 0228     		cmp	r0, #2
 1637 042e 8FD8     		bhi	.L32
 1638              	.L41:
 444:Drivers/STM32F3xx_HAL_Driver/Src/stm32f3xx_hal_rcc.c ****         {
 1639              		.loc 1 444 51 is_stmt 1 view .LVU500
 1640              	.LVL125:
 1641              	.LBB291:
 1642              	.LBI288:
 981:Drivers/CMSIS/Include/cmsis_gcc.h **** {
 1643              		.loc 2 981 31 view .LVU501
 1644              	.LBB290:
 983:Drivers/CMSIS/Include/cmsis_gcc.h **** 
 1645              		.loc 2 983 3 view .LVU502
 988:Drivers/CMSIS/Include/cmsis_gcc.h **** #else
 1646              		.loc 2 988 4 view .LVU503
 1647              		.syntax unified
 1648              	@ 988 "Drivers/CMSIS/Include/cmsis_gcc.h" 1
 1649 0430 98FAA8F3 		rbit r3, r8
 1650              	@ 0 "" 2
 1651              	.LVL126:
 1652              		.loc 2 1001 3 view .LVU504
 1653              		.loc 2 1001 3 is_stmt 0 view .LVU505
 1654              		.thumb
 1655              		.syntax unified
 1656              	.LBE290:
 1657              	.LBE291:
 444:Drivers/STM32F3xx_HAL_Driver/Src/stm32f3xx_hal_rcc.c ****         {
 1658              		.loc 1 444 15 view .LVU506
 1659 0434 3A68     		ldr	r2, [r7]
 1660              	.LVL127:
 1661              	.LBB292:
 1662              	.LBI292:
 981:Drivers/CMSIS/Include/cmsis_gcc.h **** {
 1663              		.loc 2 981 31 is_stmt 1 view .LVU507
 1664              	.LBB293:
 983:Drivers/CMSIS/Include/cmsis_gcc.h **** 
 1665              		.loc 2 983 3 view .LVU508
 988:Drivers/CMSIS/Include/cmsis_gcc.h **** #else
 1666              		.loc 2 988 4 view .LVU509
 1667              		.syntax unified
 1668              	@ 988 "Drivers/CMSIS/Include/cmsis_gcc.h" 1
 1669 0436 98FAA8F3 		rbit r3, r8
 1670              	@ 0 "" 2
ARM GAS  /var/folders/b1/22c950295gx2kqj80tvj8wqc0000gn/T//ccykJ5HB.s 			page 65


 1671              		.thumb
 1672              		.syntax unified
 1673              	.LBE293:
 1674              	.LBE292:
 446:Drivers/STM32F3xx_HAL_Driver/Src/stm32f3xx_hal_rcc.c ****           {
 1675              		.loc 1 446 11 view .LVU510
 1676              	.LVL128:
 1677              	.LBB295:
 1678              	.LBB294:
 1679              		.loc 2 1001 3 view .LVU511
 1680              		.loc 2 1001 3 is_stmt 0 view .LVU512
 1681              	.LBE294:
 1682              	.LBE295:
 444:Drivers/STM32F3xx_HAL_Driver/Src/stm32f3xx_hal_rcc.c ****         {
 1683              		.loc 1 444 15 view .LVU513
 1684 043a B3FA83F3 		clz	r3, r3
 1685 043e 06FA03F3 		lsl	r3, r6, r3
 444:Drivers/STM32F3xx_HAL_Driver/Src/stm32f3xx_hal_rcc.c ****         {
 1686              		.loc 1 444 51 view .LVU514
 1687 0442 1342     		tst	r3, r2
 1688 0444 EFD1     		bne	.L42
 455:Drivers/STM32F3xx_HAL_Driver/Src/stm32f3xx_hal_rcc.c ****   {
 1689              		.loc 1 455 25 view .LVU515
 1690 0446 2368     		ldr	r3, [r4]
 1691 0448 74E6     		b	.L34
 1692              	.LVL129:
 1693              	.L125:
 1694              	.LBB296:
 530:Drivers/STM32F3xx_HAL_Driver/Src/stm32f3xx_hal_rcc.c ****     /* Check the LSE State */
 1695              		.loc 1 530 5 is_stmt 1 discriminator 1 view .LVU516
 1696 044a 504A     		ldr	r2, .L133
 1697 044c 136A     		ldr	r3, [r2, #32]
 1698 044e 43F00103 		orr	r3, r3, #1
 1699 0452 1362     		str	r3, [r2, #32]
 530:Drivers/STM32F3xx_HAL_Driver/Src/stm32f3xx_hal_rcc.c ****     /* Check the LSE State */
 1700              		.loc 1 530 5 discriminator 1 view .LVU517
 532:Drivers/STM32F3xx_HAL_Driver/Src/stm32f3xx_hal_rcc.c ****     {
 1701              		.loc 1 532 5 discriminator 1 view .LVU518
 1702              	.L58:
 535:Drivers/STM32F3xx_HAL_Driver/Src/stm32f3xx_hal_rcc.c ****       
 1703              		.loc 1 535 7 view .LVU519
 535:Drivers/STM32F3xx_HAL_Driver/Src/stm32f3xx_hal_rcc.c ****       
 1704              		.loc 1 535 19 is_stmt 0 view .LVU520
 1705 0454 FFF7FEFF 		bl	HAL_GetTick
 1706              	.LVL130:
 538:Drivers/STM32F3xx_HAL_Driver/Src/stm32f3xx_hal_rcc.c ****       {
 1707              		.loc 1 538 13 view .LVU521
 1708 0458 DFF83081 		ldr	r8, .L133
 535:Drivers/STM32F3xx_HAL_Driver/Src/stm32f3xx_hal_rcc.c ****       
 1709              		.loc 1 535 19 view .LVU522
 1710 045c 0646     		mov	r6, r0
 1711              	.LVL131:
 538:Drivers/STM32F3xx_HAL_Driver/Src/stm32f3xx_hal_rcc.c ****       {
 1712              		.loc 1 538 7 is_stmt 1 view .LVU523
 1713              	.LBB212:
 1714              	.LBB213:
 988:Drivers/CMSIS/Include/cmsis_gcc.h **** #else
ARM GAS  /var/folders/b1/22c950295gx2kqj80tvj8wqc0000gn/T//ccykJ5HB.s 			page 66


 1715              		.loc 2 988 4 is_stmt 0 view .LVU524
 1716 045e 4FF00209 		mov	r9, #2
 1717              	.LBE213:
 1718              	.LBE212:
 538:Drivers/STM32F3xx_HAL_Driver/Src/stm32f3xx_hal_rcc.c ****       {
 1719              		.loc 1 538 13 view .LVU525
 1720 0462 0127     		movs	r7, #1
 538:Drivers/STM32F3xx_HAL_Driver/Src/stm32f3xx_hal_rcc.c ****       {
 1721              		.loc 1 538 12 view .LVU526
 1722 0464 07E0     		b	.L63
 1723              	.LVL132:
 1724              	.L64:
 540:Drivers/STM32F3xx_HAL_Driver/Src/stm32f3xx_hal_rcc.c ****         {
 1725              		.loc 1 540 13 view .LVU527
 1726 0466 FFF7FEFF 		bl	HAL_GetTick
 1727              	.LVL133:
 540:Drivers/STM32F3xx_HAL_Driver/Src/stm32f3xx_hal_rcc.c ****         {
 1728              		.loc 1 540 11 view .LVU528
 1729 046a 41F28833 		movw	r3, #5000
 540:Drivers/STM32F3xx_HAL_Driver/Src/stm32f3xx_hal_rcc.c ****         {
 1730              		.loc 1 540 27 view .LVU529
 1731 046e 801B     		subs	r0, r0, r6
 540:Drivers/STM32F3xx_HAL_Driver/Src/stm32f3xx_hal_rcc.c ****         {
 1732              		.loc 1 540 11 view .LVU530
 1733 0470 9842     		cmp	r0, r3
 1734 0472 3FF66DAF 		bhi	.L32
 1735              	.L63:
 538:Drivers/STM32F3xx_HAL_Driver/Src/stm32f3xx_hal_rcc.c ****       {
 1736              		.loc 1 538 49 is_stmt 1 view .LVU531
 1737              	.LVL134:
 1738              	.LBB215:
 1739              	.LBI212:
 981:Drivers/CMSIS/Include/cmsis_gcc.h **** {
 1740              		.loc 2 981 31 view .LVU532
 1741              	.LBB214:
 983:Drivers/CMSIS/Include/cmsis_gcc.h **** 
 1742              		.loc 2 983 3 view .LVU533
 988:Drivers/CMSIS/Include/cmsis_gcc.h **** #else
 1743              		.loc 2 988 4 view .LVU534
 1744              		.syntax unified
 1745              	@ 988 "Drivers/CMSIS/Include/cmsis_gcc.h" 1
 1746 0476 99FAA9F3 		rbit r3, r9
 1747              	@ 0 "" 2
 1748              	.LVL135:
 1749              		.loc 2 1001 3 view .LVU535
 1750              		.loc 2 1001 3 is_stmt 0 view .LVU536
 1751              		.thumb
 1752              		.syntax unified
 1753              	.LBE214:
 1754              	.LBE215:
 1755              	.LBB216:
 1756              	.LBI216:
 981:Drivers/CMSIS/Include/cmsis_gcc.h **** {
 1757              		.loc 2 981 31 is_stmt 1 view .LVU537
 1758              	.LBB217:
 983:Drivers/CMSIS/Include/cmsis_gcc.h **** 
 1759              		.loc 2 983 3 view .LVU538
ARM GAS  /var/folders/b1/22c950295gx2kqj80tvj8wqc0000gn/T//ccykJ5HB.s 			page 67


 988:Drivers/CMSIS/Include/cmsis_gcc.h **** #else
 1760              		.loc 2 988 4 view .LVU539
 1761              		.syntax unified
 1762              	@ 988 "Drivers/CMSIS/Include/cmsis_gcc.h" 1
 1763 047a 99FAA9F3 		rbit r3, r9
 1764              	@ 0 "" 2
 1765              	.LVL136:
 1766              		.loc 2 1001 3 view .LVU540
 1767              		.loc 2 1001 3 is_stmt 0 view .LVU541
 1768              		.thumb
 1769              		.syntax unified
 1770              	.LBE217:
 1771              	.LBE216:
 538:Drivers/STM32F3xx_HAL_Driver/Src/stm32f3xx_hal_rcc.c ****       {
 1772              		.loc 1 538 13 view .LVU542
 1773 047e D8F82020 		ldr	r2, [r8, #32]
 1774              	.LVL137:
 1775              	.LBB218:
 1776              	.LBI218:
 981:Drivers/CMSIS/Include/cmsis_gcc.h **** {
 1777              		.loc 2 981 31 is_stmt 1 view .LVU543
 1778              	.LBB219:
 983:Drivers/CMSIS/Include/cmsis_gcc.h **** 
 1779              		.loc 2 983 3 view .LVU544
 988:Drivers/CMSIS/Include/cmsis_gcc.h **** #else
 1780              		.loc 2 988 4 view .LVU545
 1781              		.syntax unified
 1782              	@ 988 "Drivers/CMSIS/Include/cmsis_gcc.h" 1
 1783 0482 99FAA9F3 		rbit r3, r9
 1784              	@ 0 "" 2
 1785              		.thumb
 1786              		.syntax unified
 1787              	.LBE219:
 1788              	.LBE218:
 540:Drivers/STM32F3xx_HAL_Driver/Src/stm32f3xx_hal_rcc.c ****         {
 1789              		.loc 1 540 9 view .LVU546
 1790              	.LVL138:
 1791              	.LBB221:
 1792              	.LBB220:
 1793              		.loc 2 1001 3 view .LVU547
 1794              		.loc 2 1001 3 is_stmt 0 view .LVU548
 1795              	.LBE220:
 1796              	.LBE221:
 538:Drivers/STM32F3xx_HAL_Driver/Src/stm32f3xx_hal_rcc.c ****       {
 1797              		.loc 1 538 13 view .LVU549
 1798 0486 B3FA83F3 		clz	r3, r3
 1799 048a 07FA03F3 		lsl	r3, r7, r3
 538:Drivers/STM32F3xx_HAL_Driver/Src/stm32f3xx_hal_rcc.c ****       {
 1800              		.loc 1 538 49 view .LVU550
 1801 048e 1342     		tst	r3, r2
 1802 0490 E9D0     		beq	.L64
 562:Drivers/STM32F3xx_HAL_Driver/Src/stm32f3xx_hal_rcc.c ****     {
 1803              		.loc 1 562 5 is_stmt 1 view .LVU551
 562:Drivers/STM32F3xx_HAL_Driver/Src/stm32f3xx_hal_rcc.c ****     {
 1804              		.loc 1 562 7 is_stmt 0 view .LVU552
 1805 0492 002D     		cmp	r5, #0
 1806 0494 3FF49DAE 		beq	.L50
ARM GAS  /var/folders/b1/22c950295gx2kqj80tvj8wqc0000gn/T//ccykJ5HB.s 			page 68


 1807 0498 ADE7     		b	.L130
 1808              	.LVL139:
 1809              	.L70:
 562:Drivers/STM32F3xx_HAL_Driver/Src/stm32f3xx_hal_rcc.c ****     {
 1810              		.loc 1 562 7 view .LVU553
 1811              	.LBE296:
 646:Drivers/STM32F3xx_HAL_Driver/Src/stm32f3xx_hal_rcc.c ****       {
 1812              		.loc 1 646 7 is_stmt 1 view .LVU554
 646:Drivers/STM32F3xx_HAL_Driver/Src/stm32f3xx_hal_rcc.c ****       {
 1813              		.loc 1 646 9 is_stmt 0 view .LVU555
 1814 049a 0128     		cmp	r0, #1
 1815 049c 3FF4CBAE 		beq	.L110
 653:Drivers/STM32F3xx_HAL_Driver/Src/stm32f3xx_hal_rcc.c **** #if defined(RCC_CFGR_PLLSRC_HSI_PREDIV)
 1816              		.loc 1 653 9 is_stmt 1 view .LVU556
 653:Drivers/STM32F3xx_HAL_Driver/Src/stm32f3xx_hal_rcc.c **** #if defined(RCC_CFGR_PLLSRC_HSI_PREDIV)
 1817              		.loc 1 653 20 is_stmt 0 view .LVU557
 1818 04a0 6B68     		ldr	r3, [r5, #4]
 1819              	.LVL140:
 660:Drivers/STM32F3xx_HAL_Driver/Src/stm32f3xx_hal_rcc.c ****            (READ_BIT(pll_config, RCC_CFGR_PLLMUL)   != RCC_OscInitStruct->PLL.PLLMUL))
 1820              		.loc 1 660 9 is_stmt 1 view .LVU558
 660:Drivers/STM32F3xx_HAL_Driver/Src/stm32f3xx_hal_rcc.c ****            (READ_BIT(pll_config, RCC_CFGR_PLLMUL)   != RCC_OscInitStruct->PLL.PLLMUL))
 1821              		.loc 1 660 11 is_stmt 0 view .LVU559
 1822 04a2 226A     		ldr	r2, [r4, #32]
 660:Drivers/STM32F3xx_HAL_Driver/Src/stm32f3xx_hal_rcc.c ****            (READ_BIT(pll_config, RCC_CFGR_PLLMUL)   != RCC_OscInitStruct->PLL.PLLMUL))
 1823              		.loc 1 660 13 view .LVU560
 1824 04a4 03F48031 		and	r1, r3, #65536
 660:Drivers/STM32F3xx_HAL_Driver/Src/stm32f3xx_hal_rcc.c ****            (READ_BIT(pll_config, RCC_CFGR_PLLMUL)   != RCC_OscInitStruct->PLL.PLLMUL))
 1825              		.loc 1 660 11 view .LVU561
 1826 04a8 9142     		cmp	r1, r2
 1827 04aa 7FF4DCAE 		bne	.L81
 660:Drivers/STM32F3xx_HAL_Driver/Src/stm32f3xx_hal_rcc.c ****            (READ_BIT(pll_config, RCC_CFGR_PLLMUL)   != RCC_OscInitStruct->PLL.PLLMUL))
 1828              		.loc 1 660 90 discriminator 1 view .LVU562
 1829 04ae 606A     		ldr	r0, [r4, #36]
 661:Drivers/STM32F3xx_HAL_Driver/Src/stm32f3xx_hal_rcc.c **** #endif
 1830              		.loc 1 661 13 discriminator 1 view .LVU563
 1831 04b0 03F47013 		and	r3, r3, #3932160
 1832              	.LVL141:
 327:Drivers/STM32F3xx_HAL_Driver/Src/stm32f3xx_hal_rcc.c ****   }
 1833              		.loc 1 327 12 discriminator 1 view .LVU564
 1834 04b4 181A     		subs	r0, r3, r0
 1835 04b6 18BF     		it	ne
 1836 04b8 0120     		movne	r0, #1
 1837 04ba BCE6     		b	.L110
 1838              	.LVL142:
 1839              	.L121:
 351:Drivers/STM32F3xx_HAL_Driver/Src/stm32f3xx_hal_rcc.c ****       
 1840              		.loc 1 351 7 is_stmt 1 discriminator 7 view .LVU565
 1841 04bc 03F18043 		add	r3, r3, #1073741824
 1842 04c0 A3F53C33 		sub	r3, r3, #192512
 1843 04c4 1A68     		ldr	r2, [r3]
 1844 04c6 42F48022 		orr	r2, r2, #262144
 1845 04ca 1A60     		str	r2, [r3]
 351:Drivers/STM32F3xx_HAL_Driver/Src/stm32f3xx_hal_rcc.c ****       
 1846              		.loc 1 351 7 discriminator 7 view .LVU566
 1847 04cc 1A68     		ldr	r2, [r3]
 1848 04ce 42F48032 		orr	r2, r2, #65536
 1849 04d2 1A60     		str	r2, [r3]
ARM GAS  /var/folders/b1/22c950295gx2kqj80tvj8wqc0000gn/T//ccykJ5HB.s 			page 69


 1850 04d4 BFE5     		b	.L29
 1851              	.LVL143:
 1852              	.L127:
 1853              	.LBB297:
 530:Drivers/STM32F3xx_HAL_Driver/Src/stm32f3xx_hal_rcc.c ****     /* Check the LSE State */
 1854              		.loc 1 530 5 discriminator 7 view .LVU567
 1855 04d6 42F00402 		orr	r2, r2, #4
 1856 04da 1A62     		str	r2, [r3, #32]
 530:Drivers/STM32F3xx_HAL_Driver/Src/stm32f3xx_hal_rcc.c ****     /* Check the LSE State */
 1857              		.loc 1 530 5 discriminator 7 view .LVU568
 1858 04dc 1A6A     		ldr	r2, [r3, #32]
 1859 04de 42F00102 		orr	r2, r2, #1
 1860 04e2 1A62     		str	r2, [r3, #32]
 1861 04e4 B6E7     		b	.L58
 1862              	.LVL144:
 1863              	.L117:
 1864              	.LCFI9:
 1865              		.cfi_def_cfa_offset 0
 1866              		.cfi_restore 4
 1867              		.cfi_restore 5
 1868              		.cfi_restore 6
 1869              		.cfi_restore 7
 1870              		.cfi_restore 8
 1871              		.cfi_restore 9
 1872              		.cfi_restore 14
 530:Drivers/STM32F3xx_HAL_Driver/Src/stm32f3xx_hal_rcc.c ****     /* Check the LSE State */
 1873              		.loc 1 530 5 is_stmt 0 discriminator 7 view .LVU569
 1874              	.LBE297:
 327:Drivers/STM32F3xx_HAL_Driver/Src/stm32f3xx_hal_rcc.c ****   }
 1875              		.loc 1 327 12 view .LVU570
 1876 04e6 0120     		movs	r0, #1
 1877              	.LVL145:
 1878              		.loc 1 671 1 view .LVU571
 1879 04e8 7047     		bx	lr
 1880              	.LVL146:
 1881              	.L129:
 1882              	.LCFI10:
 1883              		.cfi_def_cfa_offset 40
 1884              		.cfi_offset 4, -28
 1885              		.cfi_offset 5, -24
 1886              		.cfi_offset 6, -20
 1887              		.cfi_offset 7, -16
 1888              		.cfi_offset 8, -12
 1889              		.cfi_offset 9, -8
 1890              		.cfi_offset 14, -4
 579:Drivers/STM32F3xx_HAL_Driver/Src/stm32f3xx_hal_rcc.c ****         assert_param(IS_RCC_PLL_MUL(RCC_OscInitStruct->PLL.PLLMUL));
 1891              		.loc 1 579 9 is_stmt 1 view .LVU572
 580:Drivers/STM32F3xx_HAL_Driver/Src/stm32f3xx_hal_rcc.c **** #if   defined(RCC_CFGR_PLLSRC_HSI_PREDIV)
 1892              		.loc 1 580 9 view .LVU573
 586:Drivers/STM32F3xx_HAL_Driver/Src/stm32f3xx_hal_rcc.c ****         
 1893              		.loc 1 586 9 view .LVU574
 1894              	.LBB298:
 1895              	.LBI236:
 981:Drivers/CMSIS/Include/cmsis_gcc.h **** {
 1896              		.loc 2 981 31 view .LVU575
 1897              	.LBB238:
 983:Drivers/CMSIS/Include/cmsis_gcc.h **** 
ARM GAS  /var/folders/b1/22c950295gx2kqj80tvj8wqc0000gn/T//ccykJ5HB.s 			page 70


 1898              		.loc 2 983 3 view .LVU576
 988:Drivers/CMSIS/Include/cmsis_gcc.h **** #else
 1899              		.loc 2 988 4 view .LVU577
 1900              		.syntax unified
 1901              	@ 988 "Drivers/CMSIS/Include/cmsis_gcc.h" 1
 1902 04ea 93FAA3F3 		rbit r3, r3
 1903              	@ 0 "" 2
 1904              	.LVL147:
 1905              		.loc 2 1001 3 view .LVU578
 1906              		.loc 2 1001 3 is_stmt 0 view .LVU579
 1907              		.thumb
 1908              		.syntax unified
 1909              	.LBE238:
 1910              	.LBE298:
 586:Drivers/STM32F3xx_HAL_Driver/Src/stm32f3xx_hal_rcc.c ****         
 1911              		.loc 1 586 9 view .LVU580
 1912 04ee B3FA83F3 		clz	r3, r3
 1913 04f2 03F18453 		add	r3, r3, #276824064
 1914 04f6 03F58413 		add	r3, r3, #1081344
 1915 04fa 9B00     		lsls	r3, r3, #2
 1916 04fc 0022     		movs	r2, #0
 1917 04fe 1A60     		str	r2, [r3]
 589:Drivers/STM32F3xx_HAL_Driver/Src/stm32f3xx_hal_rcc.c ****         
 1918              		.loc 1 589 9 is_stmt 1 view .LVU581
 589:Drivers/STM32F3xx_HAL_Driver/Src/stm32f3xx_hal_rcc.c ****         
 1919              		.loc 1 589 21 is_stmt 0 view .LVU582
 1920 0500 FFF7FEFF 		bl	HAL_GetTick
 1921              	.LVL148:
 1922              	.LBB299:
 1923              	.LBB300:
 988:Drivers/CMSIS/Include/cmsis_gcc.h **** #else
 1924              		.loc 2 988 4 view .LVU583
 1925 0504 4FF00078 		mov	r8, #33554432
 1926              	.LBE300:
 1927              	.LBE299:
 589:Drivers/STM32F3xx_HAL_Driver/Src/stm32f3xx_hal_rcc.c ****         
 1928              		.loc 1 589 21 view .LVU584
 1929 0508 0646     		mov	r6, r0
 1930              	.LVL149:
 592:Drivers/STM32F3xx_HAL_Driver/Src/stm32f3xx_hal_rcc.c ****         {
 1931              		.loc 1 592 9 is_stmt 1 view .LVU585
 592:Drivers/STM32F3xx_HAL_Driver/Src/stm32f3xx_hal_rcc.c ****         {
 1932              		.loc 1 592 15 is_stmt 0 view .LVU586
 1933 050a 0127     		movs	r7, #1
 592:Drivers/STM32F3xx_HAL_Driver/Src/stm32f3xx_hal_rcc.c ****         {
 1934              		.loc 1 592 14 view .LVU587
 1935 050c 05E0     		b	.L72
 1936              	.LVL150:
 1937              	.L73:
 594:Drivers/STM32F3xx_HAL_Driver/Src/stm32f3xx_hal_rcc.c ****           {
 1938              		.loc 1 594 15 view .LVU588
 1939 050e FFF7FEFF 		bl	HAL_GetTick
 1940              	.LVL151:
 594:Drivers/STM32F3xx_HAL_Driver/Src/stm32f3xx_hal_rcc.c ****           {
 1941              		.loc 1 594 29 view .LVU589
 1942 0512 801B     		subs	r0, r0, r6
 594:Drivers/STM32F3xx_HAL_Driver/Src/stm32f3xx_hal_rcc.c ****           {
ARM GAS  /var/folders/b1/22c950295gx2kqj80tvj8wqc0000gn/T//ccykJ5HB.s 			page 71


 1943              		.loc 1 594 13 view .LVU590
 1944 0514 0228     		cmp	r0, #2
 1945 0516 3FF61BAF 		bhi	.L32
 1946              	.L72:
 592:Drivers/STM32F3xx_HAL_Driver/Src/stm32f3xx_hal_rcc.c ****         {
 1947              		.loc 1 592 52 is_stmt 1 view .LVU591
 1948              	.LVL152:
 1949              	.LBB302:
 1950              	.LBI299:
 981:Drivers/CMSIS/Include/cmsis_gcc.h **** {
 1951              		.loc 2 981 31 view .LVU592
 1952              	.LBB301:
 983:Drivers/CMSIS/Include/cmsis_gcc.h **** 
 1953              		.loc 2 983 3 view .LVU593
 988:Drivers/CMSIS/Include/cmsis_gcc.h **** #else
 1954              		.loc 2 988 4 view .LVU594
 1955              		.syntax unified
 1956              	@ 988 "Drivers/CMSIS/Include/cmsis_gcc.h" 1
 1957 051a 98FAA8F3 		rbit r3, r8
 1958              	@ 0 "" 2
 1959              	.LVL153:
 1960              		.loc 2 1001 3 view .LVU595
 1961              		.loc 2 1001 3 is_stmt 0 view .LVU596
 1962              		.thumb
 1963              		.syntax unified
 1964              	.LBE301:
 1965              	.LBE302:
 592:Drivers/STM32F3xx_HAL_Driver/Src/stm32f3xx_hal_rcc.c ****         {
 1966              		.loc 1 592 15 view .LVU597
 1967 051e 2A68     		ldr	r2, [r5]
 1968              	.LVL154:
 1969              	.LBB303:
 1970              	.LBI303:
 981:Drivers/CMSIS/Include/cmsis_gcc.h **** {
 1971              		.loc 2 981 31 is_stmt 1 view .LVU598
 1972              	.LBB304:
 983:Drivers/CMSIS/Include/cmsis_gcc.h **** 
 1973              		.loc 2 983 3 view .LVU599
 988:Drivers/CMSIS/Include/cmsis_gcc.h **** #else
 1974              		.loc 2 988 4 view .LVU600
 1975              		.syntax unified
 1976              	@ 988 "Drivers/CMSIS/Include/cmsis_gcc.h" 1
 1977 0520 98FAA8F3 		rbit r3, r8
 1978              	@ 0 "" 2
 1979              		.thumb
 1980              		.syntax unified
 1981              	.LBE304:
 1982              	.LBE303:
 594:Drivers/STM32F3xx_HAL_Driver/Src/stm32f3xx_hal_rcc.c ****           {
 1983              		.loc 1 594 11 view .LVU601
 1984              	.LVL155:
 1985              	.LBB306:
 1986              	.LBB305:
 1987              		.loc 2 1001 3 view .LVU602
 1988              		.loc 2 1001 3 is_stmt 0 view .LVU603
 1989              	.LBE305:
 1990              	.LBE306:
ARM GAS  /var/folders/b1/22c950295gx2kqj80tvj8wqc0000gn/T//ccykJ5HB.s 			page 72


 592:Drivers/STM32F3xx_HAL_Driver/Src/stm32f3xx_hal_rcc.c ****         {
 1991              		.loc 1 592 15 view .LVU604
 1992 0524 B3FA83F3 		clz	r3, r3
 1993 0528 07FA03F3 		lsl	r3, r7, r3
 592:Drivers/STM32F3xx_HAL_Driver/Src/stm32f3xx_hal_rcc.c ****         {
 1994              		.loc 1 592 52 view .LVU605
 1995 052c 1342     		tst	r3, r2
 1996 052e EED1     		bne	.L73
 607:Drivers/STM32F3xx_HAL_Driver/Src/stm32f3xx_hal_rcc.c ****                            RCC_OscInitStruct->PLL.PLLMUL);
 1997              		.loc 1 607 7 is_stmt 1 view .LVU606
 1998 0530 D4E90813 		ldrd	r1, r3, [r4, #32]
 1999 0534 6A68     		ldr	r2, [r5, #4]
 2000 0536 0B43     		orrs	r3, r3, r1
 2001 0538 22F47412 		bic	r2, r2, #3997696
 2002 053c 1343     		orrs	r3, r3, r2
 2003 053e 6B60     		str	r3, [r5, #4]
 611:Drivers/STM32F3xx_HAL_Driver/Src/stm32f3xx_hal_rcc.c ****         
