ARM GAS  /var/folders/b1/22c950295gx2kqj80tvj8wqc0000gn/T//ccYsOlQx.s 			page 1


   1              		.cpu cortex-m4
   2              		.arch armv7e-m
   3              		.fpu fpv4-sp-d16
   4              		.eabi_attribute 27, 1
   5              		.eabi_attribute 28, 1
   6              		.eabi_attribute 20, 1
   7              		.eabi_attribute 21, 1
   8              		.eabi_attribute 23, 3
   9              		.eabi_attribute 24, 1
  10              		.eabi_attribute 25, 1
  11              		.eabi_attribute 26, 1
  12              		.eabi_attribute 30, 2
  13              		.eabi_attribute 34, 1
  14              		.eabi_attribute 18, 4
  15              		.file	"stm32f3xx_hal_rcc_ex.c"
  16              		.text
  17              	.Ltext0:
  18              		.cfi_sections	.debug_frame
  19              		.section	.text.HAL_RCCEx_PeriphCLKConfig,"ax",%progbits
  20              		.align	1
  21              		.p2align 2,,3
  22              		.global	HAL_RCCEx_PeriphCLKConfig
  23              		.syntax unified
  24              		.thumb
  25              		.thumb_func
  27              	HAL_RCCEx_PeriphCLKConfig:
  28              	.LVL0:
  29              	.LFB123:
  30              		.file 1 "Drivers/STM32F3xx_HAL_Driver/Src/stm32f3xx_hal_rcc_ex.c"
   1:Drivers/STM32F3xx_HAL_Driver/Src/stm32f3xx_hal_rcc_ex.c **** /**
   2:Drivers/STM32F3xx_HAL_Driver/Src/stm32f3xx_hal_rcc_ex.c ****   ******************************************************************************
   3:Drivers/STM32F3xx_HAL_Driver/Src/stm32f3xx_hal_rcc_ex.c ****   * @file    stm32f3xx_hal_rcc_ex.c
   4:Drivers/STM32F3xx_HAL_Driver/Src/stm32f3xx_hal_rcc_ex.c ****   * @author  MCD Application Team
   5:Drivers/STM32F3xx_HAL_Driver/Src/stm32f3xx_hal_rcc_ex.c ****   * @brief   Extended RCC HAL module driver.
   6:Drivers/STM32F3xx_HAL_Driver/Src/stm32f3xx_hal_rcc_ex.c ****   *          This file provides firmware functions to manage the following 
   7:Drivers/STM32F3xx_HAL_Driver/Src/stm32f3xx_hal_rcc_ex.c ****   *          functionalities RCC extension peripheral:
   8:Drivers/STM32F3xx_HAL_Driver/Src/stm32f3xx_hal_rcc_ex.c ****   *           + Extended Peripheral Control functions
   9:Drivers/STM32F3xx_HAL_Driver/Src/stm32f3xx_hal_rcc_ex.c ****   *  
  10:Drivers/STM32F3xx_HAL_Driver/Src/stm32f3xx_hal_rcc_ex.c ****   ******************************************************************************
  11:Drivers/STM32F3xx_HAL_Driver/Src/stm32f3xx_hal_rcc_ex.c ****   * @attention
  12:Drivers/STM32F3xx_HAL_Driver/Src/stm32f3xx_hal_rcc_ex.c ****   *
  13:Drivers/STM32F3xx_HAL_Driver/Src/stm32f3xx_hal_rcc_ex.c ****   * <h2><center>&copy; Copyright (c) 2016 STMicroelectronics.
  14:Drivers/STM32F3xx_HAL_Driver/Src/stm32f3xx_hal_rcc_ex.c ****   * All rights reserved.</center></h2>
  15:Drivers/STM32F3xx_HAL_Driver/Src/stm32f3xx_hal_rcc_ex.c ****   *
  16:Drivers/STM32F3xx_HAL_Driver/Src/stm32f3xx_hal_rcc_ex.c ****   * This software component is licensed by ST under BSD 3-Clause license,
  17:Drivers/STM32F3xx_HAL_Driver/Src/stm32f3xx_hal_rcc_ex.c ****   * the "License"; You may not use this file except in compliance with the
  18:Drivers/STM32F3xx_HAL_Driver/Src/stm32f3xx_hal_rcc_ex.c ****   * License. You may obtain a copy of the License at:
  19:Drivers/STM32F3xx_HAL_Driver/Src/stm32f3xx_hal_rcc_ex.c ****   *                        opensource.org/licenses/BSD-3-Clause
  20:Drivers/STM32F3xx_HAL_Driver/Src/stm32f3xx_hal_rcc_ex.c ****   *
  21:Drivers/STM32F3xx_HAL_Driver/Src/stm32f3xx_hal_rcc_ex.c ****   ******************************************************************************
  22:Drivers/STM32F3xx_HAL_Driver/Src/stm32f3xx_hal_rcc_ex.c ****   */ 
  23:Drivers/STM32F3xx_HAL_Driver/Src/stm32f3xx_hal_rcc_ex.c **** 
  24:Drivers/STM32F3xx_HAL_Driver/Src/stm32f3xx_hal_rcc_ex.c **** /* Includes ------------------------------------------------------------------*/
  25:Drivers/STM32F3xx_HAL_Driver/Src/stm32f3xx_hal_rcc_ex.c **** #include "stm32f3xx_hal.h"
  26:Drivers/STM32F3xx_HAL_Driver/Src/stm32f3xx_hal_rcc_ex.c **** 
  27:Drivers/STM32F3xx_HAL_Driver/Src/stm32f3xx_hal_rcc_ex.c **** /** @addtogroup STM32F3xx_HAL_Driver
  28:Drivers/STM32F3xx_HAL_Driver/Src/stm32f3xx_hal_rcc_ex.c ****   * @{
ARM GAS  /var/folders/b1/22c950295gx2kqj80tvj8wqc0000gn/T//ccYsOlQx.s 			page 2


  29:Drivers/STM32F3xx_HAL_Driver/Src/stm32f3xx_hal_rcc_ex.c ****   */
  30:Drivers/STM32F3xx_HAL_Driver/Src/stm32f3xx_hal_rcc_ex.c **** 
  31:Drivers/STM32F3xx_HAL_Driver/Src/stm32f3xx_hal_rcc_ex.c **** #ifdef HAL_RCC_MODULE_ENABLED
  32:Drivers/STM32F3xx_HAL_Driver/Src/stm32f3xx_hal_rcc_ex.c **** 
  33:Drivers/STM32F3xx_HAL_Driver/Src/stm32f3xx_hal_rcc_ex.c **** /** @defgroup RCCEx RCCEx
  34:Drivers/STM32F3xx_HAL_Driver/Src/stm32f3xx_hal_rcc_ex.c ****   * @brief RCC Extension HAL module driver.
  35:Drivers/STM32F3xx_HAL_Driver/Src/stm32f3xx_hal_rcc_ex.c ****   * @{
  36:Drivers/STM32F3xx_HAL_Driver/Src/stm32f3xx_hal_rcc_ex.c ****   */
  37:Drivers/STM32F3xx_HAL_Driver/Src/stm32f3xx_hal_rcc_ex.c **** 
  38:Drivers/STM32F3xx_HAL_Driver/Src/stm32f3xx_hal_rcc_ex.c **** /* Private typedef -----------------------------------------------------------*/
  39:Drivers/STM32F3xx_HAL_Driver/Src/stm32f3xx_hal_rcc_ex.c **** /* Private define ------------------------------------------------------------*/
  40:Drivers/STM32F3xx_HAL_Driver/Src/stm32f3xx_hal_rcc_ex.c **** /* Private macro -------------------------------------------------------------*/
  41:Drivers/STM32F3xx_HAL_Driver/Src/stm32f3xx_hal_rcc_ex.c **** /** @defgroup RCCEx_Private_Macros RCCEx Private Macros
  42:Drivers/STM32F3xx_HAL_Driver/Src/stm32f3xx_hal_rcc_ex.c ****  * @{
  43:Drivers/STM32F3xx_HAL_Driver/Src/stm32f3xx_hal_rcc_ex.c ****  */
  44:Drivers/STM32F3xx_HAL_Driver/Src/stm32f3xx_hal_rcc_ex.c **** /**
  45:Drivers/STM32F3xx_HAL_Driver/Src/stm32f3xx_hal_rcc_ex.c ****   * @}
  46:Drivers/STM32F3xx_HAL_Driver/Src/stm32f3xx_hal_rcc_ex.c ****   */
  47:Drivers/STM32F3xx_HAL_Driver/Src/stm32f3xx_hal_rcc_ex.c **** 
  48:Drivers/STM32F3xx_HAL_Driver/Src/stm32f3xx_hal_rcc_ex.c **** /* Private variables ---------------------------------------------------------*/
  49:Drivers/STM32F3xx_HAL_Driver/Src/stm32f3xx_hal_rcc_ex.c **** /* Private function prototypes -----------------------------------------------*/
  50:Drivers/STM32F3xx_HAL_Driver/Src/stm32f3xx_hal_rcc_ex.c **** /* Private functions ---------------------------------------------------------*/
  51:Drivers/STM32F3xx_HAL_Driver/Src/stm32f3xx_hal_rcc_ex.c **** #if defined(RCC_CFGR2_ADC1PRES) || defined(RCC_CFGR2_ADCPRE12) || defined(RCC_CFGR2_ADCPRE34) || de
  52:Drivers/STM32F3xx_HAL_Driver/Src/stm32f3xx_hal_rcc_ex.c ****  || defined(RCC_CFGR3_TIM1SW) || defined(RCC_CFGR3_TIM2SW) || defined(RCC_CFGR3_TIM8SW) || defined(
  53:Drivers/STM32F3xx_HAL_Driver/Src/stm32f3xx_hal_rcc_ex.c ****  || defined(RCC_CFGR3_TIM16SW) || defined(RCC_CFGR3_TIM17SW) || defined(RCC_CFGR3_TIM20SW) || defin
  54:Drivers/STM32F3xx_HAL_Driver/Src/stm32f3xx_hal_rcc_ex.c ****  || defined(RCC_CFGR3_HRTIM1SW)
  55:Drivers/STM32F3xx_HAL_Driver/Src/stm32f3xx_hal_rcc_ex.c **** /** @defgroup RCCEx_Private_Functions RCCEx Private Functions
  56:Drivers/STM32F3xx_HAL_Driver/Src/stm32f3xx_hal_rcc_ex.c ****   * @{
  57:Drivers/STM32F3xx_HAL_Driver/Src/stm32f3xx_hal_rcc_ex.c ****   */
  58:Drivers/STM32F3xx_HAL_Driver/Src/stm32f3xx_hal_rcc_ex.c **** static uint32_t RCC_GetPLLCLKFreq(void);
  59:Drivers/STM32F3xx_HAL_Driver/Src/stm32f3xx_hal_rcc_ex.c **** 
  60:Drivers/STM32F3xx_HAL_Driver/Src/stm32f3xx_hal_rcc_ex.c **** /**
  61:Drivers/STM32F3xx_HAL_Driver/Src/stm32f3xx_hal_rcc_ex.c ****   * @}
  62:Drivers/STM32F3xx_HAL_Driver/Src/stm32f3xx_hal_rcc_ex.c ****   */
  63:Drivers/STM32F3xx_HAL_Driver/Src/stm32f3xx_hal_rcc_ex.c **** #endif /* RCC_CFGR2_ADC1PRES || RCC_CFGR2_ADCPRExx || RCC_CFGR3_TIMxSW || RCC_CFGR3_HRTIM1SW || RCC
  64:Drivers/STM32F3xx_HAL_Driver/Src/stm32f3xx_hal_rcc_ex.c **** 
  65:Drivers/STM32F3xx_HAL_Driver/Src/stm32f3xx_hal_rcc_ex.c **** /** @defgroup RCCEx_Exported_Functions RCCEx Exported Functions
  66:Drivers/STM32F3xx_HAL_Driver/Src/stm32f3xx_hal_rcc_ex.c ****   * @{
  67:Drivers/STM32F3xx_HAL_Driver/Src/stm32f3xx_hal_rcc_ex.c ****   */
  68:Drivers/STM32F3xx_HAL_Driver/Src/stm32f3xx_hal_rcc_ex.c **** 
  69:Drivers/STM32F3xx_HAL_Driver/Src/stm32f3xx_hal_rcc_ex.c **** /** @defgroup RCCEx_Exported_Functions_Group1 Extended Peripheral Control functions 
  70:Drivers/STM32F3xx_HAL_Driver/Src/stm32f3xx_hal_rcc_ex.c ****   * @brief    Extended Peripheral Control functions
  71:Drivers/STM32F3xx_HAL_Driver/Src/stm32f3xx_hal_rcc_ex.c ****   *
  72:Drivers/STM32F3xx_HAL_Driver/Src/stm32f3xx_hal_rcc_ex.c **** @verbatim   
  73:Drivers/STM32F3xx_HAL_Driver/Src/stm32f3xx_hal_rcc_ex.c ****  ===============================================================================
  74:Drivers/STM32F3xx_HAL_Driver/Src/stm32f3xx_hal_rcc_ex.c ****                 ##### Extended Peripheral Control functions  #####
  75:Drivers/STM32F3xx_HAL_Driver/Src/stm32f3xx_hal_rcc_ex.c ****  ===============================================================================  
  76:Drivers/STM32F3xx_HAL_Driver/Src/stm32f3xx_hal_rcc_ex.c ****     [..]
  77:Drivers/STM32F3xx_HAL_Driver/Src/stm32f3xx_hal_rcc_ex.c ****     This subsection provides a set of functions allowing to control the RCC Clocks 
  78:Drivers/STM32F3xx_HAL_Driver/Src/stm32f3xx_hal_rcc_ex.c ****     frequencies.
  79:Drivers/STM32F3xx_HAL_Driver/Src/stm32f3xx_hal_rcc_ex.c ****     [..] 
  80:Drivers/STM32F3xx_HAL_Driver/Src/stm32f3xx_hal_rcc_ex.c ****     (@) Important note: Care must be taken when HAL_RCCEx_PeriphCLKConfig() is used to
  81:Drivers/STM32F3xx_HAL_Driver/Src/stm32f3xx_hal_rcc_ex.c ****         select the RTC clock source; in this case the Backup domain will be reset in  
  82:Drivers/STM32F3xx_HAL_Driver/Src/stm32f3xx_hal_rcc_ex.c ****         order to modify the RTC Clock source, as consequence RTC registers (including 
  83:Drivers/STM32F3xx_HAL_Driver/Src/stm32f3xx_hal_rcc_ex.c ****         the backup registers) are set to their reset values.
  84:Drivers/STM32F3xx_HAL_Driver/Src/stm32f3xx_hal_rcc_ex.c ****       
  85:Drivers/STM32F3xx_HAL_Driver/Src/stm32f3xx_hal_rcc_ex.c **** @endverbatim
ARM GAS  /var/folders/b1/22c950295gx2kqj80tvj8wqc0000gn/T//ccYsOlQx.s 			page 3


  86:Drivers/STM32F3xx_HAL_Driver/Src/stm32f3xx_hal_rcc_ex.c ****   * @{
  87:Drivers/STM32F3xx_HAL_Driver/Src/stm32f3xx_hal_rcc_ex.c ****   */
  88:Drivers/STM32F3xx_HAL_Driver/Src/stm32f3xx_hal_rcc_ex.c **** 
  89:Drivers/STM32F3xx_HAL_Driver/Src/stm32f3xx_hal_rcc_ex.c **** /**
  90:Drivers/STM32F3xx_HAL_Driver/Src/stm32f3xx_hal_rcc_ex.c ****   * @brief  Initializes the RCC extended peripherals clocks according to the specified
  91:Drivers/STM32F3xx_HAL_Driver/Src/stm32f3xx_hal_rcc_ex.c ****   *         parameters in the RCC_PeriphCLKInitTypeDef.
  92:Drivers/STM32F3xx_HAL_Driver/Src/stm32f3xx_hal_rcc_ex.c ****   * @param  PeriphClkInit pointer to an RCC_PeriphCLKInitTypeDef structure that
  93:Drivers/STM32F3xx_HAL_Driver/Src/stm32f3xx_hal_rcc_ex.c ****   *         contains the configuration information for the Extended Peripherals clocks
  94:Drivers/STM32F3xx_HAL_Driver/Src/stm32f3xx_hal_rcc_ex.c ****   *         (ADC, CEC, I2C, I2S, SDADC, HRTIM, TIM, USART, RTC and USB).
  95:Drivers/STM32F3xx_HAL_Driver/Src/stm32f3xx_hal_rcc_ex.c ****   *
  96:Drivers/STM32F3xx_HAL_Driver/Src/stm32f3xx_hal_rcc_ex.c ****   * @note   Care must be taken when HAL_RCCEx_PeriphCLKConfig() is used to select 
  97:Drivers/STM32F3xx_HAL_Driver/Src/stm32f3xx_hal_rcc_ex.c ****   *         the RTC clock source; in this case the Backup domain will be reset in  
  98:Drivers/STM32F3xx_HAL_Driver/Src/stm32f3xx_hal_rcc_ex.c ****   *         order to modify the RTC Clock source, as consequence RTC registers (including 
  99:Drivers/STM32F3xx_HAL_Driver/Src/stm32f3xx_hal_rcc_ex.c ****   *         the backup registers) and RCC_BDCR register are set to their reset values.
 100:Drivers/STM32F3xx_HAL_Driver/Src/stm32f3xx_hal_rcc_ex.c ****   *
 101:Drivers/STM32F3xx_HAL_Driver/Src/stm32f3xx_hal_rcc_ex.c ****   * @note   When the TIMx clock source is APB clock, so the TIMx clock is APB clock or 
 102:Drivers/STM32F3xx_HAL_Driver/Src/stm32f3xx_hal_rcc_ex.c ****   *         APB clock x 2 depending on the APB prescaler.
 103:Drivers/STM32F3xx_HAL_Driver/Src/stm32f3xx_hal_rcc_ex.c ****   *         When the TIMx clock source is PLL clock, so the TIMx clock is PLL clock x 2.
 104:Drivers/STM32F3xx_HAL_Driver/Src/stm32f3xx_hal_rcc_ex.c ****   *
 105:Drivers/STM32F3xx_HAL_Driver/Src/stm32f3xx_hal_rcc_ex.c ****   * @retval HAL status
 106:Drivers/STM32F3xx_HAL_Driver/Src/stm32f3xx_hal_rcc_ex.c ****   */
 107:Drivers/STM32F3xx_HAL_Driver/Src/stm32f3xx_hal_rcc_ex.c **** HAL_StatusTypeDef HAL_RCCEx_PeriphCLKConfig(RCC_PeriphCLKInitTypeDef  *PeriphClkInit)
 108:Drivers/STM32F3xx_HAL_Driver/Src/stm32f3xx_hal_rcc_ex.c **** {
  31              		.loc 1 108 1 view -0
  32              		.cfi_startproc
  33              		@ args = 0, pretend = 0, frame = 8
  34              		@ frame_needed = 0, uses_anonymous_args = 0
 109:Drivers/STM32F3xx_HAL_Driver/Src/stm32f3xx_hal_rcc_ex.c ****   uint32_t tickstart = 0U;
  35              		.loc 1 109 3 view .LVU1
 110:Drivers/STM32F3xx_HAL_Driver/Src/stm32f3xx_hal_rcc_ex.c ****   uint32_t temp_reg = 0U;
  36              		.loc 1 110 3 view .LVU2
 111:Drivers/STM32F3xx_HAL_Driver/Src/stm32f3xx_hal_rcc_ex.c ****   FlagStatus       pwrclkchanged = RESET;
  37              		.loc 1 111 3 view .LVU3
 112:Drivers/STM32F3xx_HAL_Driver/Src/stm32f3xx_hal_rcc_ex.c ****     
 113:Drivers/STM32F3xx_HAL_Driver/Src/stm32f3xx_hal_rcc_ex.c ****   /* Check the parameters */
 114:Drivers/STM32F3xx_HAL_Driver/Src/stm32f3xx_hal_rcc_ex.c ****   assert_param(IS_RCC_PERIPHCLOCK(PeriphClkInit->PeriphClockSelection));
  38              		.loc 1 114 3 view .LVU4
 115:Drivers/STM32F3xx_HAL_Driver/Src/stm32f3xx_hal_rcc_ex.c ****   
 116:Drivers/STM32F3xx_HAL_Driver/Src/stm32f3xx_hal_rcc_ex.c ****   /*---------------------------- RTC configuration -------------------------------*/
 117:Drivers/STM32F3xx_HAL_Driver/Src/stm32f3xx_hal_rcc_ex.c ****   if(((PeriphClkInit->PeriphClockSelection) & RCC_PERIPHCLK_RTC) == (RCC_PERIPHCLK_RTC))
  39              		.loc 1 117 3 view .LVU5
 108:Drivers/STM32F3xx_HAL_Driver/Src/stm32f3xx_hal_rcc_ex.c ****   uint32_t tickstart = 0U;
  40              		.loc 1 108 1 is_stmt 0 view .LVU6
  41 0000 2DE9F043 		push	{r4, r5, r6, r7, r8, r9, lr}
  42              	.LCFI0:
  43              		.cfi_def_cfa_offset 28
  44              		.cfi_offset 4, -28
  45              		.cfi_offset 5, -24
  46              		.cfi_offset 6, -20
  47              		.cfi_offset 7, -16
  48              		.cfi_offset 8, -12
  49              		.cfi_offset 9, -8
  50              		.cfi_offset 14, -4
  51              		.loc 1 117 21 view .LVU7
  52 0004 0368     		ldr	r3, [r0]
 108:Drivers/STM32F3xx_HAL_Driver/Src/stm32f3xx_hal_rcc_ex.c ****   uint32_t tickstart = 0U;
  53              		.loc 1 108 1 view .LVU8
ARM GAS  /var/folders/b1/22c950295gx2kqj80tvj8wqc0000gn/T//ccYsOlQx.s 			page 4


  54 0006 0446     		mov	r4, r0
  55              		.loc 1 117 5 view .LVU9
  56 0008 D803     		lsls	r0, r3, #15
  57              	.LVL1:
 108:Drivers/STM32F3xx_HAL_Driver/Src/stm32f3xx_hal_rcc_ex.c ****   uint32_t tickstart = 0U;
  58              		.loc 1 108 1 view .LVU10
  59 000a 83B0     		sub	sp, sp, #12
  60              	.LCFI1:
  61              		.cfi_def_cfa_offset 40
  62              		.loc 1 117 5 view .LVU11
  63 000c 3DD5     		bpl	.L2
 118:Drivers/STM32F3xx_HAL_Driver/Src/stm32f3xx_hal_rcc_ex.c ****   {
 119:Drivers/STM32F3xx_HAL_Driver/Src/stm32f3xx_hal_rcc_ex.c ****     /* check for RTC Parameters used to output RTCCLK */
 120:Drivers/STM32F3xx_HAL_Driver/Src/stm32f3xx_hal_rcc_ex.c ****     assert_param(IS_RCC_RTCCLKSOURCE(PeriphClkInit->RTCClockSelection));
  64              		.loc 1 120 5 is_stmt 1 view .LVU12
 121:Drivers/STM32F3xx_HAL_Driver/Src/stm32f3xx_hal_rcc_ex.c **** 
 122:Drivers/STM32F3xx_HAL_Driver/Src/stm32f3xx_hal_rcc_ex.c **** 
 123:Drivers/STM32F3xx_HAL_Driver/Src/stm32f3xx_hal_rcc_ex.c ****     /* As soon as function is called to change RTC clock source, activation of the 
 124:Drivers/STM32F3xx_HAL_Driver/Src/stm32f3xx_hal_rcc_ex.c ****        power domain is done. */
 125:Drivers/STM32F3xx_HAL_Driver/Src/stm32f3xx_hal_rcc_ex.c ****     /* Requires to enable write access to Backup Domain of necessary */
 126:Drivers/STM32F3xx_HAL_Driver/Src/stm32f3xx_hal_rcc_ex.c ****     if(__HAL_RCC_PWR_IS_CLK_DISABLED())
  65              		.loc 1 126 5 view .LVU13
  66              		.loc 1 126 8 is_stmt 0 view .LVU14
  67 000e 594B     		ldr	r3, .L46
  68 0010 DA69     		ldr	r2, [r3, #28]
  69              		.loc 1 126 7 view .LVU15
  70 0012 D100     		lsls	r1, r2, #3
  71 0014 6FD5     		bpl	.L44
 127:Drivers/STM32F3xx_HAL_Driver/Src/stm32f3xx_hal_rcc_ex.c ****     {
 128:Drivers/STM32F3xx_HAL_Driver/Src/stm32f3xx_hal_rcc_ex.c ****       __HAL_RCC_PWR_CLK_ENABLE();
 129:Drivers/STM32F3xx_HAL_Driver/Src/stm32f3xx_hal_rcc_ex.c ****       pwrclkchanged = SET;
 130:Drivers/STM32F3xx_HAL_Driver/Src/stm32f3xx_hal_rcc_ex.c ****     }
 131:Drivers/STM32F3xx_HAL_Driver/Src/stm32f3xx_hal_rcc_ex.c ****     
 132:Drivers/STM32F3xx_HAL_Driver/Src/stm32f3xx_hal_rcc_ex.c ****     if(HAL_IS_BIT_CLR(PWR->CR, PWR_CR_DBP))
  72              		.loc 1 132 8 view .LVU16
  73 0016 584D     		ldr	r5, .L46+4
  74 0018 2B68     		ldr	r3, [r5]
  75              		.loc 1 132 7 view .LVU17
  76 001a DA05     		lsls	r2, r3, #23
 111:Drivers/STM32F3xx_HAL_Driver/Src/stm32f3xx_hal_rcc_ex.c ****     
  77              		.loc 1 111 20 view .LVU18
  78 001c 4FF00006 		mov	r6, #0
  79              	.LVL2:
  80              		.loc 1 132 5 is_stmt 1 view .LVU19
  81              		.loc 1 132 7 is_stmt 0 view .LVU20
  82 0020 78D5     		bpl	.L4
  83              	.LVL3:
  84              	.L10:
 133:Drivers/STM32F3xx_HAL_Driver/Src/stm32f3xx_hal_rcc_ex.c ****     {
 134:Drivers/STM32F3xx_HAL_Driver/Src/stm32f3xx_hal_rcc_ex.c ****       /* Enable write access to Backup domain */
 135:Drivers/STM32F3xx_HAL_Driver/Src/stm32f3xx_hal_rcc_ex.c ****       SET_BIT(PWR->CR, PWR_CR_DBP);
 136:Drivers/STM32F3xx_HAL_Driver/Src/stm32f3xx_hal_rcc_ex.c ****       
 137:Drivers/STM32F3xx_HAL_Driver/Src/stm32f3xx_hal_rcc_ex.c ****       /* Wait for Backup domain Write protection disable */
 138:Drivers/STM32F3xx_HAL_Driver/Src/stm32f3xx_hal_rcc_ex.c ****       tickstart = HAL_GetTick();
 139:Drivers/STM32F3xx_HAL_Driver/Src/stm32f3xx_hal_rcc_ex.c ****       
 140:Drivers/STM32F3xx_HAL_Driver/Src/stm32f3xx_hal_rcc_ex.c ****       while(HAL_IS_BIT_CLR(PWR->CR, PWR_CR_DBP))
 141:Drivers/STM32F3xx_HAL_Driver/Src/stm32f3xx_hal_rcc_ex.c ****       {
ARM GAS  /var/folders/b1/22c950295gx2kqj80tvj8wqc0000gn/T//ccYsOlQx.s 			page 5


 142:Drivers/STM32F3xx_HAL_Driver/Src/stm32f3xx_hal_rcc_ex.c ****           if((HAL_GetTick() - tickstart) > RCC_DBP_TIMEOUT_VALUE)
 143:Drivers/STM32F3xx_HAL_Driver/Src/stm32f3xx_hal_rcc_ex.c ****         {
 144:Drivers/STM32F3xx_HAL_Driver/Src/stm32f3xx_hal_rcc_ex.c ****           return HAL_TIMEOUT;
 145:Drivers/STM32F3xx_HAL_Driver/Src/stm32f3xx_hal_rcc_ex.c ****         }
 146:Drivers/STM32F3xx_HAL_Driver/Src/stm32f3xx_hal_rcc_ex.c ****       }
 147:Drivers/STM32F3xx_HAL_Driver/Src/stm32f3xx_hal_rcc_ex.c ****     }
 148:Drivers/STM32F3xx_HAL_Driver/Src/stm32f3xx_hal_rcc_ex.c ****     
 149:Drivers/STM32F3xx_HAL_Driver/Src/stm32f3xx_hal_rcc_ex.c ****     /* Reset the Backup domain only if the RTC Clock source selection is modified from reset value 
 150:Drivers/STM32F3xx_HAL_Driver/Src/stm32f3xx_hal_rcc_ex.c ****     temp_reg = (RCC->BDCR & RCC_BDCR_RTCSEL);
  85              		.loc 1 150 5 is_stmt 1 view .LVU21
  86              		.loc 1 150 20 is_stmt 0 view .LVU22
  87 0022 DFF85081 		ldr	r8, .L46
  88 0026 D8F82030 		ldr	r3, [r8, #32]
  89              	.LVL4:
 151:Drivers/STM32F3xx_HAL_Driver/Src/stm32f3xx_hal_rcc_ex.c ****     if((temp_reg != 0x00000000U) && (temp_reg != (PeriphClkInit->RTCClockSelection & RCC_BDCR_RTCSE
  90              		.loc 1 151 5 is_stmt 1 view .LVU23
  91              		.loc 1 151 7 is_stmt 0 view .LVU24
  92 002a 13F44073 		ands	r3, r3, #768
  93              	.LVL5:
  94              		.loc 1 151 7 view .LVU25
  95 002e 1FD0     		beq	.L41
  96              		.loc 1 151 64 discriminator 1 view .LVU26
  97 0030 6168     		ldr	r1, [r4, #4]
  98              		.loc 1 151 84 discriminator 1 view .LVU27
  99 0032 01F44072 		and	r2, r1, #768
 100              		.loc 1 151 34 discriminator 1 view .LVU28
 101 0036 9A42     		cmp	r2, r3
 102 0038 1BD0     		beq	.L11
 152:Drivers/STM32F3xx_HAL_Driver/Src/stm32f3xx_hal_rcc_ex.c ****     {
 153:Drivers/STM32F3xx_HAL_Driver/Src/stm32f3xx_hal_rcc_ex.c ****       /* Store the content of BDCR register before the reset of Backup Domain */
 154:Drivers/STM32F3xx_HAL_Driver/Src/stm32f3xx_hal_rcc_ex.c ****       temp_reg = (RCC->BDCR & ~(RCC_BDCR_RTCSEL));
 103              		.loc 1 154 7 is_stmt 1 view .LVU29
 104              		.loc 1 154 22 is_stmt 0 view .LVU30
 105 003a D8F82010 		ldr	r1, [r8, #32]
 106              	.LBB17:
 107              	.LBB18:
 108              		.file 2 "Drivers/CMSIS/Include/cmsis_gcc.h"
   1:Drivers/CMSIS/Include/cmsis_gcc.h **** /**************************************************************************//**
   2:Drivers/CMSIS/Include/cmsis_gcc.h ****  * @file     cmsis_gcc.h
   3:Drivers/CMSIS/Include/cmsis_gcc.h ****  * @brief    CMSIS compiler GCC header file
   4:Drivers/CMSIS/Include/cmsis_gcc.h ****  * @version  V5.0.4
   5:Drivers/CMSIS/Include/cmsis_gcc.h ****  * @date     09. April 2018
   6:Drivers/CMSIS/Include/cmsis_gcc.h ****  ******************************************************************************/
   7:Drivers/CMSIS/Include/cmsis_gcc.h **** /*
   8:Drivers/CMSIS/Include/cmsis_gcc.h ****  * Copyright (c) 2009-2018 Arm Limited. All rights reserved.
   9:Drivers/CMSIS/Include/cmsis_gcc.h ****  *
  10:Drivers/CMSIS/Include/cmsis_gcc.h ****  * SPDX-License-Identifier: Apache-2.0
  11:Drivers/CMSIS/Include/cmsis_gcc.h ****  *
  12:Drivers/CMSIS/Include/cmsis_gcc.h ****  * Licensed under the Apache License, Version 2.0 (the License); you may
  13:Drivers/CMSIS/Include/cmsis_gcc.h ****  * not use this file except in compliance with the License.
  14:Drivers/CMSIS/Include/cmsis_gcc.h ****  * You may obtain a copy of the License at
  15:Drivers/CMSIS/Include/cmsis_gcc.h ****  *
  16:Drivers/CMSIS/Include/cmsis_gcc.h ****  * www.apache.org/licenses/LICENSE-2.0
  17:Drivers/CMSIS/Include/cmsis_gcc.h ****  *
  18:Drivers/CMSIS/Include/cmsis_gcc.h ****  * Unless required by applicable law or agreed to in writing, software
  19:Drivers/CMSIS/Include/cmsis_gcc.h ****  * distributed under the License is distributed on an AS IS BASIS, WITHOUT
  20:Drivers/CMSIS/Include/cmsis_gcc.h ****  * WARRANTIES OR CONDITIONS OF ANY KIND, either express or implied.
ARM GAS  /var/folders/b1/22c950295gx2kqj80tvj8wqc0000gn/T//ccYsOlQx.s 			page 6


  21:Drivers/CMSIS/Include/cmsis_gcc.h ****  * See the License for the specific language governing permissions and
  22:Drivers/CMSIS/Include/cmsis_gcc.h ****  * limitations under the License.
  23:Drivers/CMSIS/Include/cmsis_gcc.h ****  */
  24:Drivers/CMSIS/Include/cmsis_gcc.h **** 
  25:Drivers/CMSIS/Include/cmsis_gcc.h **** #ifndef __CMSIS_GCC_H
  26:Drivers/CMSIS/Include/cmsis_gcc.h **** #define __CMSIS_GCC_H
  27:Drivers/CMSIS/Include/cmsis_gcc.h **** 
  28:Drivers/CMSIS/Include/cmsis_gcc.h **** /* ignore some GCC warnings */
  29:Drivers/CMSIS/Include/cmsis_gcc.h **** #pragma GCC diagnostic push
  30:Drivers/CMSIS/Include/cmsis_gcc.h **** #pragma GCC diagnostic ignored "-Wsign-conversion"
  31:Drivers/CMSIS/Include/cmsis_gcc.h **** #pragma GCC diagnostic ignored "-Wconversion"
  32:Drivers/CMSIS/Include/cmsis_gcc.h **** #pragma GCC diagnostic ignored "-Wunused-parameter"
  33:Drivers/CMSIS/Include/cmsis_gcc.h **** 
  34:Drivers/CMSIS/Include/cmsis_gcc.h **** /* Fallback for __has_builtin */
  35:Drivers/CMSIS/Include/cmsis_gcc.h **** #ifndef __has_builtin
  36:Drivers/CMSIS/Include/cmsis_gcc.h ****   #define __has_builtin(x) (0)
  37:Drivers/CMSIS/Include/cmsis_gcc.h **** #endif
  38:Drivers/CMSIS/Include/cmsis_gcc.h **** 
  39:Drivers/CMSIS/Include/cmsis_gcc.h **** /* CMSIS compiler specific defines */
  40:Drivers/CMSIS/Include/cmsis_gcc.h **** #ifndef   __ASM
  41:Drivers/CMSIS/Include/cmsis_gcc.h ****   #define __ASM                                  __asm
  42:Drivers/CMSIS/Include/cmsis_gcc.h **** #endif
  43:Drivers/CMSIS/Include/cmsis_gcc.h **** #ifndef   __INLINE
  44:Drivers/CMSIS/Include/cmsis_gcc.h ****   #define __INLINE                               inline
  45:Drivers/CMSIS/Include/cmsis_gcc.h **** #endif
  46:Drivers/CMSIS/Include/cmsis_gcc.h **** #ifndef   __STATIC_INLINE
  47:Drivers/CMSIS/Include/cmsis_gcc.h ****   #define __STATIC_INLINE                        static inline
  48:Drivers/CMSIS/Include/cmsis_gcc.h **** #endif
  49:Drivers/CMSIS/Include/cmsis_gcc.h **** #ifndef   __STATIC_FORCEINLINE                 
  50:Drivers/CMSIS/Include/cmsis_gcc.h ****   #define __STATIC_FORCEINLINE                   __attribute__((always_inline)) static inline
  51:Drivers/CMSIS/Include/cmsis_gcc.h **** #endif                                           
  52:Drivers/CMSIS/Include/cmsis_gcc.h **** #ifndef   __NO_RETURN
  53:Drivers/CMSIS/Include/cmsis_gcc.h ****   #define __NO_RETURN                            __attribute__((__noreturn__))
  54:Drivers/CMSIS/Include/cmsis_gcc.h **** #endif
  55:Drivers/CMSIS/Include/cmsis_gcc.h **** #ifndef   __USED
  56:Drivers/CMSIS/Include/cmsis_gcc.h ****   #define __USED                                 __attribute__((used))
  57:Drivers/CMSIS/Include/cmsis_gcc.h **** #endif
  58:Drivers/CMSIS/Include/cmsis_gcc.h **** #ifndef   __WEAK
  59:Drivers/CMSIS/Include/cmsis_gcc.h ****   #define __WEAK                                 __attribute__((weak))
  60:Drivers/CMSIS/Include/cmsis_gcc.h **** #endif
  61:Drivers/CMSIS/Include/cmsis_gcc.h **** #ifndef   __PACKED
  62:Drivers/CMSIS/Include/cmsis_gcc.h ****   #define __PACKED                               __attribute__((packed, aligned(1)))
  63:Drivers/CMSIS/Include/cmsis_gcc.h **** #endif
  64:Drivers/CMSIS/Include/cmsis_gcc.h **** #ifndef   __PACKED_STRUCT
  65:Drivers/CMSIS/Include/cmsis_gcc.h ****   #define __PACKED_STRUCT                        struct __attribute__((packed, aligned(1)))
  66:Drivers/CMSIS/Include/cmsis_gcc.h **** #endif
  67:Drivers/CMSIS/Include/cmsis_gcc.h **** #ifndef   __PACKED_UNION
  68:Drivers/CMSIS/Include/cmsis_gcc.h ****   #define __PACKED_UNION                         union __attribute__((packed, aligned(1)))
  69:Drivers/CMSIS/Include/cmsis_gcc.h **** #endif
  70:Drivers/CMSIS/Include/cmsis_gcc.h **** #ifndef   __UNALIGNED_UINT32        /* deprecated */
  71:Drivers/CMSIS/Include/cmsis_gcc.h ****   #pragma GCC diagnostic push
  72:Drivers/CMSIS/Include/cmsis_gcc.h ****   #pragma GCC diagnostic ignored "-Wpacked"
  73:Drivers/CMSIS/Include/cmsis_gcc.h ****   #pragma GCC diagnostic ignored "-Wattributes"
  74:Drivers/CMSIS/Include/cmsis_gcc.h ****   struct __attribute__((packed)) T_UINT32 { uint32_t v; };
  75:Drivers/CMSIS/Include/cmsis_gcc.h ****   #pragma GCC diagnostic pop
  76:Drivers/CMSIS/Include/cmsis_gcc.h ****   #define __UNALIGNED_UINT32(x)                  (((struct T_UINT32 *)(x))->v)
  77:Drivers/CMSIS/Include/cmsis_gcc.h **** #endif
ARM GAS  /var/folders/b1/22c950295gx2kqj80tvj8wqc0000gn/T//ccYsOlQx.s 			page 7


  78:Drivers/CMSIS/Include/cmsis_gcc.h **** #ifndef   __UNALIGNED_UINT16_WRITE
  79:Drivers/CMSIS/Include/cmsis_gcc.h ****   #pragma GCC diagnostic push
  80:Drivers/CMSIS/Include/cmsis_gcc.h ****   #pragma GCC diagnostic ignored "-Wpacked"
  81:Drivers/CMSIS/Include/cmsis_gcc.h ****   #pragma GCC diagnostic ignored "-Wattributes"
  82:Drivers/CMSIS/Include/cmsis_gcc.h ****   __PACKED_STRUCT T_UINT16_WRITE { uint16_t v; };
  83:Drivers/CMSIS/Include/cmsis_gcc.h ****   #pragma GCC diagnostic pop
  84:Drivers/CMSIS/Include/cmsis_gcc.h ****   #define __UNALIGNED_UINT16_WRITE(addr, val)    (void)((((struct T_UINT16_WRITE *)(void *)(addr))-
  85:Drivers/CMSIS/Include/cmsis_gcc.h **** #endif
  86:Drivers/CMSIS/Include/cmsis_gcc.h **** #ifndef   __UNALIGNED_UINT16_READ
  87:Drivers/CMSIS/Include/cmsis_gcc.h ****   #pragma GCC diagnostic push
  88:Drivers/CMSIS/Include/cmsis_gcc.h ****   #pragma GCC diagnostic ignored "-Wpacked"
  89:Drivers/CMSIS/Include/cmsis_gcc.h ****   #pragma GCC diagnostic ignored "-Wattributes"
  90:Drivers/CMSIS/Include/cmsis_gcc.h ****   __PACKED_STRUCT T_UINT16_READ { uint16_t v; };
  91:Drivers/CMSIS/Include/cmsis_gcc.h ****   #pragma GCC diagnostic pop
  92:Drivers/CMSIS/Include/cmsis_gcc.h ****   #define __UNALIGNED_UINT16_READ(addr)          (((const struct T_UINT16_READ *)(const void *)(add
  93:Drivers/CMSIS/Include/cmsis_gcc.h **** #endif
  94:Drivers/CMSIS/Include/cmsis_gcc.h **** #ifndef   __UNALIGNED_UINT32_WRITE
  95:Drivers/CMSIS/Include/cmsis_gcc.h ****   #pragma GCC diagnostic push
  96:Drivers/CMSIS/Include/cmsis_gcc.h ****   #pragma GCC diagnostic ignored "-Wpacked"
  97:Drivers/CMSIS/Include/cmsis_gcc.h ****   #pragma GCC diagnostic ignored "-Wattributes"
  98:Drivers/CMSIS/Include/cmsis_gcc.h ****   __PACKED_STRUCT T_UINT32_WRITE { uint32_t v; };
  99:Drivers/CMSIS/Include/cmsis_gcc.h ****   #pragma GCC diagnostic pop
 100:Drivers/CMSIS/Include/cmsis_gcc.h ****   #define __UNALIGNED_UINT32_WRITE(addr, val)    (void)((((struct T_UINT32_WRITE *)(void *)(addr))-
 101:Drivers/CMSIS/Include/cmsis_gcc.h **** #endif
 102:Drivers/CMSIS/Include/cmsis_gcc.h **** #ifndef   __UNALIGNED_UINT32_READ
 103:Drivers/CMSIS/Include/cmsis_gcc.h ****   #pragma GCC diagnostic push
 104:Drivers/CMSIS/Include/cmsis_gcc.h ****   #pragma GCC diagnostic ignored "-Wpacked"
 105:Drivers/CMSIS/Include/cmsis_gcc.h ****   #pragma GCC diagnostic ignored "-Wattributes"
 106:Drivers/CMSIS/Include/cmsis_gcc.h ****   __PACKED_STRUCT T_UINT32_READ { uint32_t v; };
 107:Drivers/CMSIS/Include/cmsis_gcc.h ****   #pragma GCC diagnostic pop
 108:Drivers/CMSIS/Include/cmsis_gcc.h ****   #define __UNALIGNED_UINT32_READ(addr)          (((const struct T_UINT32_READ *)(const void *)(add
 109:Drivers/CMSIS/Include/cmsis_gcc.h **** #endif
 110:Drivers/CMSIS/Include/cmsis_gcc.h **** #ifndef   __ALIGNED
 111:Drivers/CMSIS/Include/cmsis_gcc.h ****   #define __ALIGNED(x)                           __attribute__((aligned(x)))
 112:Drivers/CMSIS/Include/cmsis_gcc.h **** #endif
 113:Drivers/CMSIS/Include/cmsis_gcc.h **** #ifndef   __RESTRICT
 114:Drivers/CMSIS/Include/cmsis_gcc.h ****   #define __RESTRICT                             __restrict
 115:Drivers/CMSIS/Include/cmsis_gcc.h **** #endif
 116:Drivers/CMSIS/Include/cmsis_gcc.h **** 
 117:Drivers/CMSIS/Include/cmsis_gcc.h **** 
 118:Drivers/CMSIS/Include/cmsis_gcc.h **** /* ###########################  Core Function Access  ########################### */
 119:Drivers/CMSIS/Include/cmsis_gcc.h **** /** \ingroup  CMSIS_Core_FunctionInterface
 120:Drivers/CMSIS/Include/cmsis_gcc.h ****     \defgroup CMSIS_Core_RegAccFunctions CMSIS Core Register Access Functions
 121:Drivers/CMSIS/Include/cmsis_gcc.h ****   @{
 122:Drivers/CMSIS/Include/cmsis_gcc.h ****  */
 123:Drivers/CMSIS/Include/cmsis_gcc.h **** 
 124:Drivers/CMSIS/Include/cmsis_gcc.h **** /**
 125:Drivers/CMSIS/Include/cmsis_gcc.h ****   \brief   Enable IRQ Interrupts
 126:Drivers/CMSIS/Include/cmsis_gcc.h ****   \details Enables IRQ interrupts by clearing the I-bit in the CPSR.
 127:Drivers/CMSIS/Include/cmsis_gcc.h ****            Can only be executed in Privileged modes.
 128:Drivers/CMSIS/Include/cmsis_gcc.h ****  */
 129:Drivers/CMSIS/Include/cmsis_gcc.h **** __STATIC_FORCEINLINE void __enable_irq(void)
 130:Drivers/CMSIS/Include/cmsis_gcc.h **** {
 131:Drivers/CMSIS/Include/cmsis_gcc.h ****   __ASM volatile ("cpsie i" : : : "memory");
 132:Drivers/CMSIS/Include/cmsis_gcc.h **** }
 133:Drivers/CMSIS/Include/cmsis_gcc.h **** 
 134:Drivers/CMSIS/Include/cmsis_gcc.h **** 
ARM GAS  /var/folders/b1/22c950295gx2kqj80tvj8wqc0000gn/T//ccYsOlQx.s 			page 8


 135:Drivers/CMSIS/Include/cmsis_gcc.h **** /**
 136:Drivers/CMSIS/Include/cmsis_gcc.h ****   \brief   Disable IRQ Interrupts
 137:Drivers/CMSIS/Include/cmsis_gcc.h ****   \details Disables IRQ interrupts by setting the I-bit in the CPSR.
 138:Drivers/CMSIS/Include/cmsis_gcc.h ****            Can only be executed in Privileged modes.
 139:Drivers/CMSIS/Include/cmsis_gcc.h ****  */
 140:Drivers/CMSIS/Include/cmsis_gcc.h **** __STATIC_FORCEINLINE void __disable_irq(void)
 141:Drivers/CMSIS/Include/cmsis_gcc.h **** {
 142:Drivers/CMSIS/Include/cmsis_gcc.h ****   __ASM volatile ("cpsid i" : : : "memory");
 143:Drivers/CMSIS/Include/cmsis_gcc.h **** }
 144:Drivers/CMSIS/Include/cmsis_gcc.h **** 
 145:Drivers/CMSIS/Include/cmsis_gcc.h **** 
 146:Drivers/CMSIS/Include/cmsis_gcc.h **** /**
 147:Drivers/CMSIS/Include/cmsis_gcc.h ****   \brief   Get Control Register
 148:Drivers/CMSIS/Include/cmsis_gcc.h ****   \details Returns the content of the Control Register.
 149:Drivers/CMSIS/Include/cmsis_gcc.h ****   \return               Control Register value
 150:Drivers/CMSIS/Include/cmsis_gcc.h ****  */
 151:Drivers/CMSIS/Include/cmsis_gcc.h **** __STATIC_FORCEINLINE uint32_t __get_CONTROL(void)
 152:Drivers/CMSIS/Include/cmsis_gcc.h **** {
 153:Drivers/CMSIS/Include/cmsis_gcc.h ****   uint32_t result;
 154:Drivers/CMSIS/Include/cmsis_gcc.h **** 
 155:Drivers/CMSIS/Include/cmsis_gcc.h ****   __ASM volatile ("MRS %0, control" : "=r" (result) );
 156:Drivers/CMSIS/Include/cmsis_gcc.h ****   return(result);
 157:Drivers/CMSIS/Include/cmsis_gcc.h **** }
 158:Drivers/CMSIS/Include/cmsis_gcc.h **** 
 159:Drivers/CMSIS/Include/cmsis_gcc.h **** 
 160:Drivers/CMSIS/Include/cmsis_gcc.h **** #if (defined (__ARM_FEATURE_CMSE ) && (__ARM_FEATURE_CMSE == 3))
 161:Drivers/CMSIS/Include/cmsis_gcc.h **** /**
 162:Drivers/CMSIS/Include/cmsis_gcc.h ****   \brief   Get Control Register (non-secure)
 163:Drivers/CMSIS/Include/cmsis_gcc.h ****   \details Returns the content of the non-secure Control Register when in secure mode.
 164:Drivers/CMSIS/Include/cmsis_gcc.h ****   \return               non-secure Control Register value
 165:Drivers/CMSIS/Include/cmsis_gcc.h ****  */
 166:Drivers/CMSIS/Include/cmsis_gcc.h **** __STATIC_FORCEINLINE uint32_t __TZ_get_CONTROL_NS(void)
 167:Drivers/CMSIS/Include/cmsis_gcc.h **** {
 168:Drivers/CMSIS/Include/cmsis_gcc.h ****   uint32_t result;
 169:Drivers/CMSIS/Include/cmsis_gcc.h **** 
 170:Drivers/CMSIS/Include/cmsis_gcc.h ****   __ASM volatile ("MRS %0, control_ns" : "=r" (result) );
 171:Drivers/CMSIS/Include/cmsis_gcc.h ****   return(result);
 172:Drivers/CMSIS/Include/cmsis_gcc.h **** }
 173:Drivers/CMSIS/Include/cmsis_gcc.h **** #endif
 174:Drivers/CMSIS/Include/cmsis_gcc.h **** 
 175:Drivers/CMSIS/Include/cmsis_gcc.h **** 
 176:Drivers/CMSIS/Include/cmsis_gcc.h **** /**
 177:Drivers/CMSIS/Include/cmsis_gcc.h ****   \brief   Set Control Register
 178:Drivers/CMSIS/Include/cmsis_gcc.h ****   \details Writes the given value to the Control Register.
 179:Drivers/CMSIS/Include/cmsis_gcc.h ****   \param [in]    control  Control Register value to set
 180:Drivers/CMSIS/Include/cmsis_gcc.h ****  */
 181:Drivers/CMSIS/Include/cmsis_gcc.h **** __STATIC_FORCEINLINE void __set_CONTROL(uint32_t control)
 182:Drivers/CMSIS/Include/cmsis_gcc.h **** {
 183:Drivers/CMSIS/Include/cmsis_gcc.h ****   __ASM volatile ("MSR control, %0" : : "r" (control) : "memory");
 184:Drivers/CMSIS/Include/cmsis_gcc.h **** }
 185:Drivers/CMSIS/Include/cmsis_gcc.h **** 
 186:Drivers/CMSIS/Include/cmsis_gcc.h **** 
 187:Drivers/CMSIS/Include/cmsis_gcc.h **** #if (defined (__ARM_FEATURE_CMSE ) && (__ARM_FEATURE_CMSE == 3))
 188:Drivers/CMSIS/Include/cmsis_gcc.h **** /**
 189:Drivers/CMSIS/Include/cmsis_gcc.h ****   \brief   Set Control Register (non-secure)
 190:Drivers/CMSIS/Include/cmsis_gcc.h ****   \details Writes the given value to the non-secure Control Register when in secure state.
 191:Drivers/CMSIS/Include/cmsis_gcc.h ****   \param [in]    control  Control Register value to set
ARM GAS  /var/folders/b1/22c950295gx2kqj80tvj8wqc0000gn/T//ccYsOlQx.s 			page 9


 192:Drivers/CMSIS/Include/cmsis_gcc.h ****  */
 193:Drivers/CMSIS/Include/cmsis_gcc.h **** __STATIC_FORCEINLINE void __TZ_set_CONTROL_NS(uint32_t control)
 194:Drivers/CMSIS/Include/cmsis_gcc.h **** {
 195:Drivers/CMSIS/Include/cmsis_gcc.h ****   __ASM volatile ("MSR control_ns, %0" : : "r" (control) : "memory");
 196:Drivers/CMSIS/Include/cmsis_gcc.h **** }
 197:Drivers/CMSIS/Include/cmsis_gcc.h **** #endif
 198:Drivers/CMSIS/Include/cmsis_gcc.h **** 
 199:Drivers/CMSIS/Include/cmsis_gcc.h **** 
 200:Drivers/CMSIS/Include/cmsis_gcc.h **** /**
 201:Drivers/CMSIS/Include/cmsis_gcc.h ****   \brief   Get IPSR Register
 202:Drivers/CMSIS/Include/cmsis_gcc.h ****   \details Returns the content of the IPSR Register.
 203:Drivers/CMSIS/Include/cmsis_gcc.h ****   \return               IPSR Register value
 204:Drivers/CMSIS/Include/cmsis_gcc.h ****  */
 205:Drivers/CMSIS/Include/cmsis_gcc.h **** __STATIC_FORCEINLINE uint32_t __get_IPSR(void)
 206:Drivers/CMSIS/Include/cmsis_gcc.h **** {
 207:Drivers/CMSIS/Include/cmsis_gcc.h ****   uint32_t result;
 208:Drivers/CMSIS/Include/cmsis_gcc.h **** 
 209:Drivers/CMSIS/Include/cmsis_gcc.h ****   __ASM volatile ("MRS %0, ipsr" : "=r" (result) );
 210:Drivers/CMSIS/Include/cmsis_gcc.h ****   return(result);
 211:Drivers/CMSIS/Include/cmsis_gcc.h **** }
 212:Drivers/CMSIS/Include/cmsis_gcc.h **** 
 213:Drivers/CMSIS/Include/cmsis_gcc.h **** 
 214:Drivers/CMSIS/Include/cmsis_gcc.h **** /**
 215:Drivers/CMSIS/Include/cmsis_gcc.h ****   \brief   Get APSR Register
 216:Drivers/CMSIS/Include/cmsis_gcc.h ****   \details Returns the content of the APSR Register.
 217:Drivers/CMSIS/Include/cmsis_gcc.h ****   \return               APSR Register value
 218:Drivers/CMSIS/Include/cmsis_gcc.h ****  */
 219:Drivers/CMSIS/Include/cmsis_gcc.h **** __STATIC_FORCEINLINE uint32_t __get_APSR(void)
 220:Drivers/CMSIS/Include/cmsis_gcc.h **** {
 221:Drivers/CMSIS/Include/cmsis_gcc.h ****   uint32_t result;
 222:Drivers/CMSIS/Include/cmsis_gcc.h **** 
 223:Drivers/CMSIS/Include/cmsis_gcc.h ****   __ASM volatile ("MRS %0, apsr" : "=r" (result) );
 224:Drivers/CMSIS/Include/cmsis_gcc.h ****   return(result);
 225:Drivers/CMSIS/Include/cmsis_gcc.h **** }
 226:Drivers/CMSIS/Include/cmsis_gcc.h **** 
 227:Drivers/CMSIS/Include/cmsis_gcc.h **** 
 228:Drivers/CMSIS/Include/cmsis_gcc.h **** /**
 229:Drivers/CMSIS/Include/cmsis_gcc.h ****   \brief   Get xPSR Register
 230:Drivers/CMSIS/Include/cmsis_gcc.h ****   \details Returns the content of the xPSR Register.
 231:Drivers/CMSIS/Include/cmsis_gcc.h ****   \return               xPSR Register value
 232:Drivers/CMSIS/Include/cmsis_gcc.h ****  */
 233:Drivers/CMSIS/Include/cmsis_gcc.h **** __STATIC_FORCEINLINE uint32_t __get_xPSR(void)
 234:Drivers/CMSIS/Include/cmsis_gcc.h **** {
 235:Drivers/CMSIS/Include/cmsis_gcc.h ****   uint32_t result;
 236:Drivers/CMSIS/Include/cmsis_gcc.h **** 
 237:Drivers/CMSIS/Include/cmsis_gcc.h ****   __ASM volatile ("MRS %0, xpsr" : "=r" (result) );
 238:Drivers/CMSIS/Include/cmsis_gcc.h ****   return(result);
 239:Drivers/CMSIS/Include/cmsis_gcc.h **** }
 240:Drivers/CMSIS/Include/cmsis_gcc.h **** 
 241:Drivers/CMSIS/Include/cmsis_gcc.h **** 
 242:Drivers/CMSIS/Include/cmsis_gcc.h **** /**
 243:Drivers/CMSIS/Include/cmsis_gcc.h ****   \brief   Get Process Stack Pointer
 244:Drivers/CMSIS/Include/cmsis_gcc.h ****   \details Returns the current value of the Process Stack Pointer (PSP).
 245:Drivers/CMSIS/Include/cmsis_gcc.h ****   \return               PSP Register value
 246:Drivers/CMSIS/Include/cmsis_gcc.h ****  */
 247:Drivers/CMSIS/Include/cmsis_gcc.h **** __STATIC_FORCEINLINE uint32_t __get_PSP(void)
 248:Drivers/CMSIS/Include/cmsis_gcc.h **** {
ARM GAS  /var/folders/b1/22c950295gx2kqj80tvj8wqc0000gn/T//ccYsOlQx.s 			page 10


 249:Drivers/CMSIS/Include/cmsis_gcc.h ****   uint32_t result;
 250:Drivers/CMSIS/Include/cmsis_gcc.h **** 
 251:Drivers/CMSIS/Include/cmsis_gcc.h ****   __ASM volatile ("MRS %0, psp"  : "=r" (result) );
 252:Drivers/CMSIS/Include/cmsis_gcc.h ****   return(result);
 253:Drivers/CMSIS/Include/cmsis_gcc.h **** }
 254:Drivers/CMSIS/Include/cmsis_gcc.h **** 
 255:Drivers/CMSIS/Include/cmsis_gcc.h **** 
 256:Drivers/CMSIS/Include/cmsis_gcc.h **** #if (defined (__ARM_FEATURE_CMSE ) && (__ARM_FEATURE_CMSE == 3))
 257:Drivers/CMSIS/Include/cmsis_gcc.h **** /**
 258:Drivers/CMSIS/Include/cmsis_gcc.h ****   \brief   Get Process Stack Pointer (non-secure)
 259:Drivers/CMSIS/Include/cmsis_gcc.h ****   \details Returns the current value of the non-secure Process Stack Pointer (PSP) when in secure s
 260:Drivers/CMSIS/Include/cmsis_gcc.h ****   \return               PSP Register value
 261:Drivers/CMSIS/Include/cmsis_gcc.h ****  */
 262:Drivers/CMSIS/Include/cmsis_gcc.h **** __STATIC_FORCEINLINE uint32_t __TZ_get_PSP_NS(void)
 263:Drivers/CMSIS/Include/cmsis_gcc.h **** {
 264:Drivers/CMSIS/Include/cmsis_gcc.h ****   uint32_t result;
 265:Drivers/CMSIS/Include/cmsis_gcc.h **** 
 266:Drivers/CMSIS/Include/cmsis_gcc.h ****   __ASM volatile ("MRS %0, psp_ns"  : "=r" (result) );
 267:Drivers/CMSIS/Include/cmsis_gcc.h ****   return(result);
 268:Drivers/CMSIS/Include/cmsis_gcc.h **** }
 269:Drivers/CMSIS/Include/cmsis_gcc.h **** #endif
 270:Drivers/CMSIS/Include/cmsis_gcc.h **** 
 271:Drivers/CMSIS/Include/cmsis_gcc.h **** 
 272:Drivers/CMSIS/Include/cmsis_gcc.h **** /**
 273:Drivers/CMSIS/Include/cmsis_gcc.h ****   \brief   Set Process Stack Pointer
 274:Drivers/CMSIS/Include/cmsis_gcc.h ****   \details Assigns the given value to the Process Stack Pointer (PSP).
 275:Drivers/CMSIS/Include/cmsis_gcc.h ****   \param [in]    topOfProcStack  Process Stack Pointer value to set
 276:Drivers/CMSIS/Include/cmsis_gcc.h ****  */
 277:Drivers/CMSIS/Include/cmsis_gcc.h **** __STATIC_FORCEINLINE void __set_PSP(uint32_t topOfProcStack)
 278:Drivers/CMSIS/Include/cmsis_gcc.h **** {
 279:Drivers/CMSIS/Include/cmsis_gcc.h ****   __ASM volatile ("MSR psp, %0" : : "r" (topOfProcStack) : );
 280:Drivers/CMSIS/Include/cmsis_gcc.h **** }
 281:Drivers/CMSIS/Include/cmsis_gcc.h **** 
 282:Drivers/CMSIS/Include/cmsis_gcc.h **** 
 283:Drivers/CMSIS/Include/cmsis_gcc.h **** #if (defined (__ARM_FEATURE_CMSE ) && (__ARM_FEATURE_CMSE == 3))
 284:Drivers/CMSIS/Include/cmsis_gcc.h **** /**
 285:Drivers/CMSIS/Include/cmsis_gcc.h ****   \brief   Set Process Stack Pointer (non-secure)
 286:Drivers/CMSIS/Include/cmsis_gcc.h ****   \details Assigns the given value to the non-secure Process Stack Pointer (PSP) when in secure sta
 287:Drivers/CMSIS/Include/cmsis_gcc.h ****   \param [in]    topOfProcStack  Process Stack Pointer value to set
 288:Drivers/CMSIS/Include/cmsis_gcc.h ****  */
 289:Drivers/CMSIS/Include/cmsis_gcc.h **** __STATIC_FORCEINLINE void __TZ_set_PSP_NS(uint32_t topOfProcStack)
 290:Drivers/CMSIS/Include/cmsis_gcc.h **** {
 291:Drivers/CMSIS/Include/cmsis_gcc.h ****   __ASM volatile ("MSR psp_ns, %0" : : "r" (topOfProcStack) : );
 292:Drivers/CMSIS/Include/cmsis_gcc.h **** }
 293:Drivers/CMSIS/Include/cmsis_gcc.h **** #endif
 294:Drivers/CMSIS/Include/cmsis_gcc.h **** 
 295:Drivers/CMSIS/Include/cmsis_gcc.h **** 
 296:Drivers/CMSIS/Include/cmsis_gcc.h **** /**
 297:Drivers/CMSIS/Include/cmsis_gcc.h ****   \brief   Get Main Stack Pointer
 298:Drivers/CMSIS/Include/cmsis_gcc.h ****   \details Returns the current value of the Main Stack Pointer (MSP).
 299:Drivers/CMSIS/Include/cmsis_gcc.h ****   \return               MSP Register value
 300:Drivers/CMSIS/Include/cmsis_gcc.h ****  */
 301:Drivers/CMSIS/Include/cmsis_gcc.h **** __STATIC_FORCEINLINE uint32_t __get_MSP(void)
 302:Drivers/CMSIS/Include/cmsis_gcc.h **** {
 303:Drivers/CMSIS/Include/cmsis_gcc.h ****   uint32_t result;
 304:Drivers/CMSIS/Include/cmsis_gcc.h **** 
 305:Drivers/CMSIS/Include/cmsis_gcc.h ****   __ASM volatile ("MRS %0, msp" : "=r" (result) );
ARM GAS  /var/folders/b1/22c950295gx2kqj80tvj8wqc0000gn/T//ccYsOlQx.s 			page 11


 306:Drivers/CMSIS/Include/cmsis_gcc.h ****   return(result);
 307:Drivers/CMSIS/Include/cmsis_gcc.h **** }
 308:Drivers/CMSIS/Include/cmsis_gcc.h **** 
 309:Drivers/CMSIS/Include/cmsis_gcc.h **** 
 310:Drivers/CMSIS/Include/cmsis_gcc.h **** #if (defined (__ARM_FEATURE_CMSE ) && (__ARM_FEATURE_CMSE == 3))
 311:Drivers/CMSIS/Include/cmsis_gcc.h **** /**
 312:Drivers/CMSIS/Include/cmsis_gcc.h ****   \brief   Get Main Stack Pointer (non-secure)
 313:Drivers/CMSIS/Include/cmsis_gcc.h ****   \details Returns the current value of the non-secure Main Stack Pointer (MSP) when in secure stat
 314:Drivers/CMSIS/Include/cmsis_gcc.h ****   \return               MSP Register value
 315:Drivers/CMSIS/Include/cmsis_gcc.h ****  */
 316:Drivers/CMSIS/Include/cmsis_gcc.h **** __STATIC_FORCEINLINE uint32_t __TZ_get_MSP_NS(void)
 317:Drivers/CMSIS/Include/cmsis_gcc.h **** {
 318:Drivers/CMSIS/Include/cmsis_gcc.h ****   uint32_t result;
 319:Drivers/CMSIS/Include/cmsis_gcc.h **** 
 320:Drivers/CMSIS/Include/cmsis_gcc.h ****   __ASM volatile ("MRS %0, msp_ns" : "=r" (result) );
 321:Drivers/CMSIS/Include/cmsis_gcc.h ****   return(result);
 322:Drivers/CMSIS/Include/cmsis_gcc.h **** }
 323:Drivers/CMSIS/Include/cmsis_gcc.h **** #endif
 324:Drivers/CMSIS/Include/cmsis_gcc.h **** 
 325:Drivers/CMSIS/Include/cmsis_gcc.h **** 
 326:Drivers/CMSIS/Include/cmsis_gcc.h **** /**
 327:Drivers/CMSIS/Include/cmsis_gcc.h ****   \brief   Set Main Stack Pointer
 328:Drivers/CMSIS/Include/cmsis_gcc.h ****   \details Assigns the given value to the Main Stack Pointer (MSP).
 329:Drivers/CMSIS/Include/cmsis_gcc.h ****   \param [in]    topOfMainStack  Main Stack Pointer value to set
 330:Drivers/CMSIS/Include/cmsis_gcc.h ****  */
 331:Drivers/CMSIS/Include/cmsis_gcc.h **** __STATIC_FORCEINLINE void __set_MSP(uint32_t topOfMainStack)
 332:Drivers/CMSIS/Include/cmsis_gcc.h **** {
 333:Drivers/CMSIS/Include/cmsis_gcc.h ****   __ASM volatile ("MSR msp, %0" : : "r" (topOfMainStack) : );
 334:Drivers/CMSIS/Include/cmsis_gcc.h **** }
 335:Drivers/CMSIS/Include/cmsis_gcc.h **** 
 336:Drivers/CMSIS/Include/cmsis_gcc.h **** 
 337:Drivers/CMSIS/Include/cmsis_gcc.h **** #if (defined (__ARM_FEATURE_CMSE ) && (__ARM_FEATURE_CMSE == 3))
 338:Drivers/CMSIS/Include/cmsis_gcc.h **** /**
 339:Drivers/CMSIS/Include/cmsis_gcc.h ****   \brief   Set Main Stack Pointer (non-secure)
 340:Drivers/CMSIS/Include/cmsis_gcc.h ****   \details Assigns the given value to the non-secure Main Stack Pointer (MSP) when in secure state.
 341:Drivers/CMSIS/Include/cmsis_gcc.h ****   \param [in]    topOfMainStack  Main Stack Pointer value to set
 342:Drivers/CMSIS/Include/cmsis_gcc.h ****  */
 343:Drivers/CMSIS/Include/cmsis_gcc.h **** __STATIC_FORCEINLINE void __TZ_set_MSP_NS(uint32_t topOfMainStack)
 344:Drivers/CMSIS/Include/cmsis_gcc.h **** {
 345:Drivers/CMSIS/Include/cmsis_gcc.h ****   __ASM volatile ("MSR msp_ns, %0" : : "r" (topOfMainStack) : );
 346:Drivers/CMSIS/Include/cmsis_gcc.h **** }
 347:Drivers/CMSIS/Include/cmsis_gcc.h **** #endif
 348:Drivers/CMSIS/Include/cmsis_gcc.h **** 
 349:Drivers/CMSIS/Include/cmsis_gcc.h **** 
 350:Drivers/CMSIS/Include/cmsis_gcc.h **** #if (defined (__ARM_FEATURE_CMSE ) && (__ARM_FEATURE_CMSE == 3))
 351:Drivers/CMSIS/Include/cmsis_gcc.h **** /**
 352:Drivers/CMSIS/Include/cmsis_gcc.h ****   \brief   Get Stack Pointer (non-secure)
 353:Drivers/CMSIS/Include/cmsis_gcc.h ****   \details Returns the current value of the non-secure Stack Pointer (SP) when in secure state.
 354:Drivers/CMSIS/Include/cmsis_gcc.h ****   \return               SP Register value
 355:Drivers/CMSIS/Include/cmsis_gcc.h ****  */
 356:Drivers/CMSIS/Include/cmsis_gcc.h **** __STATIC_FORCEINLINE uint32_t __TZ_get_SP_NS(void)
 357:Drivers/CMSIS/Include/cmsis_gcc.h **** {
 358:Drivers/CMSIS/Include/cmsis_gcc.h ****   uint32_t result;
 359:Drivers/CMSIS/Include/cmsis_gcc.h **** 
 360:Drivers/CMSIS/Include/cmsis_gcc.h ****   __ASM volatile ("MRS %0, sp_ns" : "=r" (result) );
 361:Drivers/CMSIS/Include/cmsis_gcc.h ****   return(result);
 362:Drivers/CMSIS/Include/cmsis_gcc.h **** }
ARM GAS  /var/folders/b1/22c950295gx2kqj80tvj8wqc0000gn/T//ccYsOlQx.s 			page 12


 363:Drivers/CMSIS/Include/cmsis_gcc.h **** 
 364:Drivers/CMSIS/Include/cmsis_gcc.h **** 
 365:Drivers/CMSIS/Include/cmsis_gcc.h **** /**
 366:Drivers/CMSIS/Include/cmsis_gcc.h ****   \brief   Set Stack Pointer (non-secure)
 367:Drivers/CMSIS/Include/cmsis_gcc.h ****   \details Assigns the given value to the non-secure Stack Pointer (SP) when in secure state.
 368:Drivers/CMSIS/Include/cmsis_gcc.h ****   \param [in]    topOfStack  Stack Pointer value to set
 369:Drivers/CMSIS/Include/cmsis_gcc.h ****  */
 370:Drivers/CMSIS/Include/cmsis_gcc.h **** __STATIC_FORCEINLINE void __TZ_set_SP_NS(uint32_t topOfStack)
 371:Drivers/CMSIS/Include/cmsis_gcc.h **** {
 372:Drivers/CMSIS/Include/cmsis_gcc.h ****   __ASM volatile ("MSR sp_ns, %0" : : "r" (topOfStack) : );
 373:Drivers/CMSIS/Include/cmsis_gcc.h **** }
 374:Drivers/CMSIS/Include/cmsis_gcc.h **** #endif
 375:Drivers/CMSIS/Include/cmsis_gcc.h **** 
 376:Drivers/CMSIS/Include/cmsis_gcc.h **** 
 377:Drivers/CMSIS/Include/cmsis_gcc.h **** /**
 378:Drivers/CMSIS/Include/cmsis_gcc.h ****   \brief   Get Priority Mask
 379:Drivers/CMSIS/Include/cmsis_gcc.h ****   \details Returns the current state of the priority mask bit from the Priority Mask Register.
 380:Drivers/CMSIS/Include/cmsis_gcc.h ****   \return               Priority Mask value
 381:Drivers/CMSIS/Include/cmsis_gcc.h ****  */
 382:Drivers/CMSIS/Include/cmsis_gcc.h **** __STATIC_FORCEINLINE uint32_t __get_PRIMASK(void)
 383:Drivers/CMSIS/Include/cmsis_gcc.h **** {
 384:Drivers/CMSIS/Include/cmsis_gcc.h ****   uint32_t result;
 385:Drivers/CMSIS/Include/cmsis_gcc.h **** 
 386:Drivers/CMSIS/Include/cmsis_gcc.h ****   __ASM volatile ("MRS %0, primask" : "=r" (result) :: "memory");
 387:Drivers/CMSIS/Include/cmsis_gcc.h ****   return(result);
 388:Drivers/CMSIS/Include/cmsis_gcc.h **** }
 389:Drivers/CMSIS/Include/cmsis_gcc.h **** 
 390:Drivers/CMSIS/Include/cmsis_gcc.h **** 
 391:Drivers/CMSIS/Include/cmsis_gcc.h **** #if (defined (__ARM_FEATURE_CMSE ) && (__ARM_FEATURE_CMSE == 3))
 392:Drivers/CMSIS/Include/cmsis_gcc.h **** /**
 393:Drivers/CMSIS/Include/cmsis_gcc.h ****   \brief   Get Priority Mask (non-secure)
 394:Drivers/CMSIS/Include/cmsis_gcc.h ****   \details Returns the current state of the non-secure priority mask bit from the Priority Mask Reg
 395:Drivers/CMSIS/Include/cmsis_gcc.h ****   \return               Priority Mask value
 396:Drivers/CMSIS/Include/cmsis_gcc.h ****  */
 397:Drivers/CMSIS/Include/cmsis_gcc.h **** __STATIC_FORCEINLINE uint32_t __TZ_get_PRIMASK_NS(void)
 398:Drivers/CMSIS/Include/cmsis_gcc.h **** {
 399:Drivers/CMSIS/Include/cmsis_gcc.h ****   uint32_t result;
 400:Drivers/CMSIS/Include/cmsis_gcc.h **** 
 401:Drivers/CMSIS/Include/cmsis_gcc.h ****   __ASM volatile ("MRS %0, primask_ns" : "=r" (result) :: "memory");
 402:Drivers/CMSIS/Include/cmsis_gcc.h ****   return(result);
 403:Drivers/CMSIS/Include/cmsis_gcc.h **** }
 404:Drivers/CMSIS/Include/cmsis_gcc.h **** #endif
 405:Drivers/CMSIS/Include/cmsis_gcc.h **** 
 406:Drivers/CMSIS/Include/cmsis_gcc.h **** 
 407:Drivers/CMSIS/Include/cmsis_gcc.h **** /**
 408:Drivers/CMSIS/Include/cmsis_gcc.h ****   \brief   Set Priority Mask
 409:Drivers/CMSIS/Include/cmsis_gcc.h ****   \details Assigns the given value to the Priority Mask Register.
 410:Drivers/CMSIS/Include/cmsis_gcc.h ****   \param [in]    priMask  Priority Mask
 411:Drivers/CMSIS/Include/cmsis_gcc.h ****  */
 412:Drivers/CMSIS/Include/cmsis_gcc.h **** __STATIC_FORCEINLINE void __set_PRIMASK(uint32_t priMask)
 413:Drivers/CMSIS/Include/cmsis_gcc.h **** {
 414:Drivers/CMSIS/Include/cmsis_gcc.h ****   __ASM volatile ("MSR primask, %0" : : "r" (priMask) : "memory");
 415:Drivers/CMSIS/Include/cmsis_gcc.h **** }
 416:Drivers/CMSIS/Include/cmsis_gcc.h **** 
 417:Drivers/CMSIS/Include/cmsis_gcc.h **** 
 418:Drivers/CMSIS/Include/cmsis_gcc.h **** #if (defined (__ARM_FEATURE_CMSE ) && (__ARM_FEATURE_CMSE == 3))
 419:Drivers/CMSIS/Include/cmsis_gcc.h **** /**
ARM GAS  /var/folders/b1/22c950295gx2kqj80tvj8wqc0000gn/T//ccYsOlQx.s 			page 13


 420:Drivers/CMSIS/Include/cmsis_gcc.h ****   \brief   Set Priority Mask (non-secure)
 421:Drivers/CMSIS/Include/cmsis_gcc.h ****   \details Assigns the given value to the non-secure Priority Mask Register when in secure state.
 422:Drivers/CMSIS/Include/cmsis_gcc.h ****   \param [in]    priMask  Priority Mask
 423:Drivers/CMSIS/Include/cmsis_gcc.h ****  */
 424:Drivers/CMSIS/Include/cmsis_gcc.h **** __STATIC_FORCEINLINE void __TZ_set_PRIMASK_NS(uint32_t priMask)
 425:Drivers/CMSIS/Include/cmsis_gcc.h **** {
 426:Drivers/CMSIS/Include/cmsis_gcc.h ****   __ASM volatile ("MSR primask_ns, %0" : : "r" (priMask) : "memory");
 427:Drivers/CMSIS/Include/cmsis_gcc.h **** }
 428:Drivers/CMSIS/Include/cmsis_gcc.h **** #endif
 429:Drivers/CMSIS/Include/cmsis_gcc.h **** 
 430:Drivers/CMSIS/Include/cmsis_gcc.h **** 
 431:Drivers/CMSIS/Include/cmsis_gcc.h **** #if ((defined (__ARM_ARCH_7M__      ) && (__ARM_ARCH_7M__      == 1)) || \
 432:Drivers/CMSIS/Include/cmsis_gcc.h ****      (defined (__ARM_ARCH_7EM__     ) && (__ARM_ARCH_7EM__     == 1)) || \
 433:Drivers/CMSIS/Include/cmsis_gcc.h ****      (defined (__ARM_ARCH_8M_MAIN__ ) && (__ARM_ARCH_8M_MAIN__ == 1))    )
 434:Drivers/CMSIS/Include/cmsis_gcc.h **** /**
 435:Drivers/CMSIS/Include/cmsis_gcc.h ****   \brief   Enable FIQ
 436:Drivers/CMSIS/Include/cmsis_gcc.h ****   \details Enables FIQ interrupts by clearing the F-bit in the CPSR.
 437:Drivers/CMSIS/Include/cmsis_gcc.h ****            Can only be executed in Privileged modes.
 438:Drivers/CMSIS/Include/cmsis_gcc.h ****  */
 439:Drivers/CMSIS/Include/cmsis_gcc.h **** __STATIC_FORCEINLINE void __enable_fault_irq(void)
 440:Drivers/CMSIS/Include/cmsis_gcc.h **** {
 441:Drivers/CMSIS/Include/cmsis_gcc.h ****   __ASM volatile ("cpsie f" : : : "memory");
 442:Drivers/CMSIS/Include/cmsis_gcc.h **** }
 443:Drivers/CMSIS/Include/cmsis_gcc.h **** 
 444:Drivers/CMSIS/Include/cmsis_gcc.h **** 
 445:Drivers/CMSIS/Include/cmsis_gcc.h **** /**
 446:Drivers/CMSIS/Include/cmsis_gcc.h ****   \brief   Disable FIQ
 447:Drivers/CMSIS/Include/cmsis_gcc.h ****   \details Disables FIQ interrupts by setting the F-bit in the CPSR.
 448:Drivers/CMSIS/Include/cmsis_gcc.h ****            Can only be executed in Privileged modes.
 449:Drivers/CMSIS/Include/cmsis_gcc.h ****  */
 450:Drivers/CMSIS/Include/cmsis_gcc.h **** __STATIC_FORCEINLINE void __disable_fault_irq(void)
 451:Drivers/CMSIS/Include/cmsis_gcc.h **** {
 452:Drivers/CMSIS/Include/cmsis_gcc.h ****   __ASM volatile ("cpsid f" : : : "memory");
 453:Drivers/CMSIS/Include/cmsis_gcc.h **** }
 454:Drivers/CMSIS/Include/cmsis_gcc.h **** 
 455:Drivers/CMSIS/Include/cmsis_gcc.h **** 
 456:Drivers/CMSIS/Include/cmsis_gcc.h **** /**
 457:Drivers/CMSIS/Include/cmsis_gcc.h ****   \brief   Get Base Priority
 458:Drivers/CMSIS/Include/cmsis_gcc.h ****   \details Returns the current value of the Base Priority register.
 459:Drivers/CMSIS/Include/cmsis_gcc.h ****   \return               Base Priority register value
 460:Drivers/CMSIS/Include/cmsis_gcc.h ****  */
 461:Drivers/CMSIS/Include/cmsis_gcc.h **** __STATIC_FORCEINLINE uint32_t __get_BASEPRI(void)
 462:Drivers/CMSIS/Include/cmsis_gcc.h **** {
 463:Drivers/CMSIS/Include/cmsis_gcc.h ****   uint32_t result;
 464:Drivers/CMSIS/Include/cmsis_gcc.h **** 
 465:Drivers/CMSIS/Include/cmsis_gcc.h ****   __ASM volatile ("MRS %0, basepri" : "=r" (result) );
 466:Drivers/CMSIS/Include/cmsis_gcc.h ****   return(result);
 467:Drivers/CMSIS/Include/cmsis_gcc.h **** }
 468:Drivers/CMSIS/Include/cmsis_gcc.h **** 
 469:Drivers/CMSIS/Include/cmsis_gcc.h **** 
 470:Drivers/CMSIS/Include/cmsis_gcc.h **** #if (defined (__ARM_FEATURE_CMSE ) && (__ARM_FEATURE_CMSE == 3))
 471:Drivers/CMSIS/Include/cmsis_gcc.h **** /**
 472:Drivers/CMSIS/Include/cmsis_gcc.h ****   \brief   Get Base Priority (non-secure)
 473:Drivers/CMSIS/Include/cmsis_gcc.h ****   \details Returns the current value of the non-secure Base Priority register when in secure state.
 474:Drivers/CMSIS/Include/cmsis_gcc.h ****   \return               Base Priority register value
 475:Drivers/CMSIS/Include/cmsis_gcc.h ****  */
 476:Drivers/CMSIS/Include/cmsis_gcc.h **** __STATIC_FORCEINLINE uint32_t __TZ_get_BASEPRI_NS(void)
ARM GAS  /var/folders/b1/22c950295gx2kqj80tvj8wqc0000gn/T//ccYsOlQx.s 			page 14


 477:Drivers/CMSIS/Include/cmsis_gcc.h **** {
 478:Drivers/CMSIS/Include/cmsis_gcc.h ****   uint32_t result;
 479:Drivers/CMSIS/Include/cmsis_gcc.h **** 
 480:Drivers/CMSIS/Include/cmsis_gcc.h ****   __ASM volatile ("MRS %0, basepri_ns" : "=r" (result) );
 481:Drivers/CMSIS/Include/cmsis_gcc.h ****   return(result);
 482:Drivers/CMSIS/Include/cmsis_gcc.h **** }
 483:Drivers/CMSIS/Include/cmsis_gcc.h **** #endif
 484:Drivers/CMSIS/Include/cmsis_gcc.h **** 
 485:Drivers/CMSIS/Include/cmsis_gcc.h **** 
 486:Drivers/CMSIS/Include/cmsis_gcc.h **** /**
 487:Drivers/CMSIS/Include/cmsis_gcc.h ****   \brief   Set Base Priority
 488:Drivers/CMSIS/Include/cmsis_gcc.h ****   \details Assigns the given value to the Base Priority register.
 489:Drivers/CMSIS/Include/cmsis_gcc.h ****   \param [in]    basePri  Base Priority value to set
 490:Drivers/CMSIS/Include/cmsis_gcc.h ****  */
 491:Drivers/CMSIS/Include/cmsis_gcc.h **** __STATIC_FORCEINLINE void __set_BASEPRI(uint32_t basePri)
 492:Drivers/CMSIS/Include/cmsis_gcc.h **** {
 493:Drivers/CMSIS/Include/cmsis_gcc.h ****   __ASM volatile ("MSR basepri, %0" : : "r" (basePri) : "memory");
 494:Drivers/CMSIS/Include/cmsis_gcc.h **** }
 495:Drivers/CMSIS/Include/cmsis_gcc.h **** 
 496:Drivers/CMSIS/Include/cmsis_gcc.h **** 
 497:Drivers/CMSIS/Include/cmsis_gcc.h **** #if (defined (__ARM_FEATURE_CMSE ) && (__ARM_FEATURE_CMSE == 3))
 498:Drivers/CMSIS/Include/cmsis_gcc.h **** /**
 499:Drivers/CMSIS/Include/cmsis_gcc.h ****   \brief   Set Base Priority (non-secure)
 500:Drivers/CMSIS/Include/cmsis_gcc.h ****   \details Assigns the given value to the non-secure Base Priority register when in secure state.
 501:Drivers/CMSIS/Include/cmsis_gcc.h ****   \param [in]    basePri  Base Priority value to set
 502:Drivers/CMSIS/Include/cmsis_gcc.h ****  */
 503:Drivers/CMSIS/Include/cmsis_gcc.h **** __STATIC_FORCEINLINE void __TZ_set_BASEPRI_NS(uint32_t basePri)
 504:Drivers/CMSIS/Include/cmsis_gcc.h **** {
 505:Drivers/CMSIS/Include/cmsis_gcc.h ****   __ASM volatile ("MSR basepri_ns, %0" : : "r" (basePri) : "memory");
 506:Drivers/CMSIS/Include/cmsis_gcc.h **** }
 507:Drivers/CMSIS/Include/cmsis_gcc.h **** #endif
 508:Drivers/CMSIS/Include/cmsis_gcc.h **** 
 509:Drivers/CMSIS/Include/cmsis_gcc.h **** 
 510:Drivers/CMSIS/Include/cmsis_gcc.h **** /**
 511:Drivers/CMSIS/Include/cmsis_gcc.h ****   \brief   Set Base Priority with condition
 512:Drivers/CMSIS/Include/cmsis_gcc.h ****   \details Assigns the given value to the Base Priority register only if BASEPRI masking is disable
 513:Drivers/CMSIS/Include/cmsis_gcc.h ****            or the new value increases the BASEPRI priority level.
 514:Drivers/CMSIS/Include/cmsis_gcc.h ****   \param [in]    basePri  Base Priority value to set
 515:Drivers/CMSIS/Include/cmsis_gcc.h ****  */
 516:Drivers/CMSIS/Include/cmsis_gcc.h **** __STATIC_FORCEINLINE void __set_BASEPRI_MAX(uint32_t basePri)
 517:Drivers/CMSIS/Include/cmsis_gcc.h **** {
 518:Drivers/CMSIS/Include/cmsis_gcc.h ****   __ASM volatile ("MSR basepri_max, %0" : : "r" (basePri) : "memory");
 519:Drivers/CMSIS/Include/cmsis_gcc.h **** }
 520:Drivers/CMSIS/Include/cmsis_gcc.h **** 
 521:Drivers/CMSIS/Include/cmsis_gcc.h **** 
 522:Drivers/CMSIS/Include/cmsis_gcc.h **** /**
 523:Drivers/CMSIS/Include/cmsis_gcc.h ****   \brief   Get Fault Mask
 524:Drivers/CMSIS/Include/cmsis_gcc.h ****   \details Returns the current value of the Fault Mask register.
 525:Drivers/CMSIS/Include/cmsis_gcc.h ****   \return               Fault Mask register value
 526:Drivers/CMSIS/Include/cmsis_gcc.h ****  */
 527:Drivers/CMSIS/Include/cmsis_gcc.h **** __STATIC_FORCEINLINE uint32_t __get_FAULTMASK(void)
 528:Drivers/CMSIS/Include/cmsis_gcc.h **** {
 529:Drivers/CMSIS/Include/cmsis_gcc.h ****   uint32_t result;
 530:Drivers/CMSIS/Include/cmsis_gcc.h **** 
 531:Drivers/CMSIS/Include/cmsis_gcc.h ****   __ASM volatile ("MRS %0, faultmask" : "=r" (result) );
 532:Drivers/CMSIS/Include/cmsis_gcc.h ****   return(result);
 533:Drivers/CMSIS/Include/cmsis_gcc.h **** }
ARM GAS  /var/folders/b1/22c950295gx2kqj80tvj8wqc0000gn/T//ccYsOlQx.s 			page 15


 534:Drivers/CMSIS/Include/cmsis_gcc.h **** 
 535:Drivers/CMSIS/Include/cmsis_gcc.h **** 
 536:Drivers/CMSIS/Include/cmsis_gcc.h **** #if (defined (__ARM_FEATURE_CMSE ) && (__ARM_FEATURE_CMSE == 3))
 537:Drivers/CMSIS/Include/cmsis_gcc.h **** /**
 538:Drivers/CMSIS/Include/cmsis_gcc.h ****   \brief   Get Fault Mask (non-secure)
 539:Drivers/CMSIS/Include/cmsis_gcc.h ****   \details Returns the current value of the non-secure Fault Mask register when in secure state.
 540:Drivers/CMSIS/Include/cmsis_gcc.h ****   \return               Fault Mask register value
 541:Drivers/CMSIS/Include/cmsis_gcc.h ****  */
 542:Drivers/CMSIS/Include/cmsis_gcc.h **** __STATIC_FORCEINLINE uint32_t __TZ_get_FAULTMASK_NS(void)
 543:Drivers/CMSIS/Include/cmsis_gcc.h **** {
 544:Drivers/CMSIS/Include/cmsis_gcc.h ****   uint32_t result;
 545:Drivers/CMSIS/Include/cmsis_gcc.h **** 
 546:Drivers/CMSIS/Include/cmsis_gcc.h ****   __ASM volatile ("MRS %0, faultmask_ns" : "=r" (result) );
 547:Drivers/CMSIS/Include/cmsis_gcc.h ****   return(result);
 548:Drivers/CMSIS/Include/cmsis_gcc.h **** }
 549:Drivers/CMSIS/Include/cmsis_gcc.h **** #endif
 550:Drivers/CMSIS/Include/cmsis_gcc.h **** 
 551:Drivers/CMSIS/Include/cmsis_gcc.h **** 
 552:Drivers/CMSIS/Include/cmsis_gcc.h **** /**
 553:Drivers/CMSIS/Include/cmsis_gcc.h ****   \brief   Set Fault Mask
 554:Drivers/CMSIS/Include/cmsis_gcc.h ****   \details Assigns the given value to the Fault Mask register.
 555:Drivers/CMSIS/Include/cmsis_gcc.h ****   \param [in]    faultMask  Fault Mask value to set
 556:Drivers/CMSIS/Include/cmsis_gcc.h ****  */
 557:Drivers/CMSIS/Include/cmsis_gcc.h **** __STATIC_FORCEINLINE void __set_FAULTMASK(uint32_t faultMask)
 558:Drivers/CMSIS/Include/cmsis_gcc.h **** {
 559:Drivers/CMSIS/Include/cmsis_gcc.h ****   __ASM volatile ("MSR faultmask, %0" : : "r" (faultMask) : "memory");
 560:Drivers/CMSIS/Include/cmsis_gcc.h **** }
 561:Drivers/CMSIS/Include/cmsis_gcc.h **** 
 562:Drivers/CMSIS/Include/cmsis_gcc.h **** 
 563:Drivers/CMSIS/Include/cmsis_gcc.h **** #if (defined (__ARM_FEATURE_CMSE ) && (__ARM_FEATURE_CMSE == 3))
 564:Drivers/CMSIS/Include/cmsis_gcc.h **** /**
 565:Drivers/CMSIS/Include/cmsis_gcc.h ****   \brief   Set Fault Mask (non-secure)
 566:Drivers/CMSIS/Include/cmsis_gcc.h ****   \details Assigns the given value to the non-secure Fault Mask register when in secure state.
 567:Drivers/CMSIS/Include/cmsis_gcc.h ****   \param [in]    faultMask  Fault Mask value to set
 568:Drivers/CMSIS/Include/cmsis_gcc.h ****  */
 569:Drivers/CMSIS/Include/cmsis_gcc.h **** __STATIC_FORCEINLINE void __TZ_set_FAULTMASK_NS(uint32_t faultMask)
 570:Drivers/CMSIS/Include/cmsis_gcc.h **** {
 571:Drivers/CMSIS/Include/cmsis_gcc.h ****   __ASM volatile ("MSR faultmask_ns, %0" : : "r" (faultMask) : "memory");
 572:Drivers/CMSIS/Include/cmsis_gcc.h **** }
 573:Drivers/CMSIS/Include/cmsis_gcc.h **** #endif
 574:Drivers/CMSIS/Include/cmsis_gcc.h **** 
 575:Drivers/CMSIS/Include/cmsis_gcc.h **** #endif /* ((defined (__ARM_ARCH_7M__      ) && (__ARM_ARCH_7M__      == 1)) || \
 576:Drivers/CMSIS/Include/cmsis_gcc.h ****            (defined (__ARM_ARCH_7EM__     ) && (__ARM_ARCH_7EM__     == 1)) || \
 577:Drivers/CMSIS/Include/cmsis_gcc.h ****            (defined (__ARM_ARCH_8M_MAIN__ ) && (__ARM_ARCH_8M_MAIN__ == 1))    ) */
 578:Drivers/CMSIS/Include/cmsis_gcc.h **** 
 579:Drivers/CMSIS/Include/cmsis_gcc.h **** 
 580:Drivers/CMSIS/Include/cmsis_gcc.h **** #if ((defined (__ARM_ARCH_8M_MAIN__ ) && (__ARM_ARCH_8M_MAIN__ == 1)) || \
 581:Drivers/CMSIS/Include/cmsis_gcc.h ****      (defined (__ARM_ARCH_8M_BASE__ ) && (__ARM_ARCH_8M_BASE__ == 1))    )
 582:Drivers/CMSIS/Include/cmsis_gcc.h **** 
 583:Drivers/CMSIS/Include/cmsis_gcc.h **** /**
 584:Drivers/CMSIS/Include/cmsis_gcc.h ****   \brief   Get Process Stack Pointer Limit
 585:Drivers/CMSIS/Include/cmsis_gcc.h ****   Devices without ARMv8-M Main Extensions (i.e. Cortex-M23) lack the non-secure
 586:Drivers/CMSIS/Include/cmsis_gcc.h ****   Stack Pointer Limit register hence zero is returned always in non-secure
 587:Drivers/CMSIS/Include/cmsis_gcc.h ****   mode.
 588:Drivers/CMSIS/Include/cmsis_gcc.h ****   
 589:Drivers/CMSIS/Include/cmsis_gcc.h ****   \details Returns the current value of the Process Stack Pointer Limit (PSPLIM).
 590:Drivers/CMSIS/Include/cmsis_gcc.h ****   \return               PSPLIM Register value
ARM GAS  /var/folders/b1/22c950295gx2kqj80tvj8wqc0000gn/T//ccYsOlQx.s 			page 16


 591:Drivers/CMSIS/Include/cmsis_gcc.h ****  */
 592:Drivers/CMSIS/Include/cmsis_gcc.h **** __STATIC_FORCEINLINE uint32_t __get_PSPLIM(void)
 593:Drivers/CMSIS/Include/cmsis_gcc.h **** {
 594:Drivers/CMSIS/Include/cmsis_gcc.h **** #if (!(defined (__ARM_ARCH_8M_MAIN__ ) && (__ARM_ARCH_8M_MAIN__ == 1)) && \
 595:Drivers/CMSIS/Include/cmsis_gcc.h ****     (!defined (__ARM_FEATURE_CMSE) || (__ARM_FEATURE_CMSE < 3)))
 596:Drivers/CMSIS/Include/cmsis_gcc.h ****     // without main extensions, the non-secure PSPLIM is RAZ/WI
 597:Drivers/CMSIS/Include/cmsis_gcc.h ****   return 0U;
 598:Drivers/CMSIS/Include/cmsis_gcc.h **** #else
 599:Drivers/CMSIS/Include/cmsis_gcc.h ****   uint32_t result;
 600:Drivers/CMSIS/Include/cmsis_gcc.h ****   __ASM volatile ("MRS %0, psplim"  : "=r" (result) );
 601:Drivers/CMSIS/Include/cmsis_gcc.h ****   return result;
 602:Drivers/CMSIS/Include/cmsis_gcc.h **** #endif
 603:Drivers/CMSIS/Include/cmsis_gcc.h **** }
 604:Drivers/CMSIS/Include/cmsis_gcc.h **** 
 605:Drivers/CMSIS/Include/cmsis_gcc.h **** #if (defined (__ARM_FEATURE_CMSE) && (__ARM_FEATURE_CMSE == 3))
 606:Drivers/CMSIS/Include/cmsis_gcc.h **** /**
 607:Drivers/CMSIS/Include/cmsis_gcc.h ****   \brief   Get Process Stack Pointer Limit (non-secure)
 608:Drivers/CMSIS/Include/cmsis_gcc.h ****   Devices without ARMv8-M Main Extensions (i.e. Cortex-M23) lack the non-secure
 609:Drivers/CMSIS/Include/cmsis_gcc.h ****   Stack Pointer Limit register hence zero is returned always.
 610:Drivers/CMSIS/Include/cmsis_gcc.h **** 
 611:Drivers/CMSIS/Include/cmsis_gcc.h ****   \details Returns the current value of the non-secure Process Stack Pointer Limit (PSPLIM) when in
 612:Drivers/CMSIS/Include/cmsis_gcc.h ****   \return               PSPLIM Register value
 613:Drivers/CMSIS/Include/cmsis_gcc.h ****  */
 614:Drivers/CMSIS/Include/cmsis_gcc.h **** __STATIC_FORCEINLINE uint32_t __TZ_get_PSPLIM_NS(void)
 615:Drivers/CMSIS/Include/cmsis_gcc.h **** {
 616:Drivers/CMSIS/Include/cmsis_gcc.h **** #if (!(defined (__ARM_ARCH_8M_MAIN__ ) && (__ARM_ARCH_8M_MAIN__ == 1)))
 617:Drivers/CMSIS/Include/cmsis_gcc.h ****   // without main extensions, the non-secure PSPLIM is RAZ/WI
 618:Drivers/CMSIS/Include/cmsis_gcc.h ****   return 0U;
 619:Drivers/CMSIS/Include/cmsis_gcc.h **** #else
 620:Drivers/CMSIS/Include/cmsis_gcc.h ****   uint32_t result;
 621:Drivers/CMSIS/Include/cmsis_gcc.h ****   __ASM volatile ("MRS %0, psplim_ns"  : "=r" (result) );
 622:Drivers/CMSIS/Include/cmsis_gcc.h ****   return result;
 623:Drivers/CMSIS/Include/cmsis_gcc.h **** #endif
 624:Drivers/CMSIS/Include/cmsis_gcc.h **** }
 625:Drivers/CMSIS/Include/cmsis_gcc.h **** #endif
 626:Drivers/CMSIS/Include/cmsis_gcc.h **** 
 627:Drivers/CMSIS/Include/cmsis_gcc.h **** 
 628:Drivers/CMSIS/Include/cmsis_gcc.h **** /**
 629:Drivers/CMSIS/Include/cmsis_gcc.h ****   \brief   Set Process Stack Pointer Limit
 630:Drivers/CMSIS/Include/cmsis_gcc.h ****   Devices without ARMv8-M Main Extensions (i.e. Cortex-M23) lack the non-secure
 631:Drivers/CMSIS/Include/cmsis_gcc.h ****   Stack Pointer Limit register hence the write is silently ignored in non-secure
 632:Drivers/CMSIS/Include/cmsis_gcc.h ****   mode.
 633:Drivers/CMSIS/Include/cmsis_gcc.h ****   
 634:Drivers/CMSIS/Include/cmsis_gcc.h ****   \details Assigns the given value to the Process Stack Pointer Limit (PSPLIM).
 635:Drivers/CMSIS/Include/cmsis_gcc.h ****   \param [in]    ProcStackPtrLimit  Process Stack Pointer Limit value to set
 636:Drivers/CMSIS/Include/cmsis_gcc.h ****  */
 637:Drivers/CMSIS/Include/cmsis_gcc.h **** __STATIC_FORCEINLINE void __set_PSPLIM(uint32_t ProcStackPtrLimit)
 638:Drivers/CMSIS/Include/cmsis_gcc.h **** {
 639:Drivers/CMSIS/Include/cmsis_gcc.h **** #if (!(defined (__ARM_ARCH_8M_MAIN__ ) && (__ARM_ARCH_8M_MAIN__ == 1)) && \
 640:Drivers/CMSIS/Include/cmsis_gcc.h ****     (!defined (__ARM_FEATURE_CMSE) || (__ARM_FEATURE_CMSE < 3)))
 641:Drivers/CMSIS/Include/cmsis_gcc.h ****   // without main extensions, the non-secure PSPLIM is RAZ/WI
 642:Drivers/CMSIS/Include/cmsis_gcc.h ****   (void)ProcStackPtrLimit;
 643:Drivers/CMSIS/Include/cmsis_gcc.h **** #else
 644:Drivers/CMSIS/Include/cmsis_gcc.h ****   __ASM volatile ("MSR psplim, %0" : : "r" (ProcStackPtrLimit));
 645:Drivers/CMSIS/Include/cmsis_gcc.h **** #endif
 646:Drivers/CMSIS/Include/cmsis_gcc.h **** }
 647:Drivers/CMSIS/Include/cmsis_gcc.h **** 
ARM GAS  /var/folders/b1/22c950295gx2kqj80tvj8wqc0000gn/T//ccYsOlQx.s 			page 17


 648:Drivers/CMSIS/Include/cmsis_gcc.h **** 
 649:Drivers/CMSIS/Include/cmsis_gcc.h **** #if (defined (__ARM_FEATURE_CMSE  ) && (__ARM_FEATURE_CMSE   == 3))
 650:Drivers/CMSIS/Include/cmsis_gcc.h **** /**
 651:Drivers/CMSIS/Include/cmsis_gcc.h ****   \brief   Set Process Stack Pointer (non-secure)
 652:Drivers/CMSIS/Include/cmsis_gcc.h ****   Devices without ARMv8-M Main Extensions (i.e. Cortex-M23) lack the non-secure
 653:Drivers/CMSIS/Include/cmsis_gcc.h ****   Stack Pointer Limit register hence the write is silently ignored.
 654:Drivers/CMSIS/Include/cmsis_gcc.h **** 
 655:Drivers/CMSIS/Include/cmsis_gcc.h ****   \details Assigns the given value to the non-secure Process Stack Pointer Limit (PSPLIM) when in s
 656:Drivers/CMSIS/Include/cmsis_gcc.h ****   \param [in]    ProcStackPtrLimit  Process Stack Pointer Limit value to set
 657:Drivers/CMSIS/Include/cmsis_gcc.h ****  */
 658:Drivers/CMSIS/Include/cmsis_gcc.h **** __STATIC_FORCEINLINE void __TZ_set_PSPLIM_NS(uint32_t ProcStackPtrLimit)
 659:Drivers/CMSIS/Include/cmsis_gcc.h **** {
 660:Drivers/CMSIS/Include/cmsis_gcc.h **** #if (!(defined (__ARM_ARCH_8M_MAIN__ ) && (__ARM_ARCH_8M_MAIN__ == 1)))
 661:Drivers/CMSIS/Include/cmsis_gcc.h ****   // without main extensions, the non-secure PSPLIM is RAZ/WI
 662:Drivers/CMSIS/Include/cmsis_gcc.h ****   (void)ProcStackPtrLimit;
 663:Drivers/CMSIS/Include/cmsis_gcc.h **** #else
 664:Drivers/CMSIS/Include/cmsis_gcc.h ****   __ASM volatile ("MSR psplim_ns, %0\n" : : "r" (ProcStackPtrLimit));
 665:Drivers/CMSIS/Include/cmsis_gcc.h **** #endif
 666:Drivers/CMSIS/Include/cmsis_gcc.h **** }
 667:Drivers/CMSIS/Include/cmsis_gcc.h **** #endif
 668:Drivers/CMSIS/Include/cmsis_gcc.h **** 
 669:Drivers/CMSIS/Include/cmsis_gcc.h **** 
 670:Drivers/CMSIS/Include/cmsis_gcc.h **** /**
 671:Drivers/CMSIS/Include/cmsis_gcc.h ****   \brief   Get Main Stack Pointer Limit
 672:Drivers/CMSIS/Include/cmsis_gcc.h ****   Devices without ARMv8-M Main Extensions (i.e. Cortex-M23) lack the non-secure
 673:Drivers/CMSIS/Include/cmsis_gcc.h ****   Stack Pointer Limit register hence zero is returned always in non-secure
 674:Drivers/CMSIS/Include/cmsis_gcc.h ****   mode.
 675:Drivers/CMSIS/Include/cmsis_gcc.h **** 
 676:Drivers/CMSIS/Include/cmsis_gcc.h ****   \details Returns the current value of the Main Stack Pointer Limit (MSPLIM).
 677:Drivers/CMSIS/Include/cmsis_gcc.h ****   \return               MSPLIM Register value
 678:Drivers/CMSIS/Include/cmsis_gcc.h ****  */
 679:Drivers/CMSIS/Include/cmsis_gcc.h **** __STATIC_FORCEINLINE uint32_t __get_MSPLIM(void)
 680:Drivers/CMSIS/Include/cmsis_gcc.h **** {
 681:Drivers/CMSIS/Include/cmsis_gcc.h **** #if (!(defined (__ARM_ARCH_8M_MAIN__ ) && (__ARM_ARCH_8M_MAIN__ == 1)) && \
 682:Drivers/CMSIS/Include/cmsis_gcc.h ****     (!defined (__ARM_FEATURE_CMSE) || (__ARM_FEATURE_CMSE < 3)))
 683:Drivers/CMSIS/Include/cmsis_gcc.h ****   // without main extensions, the non-secure MSPLIM is RAZ/WI
 684:Drivers/CMSIS/Include/cmsis_gcc.h ****   return 0U;
 685:Drivers/CMSIS/Include/cmsis_gcc.h **** #else
 686:Drivers/CMSIS/Include/cmsis_gcc.h ****   uint32_t result;
 687:Drivers/CMSIS/Include/cmsis_gcc.h ****   __ASM volatile ("MRS %0, msplim" : "=r" (result) );
 688:Drivers/CMSIS/Include/cmsis_gcc.h ****   return result;
 689:Drivers/CMSIS/Include/cmsis_gcc.h **** #endif
 690:Drivers/CMSIS/Include/cmsis_gcc.h **** }
 691:Drivers/CMSIS/Include/cmsis_gcc.h **** 
 692:Drivers/CMSIS/Include/cmsis_gcc.h **** 
 693:Drivers/CMSIS/Include/cmsis_gcc.h **** #if (defined (__ARM_FEATURE_CMSE  ) && (__ARM_FEATURE_CMSE   == 3))
 694:Drivers/CMSIS/Include/cmsis_gcc.h **** /**
 695:Drivers/CMSIS/Include/cmsis_gcc.h ****   \brief   Get Main Stack Pointer Limit (non-secure)
 696:Drivers/CMSIS/Include/cmsis_gcc.h ****   Devices without ARMv8-M Main Extensions (i.e. Cortex-M23) lack the non-secure
 697:Drivers/CMSIS/Include/cmsis_gcc.h ****   Stack Pointer Limit register hence zero is returned always.
 698:Drivers/CMSIS/Include/cmsis_gcc.h **** 
 699:Drivers/CMSIS/Include/cmsis_gcc.h ****   \details Returns the current value of the non-secure Main Stack Pointer Limit(MSPLIM) when in sec
 700:Drivers/CMSIS/Include/cmsis_gcc.h ****   \return               MSPLIM Register value
 701:Drivers/CMSIS/Include/cmsis_gcc.h ****  */
 702:Drivers/CMSIS/Include/cmsis_gcc.h **** __STATIC_FORCEINLINE uint32_t __TZ_get_MSPLIM_NS(void)
 703:Drivers/CMSIS/Include/cmsis_gcc.h **** {
 704:Drivers/CMSIS/Include/cmsis_gcc.h **** #if (!(defined (__ARM_ARCH_8M_MAIN__ ) && (__ARM_ARCH_8M_MAIN__ == 1)))
ARM GAS  /var/folders/b1/22c950295gx2kqj80tvj8wqc0000gn/T//ccYsOlQx.s 			page 18


 705:Drivers/CMSIS/Include/cmsis_gcc.h ****   // without main extensions, the non-secure MSPLIM is RAZ/WI
 706:Drivers/CMSIS/Include/cmsis_gcc.h ****   return 0U;
 707:Drivers/CMSIS/Include/cmsis_gcc.h **** #else
 708:Drivers/CMSIS/Include/cmsis_gcc.h ****   uint32_t result;
 709:Drivers/CMSIS/Include/cmsis_gcc.h ****   __ASM volatile ("MRS %0, msplim_ns" : "=r" (result) );
 710:Drivers/CMSIS/Include/cmsis_gcc.h ****   return result;
 711:Drivers/CMSIS/Include/cmsis_gcc.h **** #endif
 712:Drivers/CMSIS/Include/cmsis_gcc.h **** }
 713:Drivers/CMSIS/Include/cmsis_gcc.h **** #endif
 714:Drivers/CMSIS/Include/cmsis_gcc.h **** 
 715:Drivers/CMSIS/Include/cmsis_gcc.h **** 
 716:Drivers/CMSIS/Include/cmsis_gcc.h **** /**
 717:Drivers/CMSIS/Include/cmsis_gcc.h ****   \brief   Set Main Stack Pointer Limit
 718:Drivers/CMSIS/Include/cmsis_gcc.h ****   Devices without ARMv8-M Main Extensions (i.e. Cortex-M23) lack the non-secure
 719:Drivers/CMSIS/Include/cmsis_gcc.h ****   Stack Pointer Limit register hence the write is silently ignored in non-secure
 720:Drivers/CMSIS/Include/cmsis_gcc.h ****   mode.
 721:Drivers/CMSIS/Include/cmsis_gcc.h **** 
 722:Drivers/CMSIS/Include/cmsis_gcc.h ****   \details Assigns the given value to the Main Stack Pointer Limit (MSPLIM).
 723:Drivers/CMSIS/Include/cmsis_gcc.h ****   \param [in]    MainStackPtrLimit  Main Stack Pointer Limit value to set
 724:Drivers/CMSIS/Include/cmsis_gcc.h ****  */
 725:Drivers/CMSIS/Include/cmsis_gcc.h **** __STATIC_FORCEINLINE void __set_MSPLIM(uint32_t MainStackPtrLimit)
 726:Drivers/CMSIS/Include/cmsis_gcc.h **** {
 727:Drivers/CMSIS/Include/cmsis_gcc.h **** #if (!(defined (__ARM_ARCH_8M_MAIN__ ) && (__ARM_ARCH_8M_MAIN__ == 1)) && \
 728:Drivers/CMSIS/Include/cmsis_gcc.h ****     (!defined (__ARM_FEATURE_CMSE) || (__ARM_FEATURE_CMSE < 3)))
 729:Drivers/CMSIS/Include/cmsis_gcc.h ****   // without main extensions, the non-secure MSPLIM is RAZ/WI
 730:Drivers/CMSIS/Include/cmsis_gcc.h ****   (void)MainStackPtrLimit;
 731:Drivers/CMSIS/Include/cmsis_gcc.h **** #else
 732:Drivers/CMSIS/Include/cmsis_gcc.h ****   __ASM volatile ("MSR msplim, %0" : : "r" (MainStackPtrLimit));
 733:Drivers/CMSIS/Include/cmsis_gcc.h **** #endif
 734:Drivers/CMSIS/Include/cmsis_gcc.h **** }
 735:Drivers/CMSIS/Include/cmsis_gcc.h **** 
 736:Drivers/CMSIS/Include/cmsis_gcc.h **** 
 737:Drivers/CMSIS/Include/cmsis_gcc.h **** #if (defined (__ARM_FEATURE_CMSE  ) && (__ARM_FEATURE_CMSE   == 3))
 738:Drivers/CMSIS/Include/cmsis_gcc.h **** /**
 739:Drivers/CMSIS/Include/cmsis_gcc.h ****   \brief   Set Main Stack Pointer Limit (non-secure)
 740:Drivers/CMSIS/Include/cmsis_gcc.h ****   Devices without ARMv8-M Main Extensions (i.e. Cortex-M23) lack the non-secure
 741:Drivers/CMSIS/Include/cmsis_gcc.h ****   Stack Pointer Limit register hence the write is silently ignored.
 742:Drivers/CMSIS/Include/cmsis_gcc.h **** 
 743:Drivers/CMSIS/Include/cmsis_gcc.h ****   \details Assigns the given value to the non-secure Main Stack Pointer Limit (MSPLIM) when in secu
 744:Drivers/CMSIS/Include/cmsis_gcc.h ****   \param [in]    MainStackPtrLimit  Main Stack Pointer value to set
 745:Drivers/CMSIS/Include/cmsis_gcc.h ****  */
 746:Drivers/CMSIS/Include/cmsis_gcc.h **** __STATIC_FORCEINLINE void __TZ_set_MSPLIM_NS(uint32_t MainStackPtrLimit)
 747:Drivers/CMSIS/Include/cmsis_gcc.h **** {
 748:Drivers/CMSIS/Include/cmsis_gcc.h **** #if (!(defined (__ARM_ARCH_8M_MAIN__ ) && (__ARM_ARCH_8M_MAIN__ == 1)))
 749:Drivers/CMSIS/Include/cmsis_gcc.h ****   // without main extensions, the non-secure MSPLIM is RAZ/WI
 750:Drivers/CMSIS/Include/cmsis_gcc.h ****   (void)MainStackPtrLimit;
 751:Drivers/CMSIS/Include/cmsis_gcc.h **** #else
 752:Drivers/CMSIS/Include/cmsis_gcc.h ****   __ASM volatile ("MSR msplim_ns, %0" : : "r" (MainStackPtrLimit));
 753:Drivers/CMSIS/Include/cmsis_gcc.h **** #endif
 754:Drivers/CMSIS/Include/cmsis_gcc.h **** }
 755:Drivers/CMSIS/Include/cmsis_gcc.h **** #endif
 756:Drivers/CMSIS/Include/cmsis_gcc.h **** 
 757:Drivers/CMSIS/Include/cmsis_gcc.h **** #endif /* ((defined (__ARM_ARCH_8M_MAIN__ ) && (__ARM_ARCH_8M_MAIN__ == 1)) || \
 758:Drivers/CMSIS/Include/cmsis_gcc.h ****            (defined (__ARM_ARCH_8M_BASE__ ) && (__ARM_ARCH_8M_BASE__ == 1))    ) */
 759:Drivers/CMSIS/Include/cmsis_gcc.h **** 
 760:Drivers/CMSIS/Include/cmsis_gcc.h **** 
 761:Drivers/CMSIS/Include/cmsis_gcc.h **** /**
ARM GAS  /var/folders/b1/22c950295gx2kqj80tvj8wqc0000gn/T//ccYsOlQx.s 			page 19


 762:Drivers/CMSIS/Include/cmsis_gcc.h ****   \brief   Get FPSCR
 763:Drivers/CMSIS/Include/cmsis_gcc.h ****   \details Returns the current value of the Floating Point Status/Control register.
 764:Drivers/CMSIS/Include/cmsis_gcc.h ****   \return               Floating Point Status/Control register value
 765:Drivers/CMSIS/Include/cmsis_gcc.h ****  */
 766:Drivers/CMSIS/Include/cmsis_gcc.h **** __STATIC_FORCEINLINE uint32_t __get_FPSCR(void)
 767:Drivers/CMSIS/Include/cmsis_gcc.h **** {
 768:Drivers/CMSIS/Include/cmsis_gcc.h **** #if ((defined (__FPU_PRESENT) && (__FPU_PRESENT == 1U)) && \
 769:Drivers/CMSIS/Include/cmsis_gcc.h ****      (defined (__FPU_USED   ) && (__FPU_USED    == 1U))     )
 770:Drivers/CMSIS/Include/cmsis_gcc.h **** #if __has_builtin(__builtin_arm_get_fpscr) 
 771:Drivers/CMSIS/Include/cmsis_gcc.h **** // Re-enable using built-in when GCC has been fixed
 772:Drivers/CMSIS/Include/cmsis_gcc.h **** // || (__GNUC__ > 7) || (__GNUC__ == 7 && __GNUC_MINOR__ >= 2)
 773:Drivers/CMSIS/Include/cmsis_gcc.h ****   /* see https://gcc.gnu.org/ml/gcc-patches/2017-04/msg00443.html */
 774:Drivers/CMSIS/Include/cmsis_gcc.h ****   return __builtin_arm_get_fpscr();
 775:Drivers/CMSIS/Include/cmsis_gcc.h **** #else
 776:Drivers/CMSIS/Include/cmsis_gcc.h ****   uint32_t result;
 777:Drivers/CMSIS/Include/cmsis_gcc.h **** 
 778:Drivers/CMSIS/Include/cmsis_gcc.h ****   __ASM volatile ("VMRS %0, fpscr" : "=r" (result) );
 779:Drivers/CMSIS/Include/cmsis_gcc.h ****   return(result);
 780:Drivers/CMSIS/Include/cmsis_gcc.h **** #endif
 781:Drivers/CMSIS/Include/cmsis_gcc.h **** #else
 782:Drivers/CMSIS/Include/cmsis_gcc.h ****   return(0U);
 783:Drivers/CMSIS/Include/cmsis_gcc.h **** #endif
 784:Drivers/CMSIS/Include/cmsis_gcc.h **** }
 785:Drivers/CMSIS/Include/cmsis_gcc.h **** 
 786:Drivers/CMSIS/Include/cmsis_gcc.h **** 
 787:Drivers/CMSIS/Include/cmsis_gcc.h **** /**
 788:Drivers/CMSIS/Include/cmsis_gcc.h ****   \brief   Set FPSCR
 789:Drivers/CMSIS/Include/cmsis_gcc.h ****   \details Assigns the given value to the Floating Point Status/Control register.
 790:Drivers/CMSIS/Include/cmsis_gcc.h ****   \param [in]    fpscr  Floating Point Status/Control value to set
 791:Drivers/CMSIS/Include/cmsis_gcc.h ****  */
 792:Drivers/CMSIS/Include/cmsis_gcc.h **** __STATIC_FORCEINLINE void __set_FPSCR(uint32_t fpscr)
 793:Drivers/CMSIS/Include/cmsis_gcc.h **** {
 794:Drivers/CMSIS/Include/cmsis_gcc.h **** #if ((defined (__FPU_PRESENT) && (__FPU_PRESENT == 1U)) && \
 795:Drivers/CMSIS/Include/cmsis_gcc.h ****      (defined (__FPU_USED   ) && (__FPU_USED    == 1U))     )
 796:Drivers/CMSIS/Include/cmsis_gcc.h **** #if __has_builtin(__builtin_arm_set_fpscr)
 797:Drivers/CMSIS/Include/cmsis_gcc.h **** // Re-enable using built-in when GCC has been fixed
 798:Drivers/CMSIS/Include/cmsis_gcc.h **** // || (__GNUC__ > 7) || (__GNUC__ == 7 && __GNUC_MINOR__ >= 2)
 799:Drivers/CMSIS/Include/cmsis_gcc.h ****   /* see https://gcc.gnu.org/ml/gcc-patches/2017-04/msg00443.html */
 800:Drivers/CMSIS/Include/cmsis_gcc.h ****   __builtin_arm_set_fpscr(fpscr);
 801:Drivers/CMSIS/Include/cmsis_gcc.h **** #else
 802:Drivers/CMSIS/Include/cmsis_gcc.h ****   __ASM volatile ("VMSR fpscr, %0" : : "r" (fpscr) : "vfpcc", "memory");
 803:Drivers/CMSIS/Include/cmsis_gcc.h **** #endif
 804:Drivers/CMSIS/Include/cmsis_gcc.h **** #else
 805:Drivers/CMSIS/Include/cmsis_gcc.h ****   (void)fpscr;
 806:Drivers/CMSIS/Include/cmsis_gcc.h **** #endif
 807:Drivers/CMSIS/Include/cmsis_gcc.h **** }
 808:Drivers/CMSIS/Include/cmsis_gcc.h **** 
 809:Drivers/CMSIS/Include/cmsis_gcc.h **** 
 810:Drivers/CMSIS/Include/cmsis_gcc.h **** /*@} end of CMSIS_Core_RegAccFunctions */
 811:Drivers/CMSIS/Include/cmsis_gcc.h **** 
 812:Drivers/CMSIS/Include/cmsis_gcc.h **** 
 813:Drivers/CMSIS/Include/cmsis_gcc.h **** /* ##########################  Core Instruction Access  ######################### */
 814:Drivers/CMSIS/Include/cmsis_gcc.h **** /** \defgroup CMSIS_Core_InstructionInterface CMSIS Core Instruction Interface
 815:Drivers/CMSIS/Include/cmsis_gcc.h ****   Access to dedicated instructions
 816:Drivers/CMSIS/Include/cmsis_gcc.h ****   @{
 817:Drivers/CMSIS/Include/cmsis_gcc.h **** */
 818:Drivers/CMSIS/Include/cmsis_gcc.h **** 
ARM GAS  /var/folders/b1/22c950295gx2kqj80tvj8wqc0000gn/T//ccYsOlQx.s 			page 20


 819:Drivers/CMSIS/Include/cmsis_gcc.h **** /* Define macros for porting to both thumb1 and thumb2.
 820:Drivers/CMSIS/Include/cmsis_gcc.h ****  * For thumb1, use low register (r0-r7), specified by constraint "l"
 821:Drivers/CMSIS/Include/cmsis_gcc.h ****  * Otherwise, use general registers, specified by constraint "r" */
 822:Drivers/CMSIS/Include/cmsis_gcc.h **** #if defined (__thumb__) && !defined (__thumb2__)
 823:Drivers/CMSIS/Include/cmsis_gcc.h **** #define __CMSIS_GCC_OUT_REG(r) "=l" (r)
 824:Drivers/CMSIS/Include/cmsis_gcc.h **** #define __CMSIS_GCC_RW_REG(r) "+l" (r)
 825:Drivers/CMSIS/Include/cmsis_gcc.h **** #define __CMSIS_GCC_USE_REG(r) "l" (r)
 826:Drivers/CMSIS/Include/cmsis_gcc.h **** #else
 827:Drivers/CMSIS/Include/cmsis_gcc.h **** #define __CMSIS_GCC_OUT_REG(r) "=r" (r)
 828:Drivers/CMSIS/Include/cmsis_gcc.h **** #define __CMSIS_GCC_RW_REG(r) "+r" (r)
 829:Drivers/CMSIS/Include/cmsis_gcc.h **** #define __CMSIS_GCC_USE_REG(r) "r" (r)
 830:Drivers/CMSIS/Include/cmsis_gcc.h **** #endif
 831:Drivers/CMSIS/Include/cmsis_gcc.h **** 
 832:Drivers/CMSIS/Include/cmsis_gcc.h **** /**
 833:Drivers/CMSIS/Include/cmsis_gcc.h ****   \brief   No Operation
 834:Drivers/CMSIS/Include/cmsis_gcc.h ****   \details No Operation does nothing. This instruction can be used for code alignment purposes.
 835:Drivers/CMSIS/Include/cmsis_gcc.h ****  */
 836:Drivers/CMSIS/Include/cmsis_gcc.h **** #define __NOP()                             __ASM volatile ("nop")
 837:Drivers/CMSIS/Include/cmsis_gcc.h **** 
 838:Drivers/CMSIS/Include/cmsis_gcc.h **** /**
 839:Drivers/CMSIS/Include/cmsis_gcc.h ****   \brief   Wait For Interrupt
 840:Drivers/CMSIS/Include/cmsis_gcc.h ****   \details Wait For Interrupt is a hint instruction that suspends execution until one of a number o
 841:Drivers/CMSIS/Include/cmsis_gcc.h ****  */
 842:Drivers/CMSIS/Include/cmsis_gcc.h **** #define __WFI()                             __ASM volatile ("wfi")
 843:Drivers/CMSIS/Include/cmsis_gcc.h **** 
 844:Drivers/CMSIS/Include/cmsis_gcc.h **** 
 845:Drivers/CMSIS/Include/cmsis_gcc.h **** /**
 846:Drivers/CMSIS/Include/cmsis_gcc.h ****   \brief   Wait For Event
 847:Drivers/CMSIS/Include/cmsis_gcc.h ****   \details Wait For Event is a hint instruction that permits the processor to enter
 848:Drivers/CMSIS/Include/cmsis_gcc.h ****            a low-power state until one of a number of events occurs.
 849:Drivers/CMSIS/Include/cmsis_gcc.h ****  */
 850:Drivers/CMSIS/Include/cmsis_gcc.h **** #define __WFE()                             __ASM volatile ("wfe")
 851:Drivers/CMSIS/Include/cmsis_gcc.h **** 
 852:Drivers/CMSIS/Include/cmsis_gcc.h **** 
 853:Drivers/CMSIS/Include/cmsis_gcc.h **** /**
 854:Drivers/CMSIS/Include/cmsis_gcc.h ****   \brief   Send Event
 855:Drivers/CMSIS/Include/cmsis_gcc.h ****   \details Send Event is a hint instruction. It causes an event to be signaled to the CPU.
 856:Drivers/CMSIS/Include/cmsis_gcc.h ****  */
 857:Drivers/CMSIS/Include/cmsis_gcc.h **** #define __SEV()                             __ASM volatile ("sev")
 858:Drivers/CMSIS/Include/cmsis_gcc.h **** 
 859:Drivers/CMSIS/Include/cmsis_gcc.h **** 
 860:Drivers/CMSIS/Include/cmsis_gcc.h **** /**
 861:Drivers/CMSIS/Include/cmsis_gcc.h ****   \brief   Instruction Synchronization Barrier
 862:Drivers/CMSIS/Include/cmsis_gcc.h ****   \details Instruction Synchronization Barrier flushes the pipeline in the processor,
 863:Drivers/CMSIS/Include/cmsis_gcc.h ****            so that all instructions following the ISB are fetched from cache or memory,
 864:Drivers/CMSIS/Include/cmsis_gcc.h ****            after the instruction has been completed.
 865:Drivers/CMSIS/Include/cmsis_gcc.h ****  */
 866:Drivers/CMSIS/Include/cmsis_gcc.h **** __STATIC_FORCEINLINE void __ISB(void)
 867:Drivers/CMSIS/Include/cmsis_gcc.h **** {
 868:Drivers/CMSIS/Include/cmsis_gcc.h ****   __ASM volatile ("isb 0xF":::"memory");
 869:Drivers/CMSIS/Include/cmsis_gcc.h **** }
 870:Drivers/CMSIS/Include/cmsis_gcc.h **** 
 871:Drivers/CMSIS/Include/cmsis_gcc.h **** 
 872:Drivers/CMSIS/Include/cmsis_gcc.h **** /**
 873:Drivers/CMSIS/Include/cmsis_gcc.h ****   \brief   Data Synchronization Barrier
 874:Drivers/CMSIS/Include/cmsis_gcc.h ****   \details Acts as a special kind of Data Memory Barrier.
 875:Drivers/CMSIS/Include/cmsis_gcc.h ****            It completes when all explicit memory accesses before this instruction complete.
ARM GAS  /var/folders/b1/22c950295gx2kqj80tvj8wqc0000gn/T//ccYsOlQx.s 			page 21


 876:Drivers/CMSIS/Include/cmsis_gcc.h ****  */
 877:Drivers/CMSIS/Include/cmsis_gcc.h **** __STATIC_FORCEINLINE void __DSB(void)
 878:Drivers/CMSIS/Include/cmsis_gcc.h **** {
 879:Drivers/CMSIS/Include/cmsis_gcc.h ****   __ASM volatile ("dsb 0xF":::"memory");
 880:Drivers/CMSIS/Include/cmsis_gcc.h **** }
 881:Drivers/CMSIS/Include/cmsis_gcc.h **** 
 882:Drivers/CMSIS/Include/cmsis_gcc.h **** 
 883:Drivers/CMSIS/Include/cmsis_gcc.h **** /**
 884:Drivers/CMSIS/Include/cmsis_gcc.h ****   \brief   Data Memory Barrier
 885:Drivers/CMSIS/Include/cmsis_gcc.h ****   \details Ensures the apparent order of the explicit memory operations before
 886:Drivers/CMSIS/Include/cmsis_gcc.h ****            and after the instruction, without ensuring their completion.
 887:Drivers/CMSIS/Include/cmsis_gcc.h ****  */
 888:Drivers/CMSIS/Include/cmsis_gcc.h **** __STATIC_FORCEINLINE void __DMB(void)
 889:Drivers/CMSIS/Include/cmsis_gcc.h **** {
 890:Drivers/CMSIS/Include/cmsis_gcc.h ****   __ASM volatile ("dmb 0xF":::"memory");
 891:Drivers/CMSIS/Include/cmsis_gcc.h **** }
 892:Drivers/CMSIS/Include/cmsis_gcc.h **** 
 893:Drivers/CMSIS/Include/cmsis_gcc.h **** 
 894:Drivers/CMSIS/Include/cmsis_gcc.h **** /**
 895:Drivers/CMSIS/Include/cmsis_gcc.h ****   \brief   Reverse byte order (32 bit)
 896:Drivers/CMSIS/Include/cmsis_gcc.h ****   \details Reverses the byte order in unsigned integer value. For example, 0x12345678 becomes 0x785
 897:Drivers/CMSIS/Include/cmsis_gcc.h ****   \param [in]    value  Value to reverse
 898:Drivers/CMSIS/Include/cmsis_gcc.h ****   \return               Reversed value
 899:Drivers/CMSIS/Include/cmsis_gcc.h ****  */
 900:Drivers/CMSIS/Include/cmsis_gcc.h **** __STATIC_FORCEINLINE uint32_t __REV(uint32_t value)
 901:Drivers/CMSIS/Include/cmsis_gcc.h **** {
 902:Drivers/CMSIS/Include/cmsis_gcc.h **** #if (__GNUC__ > 4) || (__GNUC__ == 4 && __GNUC_MINOR__ >= 5)
 903:Drivers/CMSIS/Include/cmsis_gcc.h ****   return __builtin_bswap32(value);
 904:Drivers/CMSIS/Include/cmsis_gcc.h **** #else
 905:Drivers/CMSIS/Include/cmsis_gcc.h ****   uint32_t result;
 906:Drivers/CMSIS/Include/cmsis_gcc.h **** 
 907:Drivers/CMSIS/Include/cmsis_gcc.h ****   __ASM volatile ("rev %0, %1" : __CMSIS_GCC_OUT_REG (result) : __CMSIS_GCC_USE_REG (value) );
 908:Drivers/CMSIS/Include/cmsis_gcc.h ****   return result;
 909:Drivers/CMSIS/Include/cmsis_gcc.h **** #endif
 910:Drivers/CMSIS/Include/cmsis_gcc.h **** }
 911:Drivers/CMSIS/Include/cmsis_gcc.h **** 
 912:Drivers/CMSIS/Include/cmsis_gcc.h **** 
 913:Drivers/CMSIS/Include/cmsis_gcc.h **** /**
 914:Drivers/CMSIS/Include/cmsis_gcc.h ****   \brief   Reverse byte order (16 bit)
 915:Drivers/CMSIS/Include/cmsis_gcc.h ****   \details Reverses the byte order within each halfword of a word. For example, 0x12345678 becomes 
 916:Drivers/CMSIS/Include/cmsis_gcc.h ****   \param [in]    value  Value to reverse
 917:Drivers/CMSIS/Include/cmsis_gcc.h ****   \return               Reversed value
 918:Drivers/CMSIS/Include/cmsis_gcc.h ****  */
 919:Drivers/CMSIS/Include/cmsis_gcc.h **** __STATIC_FORCEINLINE uint32_t __REV16(uint32_t value)
 920:Drivers/CMSIS/Include/cmsis_gcc.h **** {
 921:Drivers/CMSIS/Include/cmsis_gcc.h ****   uint32_t result;
 922:Drivers/CMSIS/Include/cmsis_gcc.h **** 
 923:Drivers/CMSIS/Include/cmsis_gcc.h ****   __ASM volatile ("rev16 %0, %1" : __CMSIS_GCC_OUT_REG (result) : __CMSIS_GCC_USE_REG (value) );
 924:Drivers/CMSIS/Include/cmsis_gcc.h ****   return result;
 925:Drivers/CMSIS/Include/cmsis_gcc.h **** }
 926:Drivers/CMSIS/Include/cmsis_gcc.h **** 
 927:Drivers/CMSIS/Include/cmsis_gcc.h **** 
 928:Drivers/CMSIS/Include/cmsis_gcc.h **** /**
 929:Drivers/CMSIS/Include/cmsis_gcc.h ****   \brief   Reverse byte order (16 bit)
 930:Drivers/CMSIS/Include/cmsis_gcc.h ****   \details Reverses the byte order in a 16-bit value and returns the signed 16-bit result. For exam
 931:Drivers/CMSIS/Include/cmsis_gcc.h ****   \param [in]    value  Value to reverse
 932:Drivers/CMSIS/Include/cmsis_gcc.h ****   \return               Reversed value
ARM GAS  /var/folders/b1/22c950295gx2kqj80tvj8wqc0000gn/T//ccYsOlQx.s 			page 22


 933:Drivers/CMSIS/Include/cmsis_gcc.h ****  */
 934:Drivers/CMSIS/Include/cmsis_gcc.h **** __STATIC_FORCEINLINE int16_t __REVSH(int16_t value)
 935:Drivers/CMSIS/Include/cmsis_gcc.h **** {
 936:Drivers/CMSIS/Include/cmsis_gcc.h **** #if (__GNUC__ > 4) || (__GNUC__ == 4 && __GNUC_MINOR__ >= 8)
 937:Drivers/CMSIS/Include/cmsis_gcc.h ****   return (int16_t)__builtin_bswap16(value);
 938:Drivers/CMSIS/Include/cmsis_gcc.h **** #else
 939:Drivers/CMSIS/Include/cmsis_gcc.h ****   int16_t result;
 940:Drivers/CMSIS/Include/cmsis_gcc.h **** 
 941:Drivers/CMSIS/Include/cmsis_gcc.h ****   __ASM volatile ("revsh %0, %1" : __CMSIS_GCC_OUT_REG (result) : __CMSIS_GCC_USE_REG (value) );
 942:Drivers/CMSIS/Include/cmsis_gcc.h ****   return result;
 943:Drivers/CMSIS/Include/cmsis_gcc.h **** #endif
 944:Drivers/CMSIS/Include/cmsis_gcc.h **** }
 945:Drivers/CMSIS/Include/cmsis_gcc.h **** 
 946:Drivers/CMSIS/Include/cmsis_gcc.h **** 
 947:Drivers/CMSIS/Include/cmsis_gcc.h **** /**
 948:Drivers/CMSIS/Include/cmsis_gcc.h ****   \brief   Rotate Right in unsigned value (32 bit)
 949:Drivers/CMSIS/Include/cmsis_gcc.h ****   \details Rotate Right (immediate) provides the value of the contents of a register rotated by a v
 950:Drivers/CMSIS/Include/cmsis_gcc.h ****   \param [in]    op1  Value to rotate
 951:Drivers/CMSIS/Include/cmsis_gcc.h ****   \param [in]    op2  Number of Bits to rotate
 952:Drivers/CMSIS/Include/cmsis_gcc.h ****   \return               Rotated value
 953:Drivers/CMSIS/Include/cmsis_gcc.h ****  */
 954:Drivers/CMSIS/Include/cmsis_gcc.h **** __STATIC_FORCEINLINE uint32_t __ROR(uint32_t op1, uint32_t op2)
 955:Drivers/CMSIS/Include/cmsis_gcc.h **** {
 956:Drivers/CMSIS/Include/cmsis_gcc.h ****   op2 %= 32U;
 957:Drivers/CMSIS/Include/cmsis_gcc.h ****   if (op2 == 0U)
 958:Drivers/CMSIS/Include/cmsis_gcc.h ****   {
 959:Drivers/CMSIS/Include/cmsis_gcc.h ****     return op1;
 960:Drivers/CMSIS/Include/cmsis_gcc.h ****   }
 961:Drivers/CMSIS/Include/cmsis_gcc.h ****   return (op1 >> op2) | (op1 << (32U - op2));
 962:Drivers/CMSIS/Include/cmsis_gcc.h **** }
 963:Drivers/CMSIS/Include/cmsis_gcc.h **** 
 964:Drivers/CMSIS/Include/cmsis_gcc.h **** 
 965:Drivers/CMSIS/Include/cmsis_gcc.h **** /**
 966:Drivers/CMSIS/Include/cmsis_gcc.h ****   \brief   Breakpoint
 967:Drivers/CMSIS/Include/cmsis_gcc.h ****   \details Causes the processor to enter Debug state.
 968:Drivers/CMSIS/Include/cmsis_gcc.h ****            Debug tools can use this to investigate system state when the instruction at a particula
 969:Drivers/CMSIS/Include/cmsis_gcc.h ****   \param [in]    value  is ignored by the processor.
 970:Drivers/CMSIS/Include/cmsis_gcc.h ****                  If required, a debugger can use it to store additional information about the break
 971:Drivers/CMSIS/Include/cmsis_gcc.h ****  */
 972:Drivers/CMSIS/Include/cmsis_gcc.h **** #define __BKPT(value)                       __ASM volatile ("bkpt "#value)
 973:Drivers/CMSIS/Include/cmsis_gcc.h **** 
 974:Drivers/CMSIS/Include/cmsis_gcc.h **** 
 975:Drivers/CMSIS/Include/cmsis_gcc.h **** /**
 976:Drivers/CMSIS/Include/cmsis_gcc.h ****   \brief   Reverse bit order of value
 977:Drivers/CMSIS/Include/cmsis_gcc.h ****   \details Reverses the bit order of the given value.
 978:Drivers/CMSIS/Include/cmsis_gcc.h ****   \param [in]    value  Value to reverse
 979:Drivers/CMSIS/Include/cmsis_gcc.h ****   \return               Reversed value
 980:Drivers/CMSIS/Include/cmsis_gcc.h ****  */
 981:Drivers/CMSIS/Include/cmsis_gcc.h **** __STATIC_FORCEINLINE uint32_t __RBIT(uint32_t value)
 982:Drivers/CMSIS/Include/cmsis_gcc.h **** {
 983:Drivers/CMSIS/Include/cmsis_gcc.h ****   uint32_t result;
 984:Drivers/CMSIS/Include/cmsis_gcc.h **** 
 985:Drivers/CMSIS/Include/cmsis_gcc.h **** #if ((defined (__ARM_ARCH_7M__      ) && (__ARM_ARCH_7M__      == 1)) || \
 986:Drivers/CMSIS/Include/cmsis_gcc.h ****      (defined (__ARM_ARCH_7EM__     ) && (__ARM_ARCH_7EM__     == 1)) || \
 987:Drivers/CMSIS/Include/cmsis_gcc.h ****      (defined (__ARM_ARCH_8M_MAIN__ ) && (__ARM_ARCH_8M_MAIN__ == 1))    )
 988:Drivers/CMSIS/Include/cmsis_gcc.h ****    __ASM volatile ("rbit %0, %1" : "=r" (result) : "r" (value) );
 109              		.loc 2 988 4 view .LVU31
ARM GAS  /var/folders/b1/22c950295gx2kqj80tvj8wqc0000gn/T//ccYsOlQx.s 			page 23


 110 003e 4FF48033 		mov	r3, #65536
 111              	.LVL6:
 112              		.loc 2 988 4 view .LVU32
 113              	.LBE18:
 114              	.LBE17:
 115              		.loc 1 154 16 view .LVU33
 116 0042 21F44070 		bic	r0, r1, #768
 117              	.LVL7:
 155:Drivers/STM32F3xx_HAL_Driver/Src/stm32f3xx_hal_rcc_ex.c ****       /* RTC Clock selection can be changed only if the Backup Domain is reset */
 156:Drivers/STM32F3xx_HAL_Driver/Src/stm32f3xx_hal_rcc_ex.c ****       __HAL_RCC_BACKUPRESET_FORCE();
 118              		.loc 1 156 7 is_stmt 1 view .LVU34
 119              	.LBB20:
 120              	.LBI17:
 981:Drivers/CMSIS/Include/cmsis_gcc.h **** {
 121              		.loc 2 981 31 view .LVU35
 122              	.LBB19:
 983:Drivers/CMSIS/Include/cmsis_gcc.h **** 
 123              		.loc 2 983 3 view .LVU36
 124              		.loc 2 988 4 view .LVU37
 125              		.syntax unified
 126              	@ 988 "Drivers/CMSIS/Include/cmsis_gcc.h" 1
 127 0046 93FAA3F2 		rbit r2, r3
 128              	@ 0 "" 2
 129              	.LVL8:
 989:Drivers/CMSIS/Include/cmsis_gcc.h **** #else
 990:Drivers/CMSIS/Include/cmsis_gcc.h ****   uint32_t s = (4U /*sizeof(v)*/ * 8U) - 1U; /* extra shift needed at end */
 991:Drivers/CMSIS/Include/cmsis_gcc.h **** 
 992:Drivers/CMSIS/Include/cmsis_gcc.h ****   result = value;                      /* r will be reversed bits of v; first get LSB of v */
 993:Drivers/CMSIS/Include/cmsis_gcc.h ****   for (value >>= 1U; value != 0U; value >>= 1U)
 994:Drivers/CMSIS/Include/cmsis_gcc.h ****   {
 995:Drivers/CMSIS/Include/cmsis_gcc.h ****     result <<= 1U;
 996:Drivers/CMSIS/Include/cmsis_gcc.h ****     result |= value & 1U;
 997:Drivers/CMSIS/Include/cmsis_gcc.h ****     s--;
 998:Drivers/CMSIS/Include/cmsis_gcc.h ****   }
 999:Drivers/CMSIS/Include/cmsis_gcc.h ****   result <<= s;                        /* shift when v's highest bits are zero */
1000:Drivers/CMSIS/Include/cmsis_gcc.h **** #endif
1001:Drivers/CMSIS/Include/cmsis_gcc.h ****   return result;
 130              		.loc 2 1001 3 view .LVU38
 131              		.loc 2 1001 3 is_stmt 0 view .LVU39
 132              		.thumb
 133              		.syntax unified
 134              	.LBE19:
 135              	.LBE20:
 136              		.loc 1 156 7 view .LVU40
 137 004a 4C4F     		ldr	r7, .L46+8
 138 004c B2FA82F2 		clz	r2, r2
 139 0050 3A44     		add	r2, r2, r7
 140 0052 9200     		lsls	r2, r2, #2
 141 0054 0125     		movs	r5, #1
 142 0056 1560     		str	r5, [r2]
 157:Drivers/STM32F3xx_HAL_Driver/Src/stm32f3xx_hal_rcc_ex.c ****       __HAL_RCC_BACKUPRESET_RELEASE();
 143              		.loc 1 157 7 is_stmt 1 view .LVU41
 144              	.LVL9:
 145              	.LBB21:
 146              	.LBI21:
 981:Drivers/CMSIS/Include/cmsis_gcc.h **** {
 147              		.loc 2 981 31 view .LVU42
ARM GAS  /var/folders/b1/22c950295gx2kqj80tvj8wqc0000gn/T//ccYsOlQx.s 			page 24


 148              	.LBB22:
 983:Drivers/CMSIS/Include/cmsis_gcc.h **** 
 149              		.loc 2 983 3 view .LVU43
 988:Drivers/CMSIS/Include/cmsis_gcc.h **** #else
 150              		.loc 2 988 4 view .LVU44
 151              		.syntax unified
 152              	@ 988 "Drivers/CMSIS/Include/cmsis_gcc.h" 1
 153 0058 93FAA3F3 		rbit r3, r3
 154              	@ 0 "" 2
 155              	.LVL10:
 156              		.loc 2 1001 3 view .LVU45
 157              		.loc 2 1001 3 is_stmt 0 view .LVU46
 158              		.thumb
 159              		.syntax unified
 160              	.LBE22:
 161              	.LBE21:
 162              		.loc 1 157 7 view .LVU47
 163 005c B3FA83F3 		clz	r3, r3
 164 0060 3B44     		add	r3, r3, r7
 165 0062 9B00     		lsls	r3, r3, #2
 166 0064 0022     		movs	r2, #0
 158:Drivers/STM32F3xx_HAL_Driver/Src/stm32f3xx_hal_rcc_ex.c ****       /* Restore the Content of BDCR register */
 159:Drivers/STM32F3xx_HAL_Driver/Src/stm32f3xx_hal_rcc_ex.c ****       RCC->BDCR = temp_reg;
 160:Drivers/STM32F3xx_HAL_Driver/Src/stm32f3xx_hal_rcc_ex.c ****     
 161:Drivers/STM32F3xx_HAL_Driver/Src/stm32f3xx_hal_rcc_ex.c ****       /* Wait for LSERDY if LSE was enabled */
 162:Drivers/STM32F3xx_HAL_Driver/Src/stm32f3xx_hal_rcc_ex.c ****       if (HAL_IS_BIT_SET(temp_reg, RCC_BDCR_LSEON))
 167              		.loc 1 162 10 view .LVU48
 168 0066 CF07     		lsls	r7, r1, #31
 157:Drivers/STM32F3xx_HAL_Driver/Src/stm32f3xx_hal_rcc_ex.c ****       /* Restore the Content of BDCR register */
 169              		.loc 1 157 7 view .LVU49
 170 0068 1A60     		str	r2, [r3]
 159:Drivers/STM32F3xx_HAL_Driver/Src/stm32f3xx_hal_rcc_ex.c ****     
 171              		.loc 1 159 7 is_stmt 1 view .LVU50
 159:Drivers/STM32F3xx_HAL_Driver/Src/stm32f3xx_hal_rcc_ex.c ****     
 172              		.loc 1 159 17 is_stmt 0 view .LVU51
 173 006a C8F82000 		str	r0, [r8, #32]
 174              		.loc 1 162 7 is_stmt 1 view .LVU52
 175              		.loc 1 162 10 is_stmt 0 view .LVU53
 176 006e 65D4     		bmi	.L12
 177              	.LVL11:
 178              	.L41:
 163:Drivers/STM32F3xx_HAL_Driver/Src/stm32f3xx_hal_rcc_ex.c ****       {
 164:Drivers/STM32F3xx_HAL_Driver/Src/stm32f3xx_hal_rcc_ex.c ****         /* Get Start Tick */
 165:Drivers/STM32F3xx_HAL_Driver/Src/stm32f3xx_hal_rcc_ex.c ****         tickstart = HAL_GetTick();
 166:Drivers/STM32F3xx_HAL_Driver/Src/stm32f3xx_hal_rcc_ex.c ****         
 167:Drivers/STM32F3xx_HAL_Driver/Src/stm32f3xx_hal_rcc_ex.c ****         /* Wait till LSE is ready */  
 168:Drivers/STM32F3xx_HAL_Driver/Src/stm32f3xx_hal_rcc_ex.c ****         while(__HAL_RCC_GET_FLAG(RCC_FLAG_LSERDY) == RESET)
 169:Drivers/STM32F3xx_HAL_Driver/Src/stm32f3xx_hal_rcc_ex.c ****         {
 170:Drivers/STM32F3xx_HAL_Driver/Src/stm32f3xx_hal_rcc_ex.c ****             if((HAL_GetTick() - tickstart) > RCC_LSE_TIMEOUT_VALUE)
 171:Drivers/STM32F3xx_HAL_Driver/Src/stm32f3xx_hal_rcc_ex.c ****           {
 172:Drivers/STM32F3xx_HAL_Driver/Src/stm32f3xx_hal_rcc_ex.c ****             return HAL_TIMEOUT;
 173:Drivers/STM32F3xx_HAL_Driver/Src/stm32f3xx_hal_rcc_ex.c ****           }      
 174:Drivers/STM32F3xx_HAL_Driver/Src/stm32f3xx_hal_rcc_ex.c ****         }  
 175:Drivers/STM32F3xx_HAL_Driver/Src/stm32f3xx_hal_rcc_ex.c ****       }
 176:Drivers/STM32F3xx_HAL_Driver/Src/stm32f3xx_hal_rcc_ex.c ****     }
 177:Drivers/STM32F3xx_HAL_Driver/Src/stm32f3xx_hal_rcc_ex.c ****     __HAL_RCC_RTC_CONFIG(PeriphClkInit->RTCClockSelection); 
 179              		.loc 1 177 5 view .LVU54
ARM GAS  /var/folders/b1/22c950295gx2kqj80tvj8wqc0000gn/T//ccYsOlQx.s 			page 25


 180 0070 6168     		ldr	r1, [r4, #4]
 181              	.L11:
 182              		.loc 1 177 5 is_stmt 1 view .LVU55
 183 0072 404A     		ldr	r2, .L46
 184 0074 136A     		ldr	r3, [r2, #32]
 185 0076 23F44073 		bic	r3, r3, #768
 186 007a 0B43     		orrs	r3, r3, r1
 187 007c 1362     		str	r3, [r2, #32]
 178:Drivers/STM32F3xx_HAL_Driver/Src/stm32f3xx_hal_rcc_ex.c **** 
 179:Drivers/STM32F3xx_HAL_Driver/Src/stm32f3xx_hal_rcc_ex.c ****     /* Require to disable power clock if necessary */
 180:Drivers/STM32F3xx_HAL_Driver/Src/stm32f3xx_hal_rcc_ex.c ****     if(pwrclkchanged == SET)
 188              		.loc 1 180 5 view .LVU56
 189              		.loc 1 180 7 is_stmt 0 view .LVU57
 190 007e 1EB1     		cbz	r6, .L42
 181:Drivers/STM32F3xx_HAL_Driver/Src/stm32f3xx_hal_rcc_ex.c ****     {
 182:Drivers/STM32F3xx_HAL_Driver/Src/stm32f3xx_hal_rcc_ex.c ****       __HAL_RCC_PWR_CLK_DISABLE();
 191              		.loc 1 182 7 is_stmt 1 view .LVU58
 192 0080 D369     		ldr	r3, [r2, #28]
 193 0082 23F08053 		bic	r3, r3, #268435456
 194 0086 D361     		str	r3, [r2, #28]
 195              	.L42:
 183:Drivers/STM32F3xx_HAL_Driver/Src/stm32f3xx_hal_rcc_ex.c ****     }
 184:Drivers/STM32F3xx_HAL_Driver/Src/stm32f3xx_hal_rcc_ex.c ****   }
 185:Drivers/STM32F3xx_HAL_Driver/Src/stm32f3xx_hal_rcc_ex.c **** 
 186:Drivers/STM32F3xx_HAL_Driver/Src/stm32f3xx_hal_rcc_ex.c ****   /*------------------------------- USART1 Configuration ------------------------*/
 187:Drivers/STM32F3xx_HAL_Driver/Src/stm32f3xx_hal_rcc_ex.c ****   if(((PeriphClkInit->PeriphClockSelection) & RCC_PERIPHCLK_USART1) == RCC_PERIPHCLK_USART1)
 196              		.loc 1 187 21 is_stmt 0 view .LVU59
 197 0088 2368     		ldr	r3, [r4]
 198              	.LVL12:
 199              	.L2:
 200              		.loc 1 187 3 is_stmt 1 view .LVU60
 201              		.loc 1 187 5 is_stmt 0 view .LVU61
 202 008a DD07     		lsls	r5, r3, #31
 203 008c 06D5     		bpl	.L17
 188:Drivers/STM32F3xx_HAL_Driver/Src/stm32f3xx_hal_rcc_ex.c ****   {
 189:Drivers/STM32F3xx_HAL_Driver/Src/stm32f3xx_hal_rcc_ex.c ****     /* Check the parameters */
 190:Drivers/STM32F3xx_HAL_Driver/Src/stm32f3xx_hal_rcc_ex.c ****     assert_param(IS_RCC_USART1CLKSOURCE(PeriphClkInit->Usart1ClockSelection));
 204              		.loc 1 190 5 is_stmt 1 view .LVU62
 191:Drivers/STM32F3xx_HAL_Driver/Src/stm32f3xx_hal_rcc_ex.c ****     
 192:Drivers/STM32F3xx_HAL_Driver/Src/stm32f3xx_hal_rcc_ex.c ****     /* Configure the USART1 clock source */
 193:Drivers/STM32F3xx_HAL_Driver/Src/stm32f3xx_hal_rcc_ex.c ****     __HAL_RCC_USART1_CONFIG(PeriphClkInit->Usart1ClockSelection);
 205              		.loc 1 193 5 view .LVU63
 206 008e 3949     		ldr	r1, .L46
 207 0090 A068     		ldr	r0, [r4, #8]
 208 0092 0A6B     		ldr	r2, [r1, #48]
 209 0094 22F00302 		bic	r2, r2, #3
 210 0098 0243     		orrs	r2, r2, r0
 211 009a 0A63     		str	r2, [r1, #48]
 212              	.L17:
 194:Drivers/STM32F3xx_HAL_Driver/Src/stm32f3xx_hal_rcc_ex.c ****   }
 195:Drivers/STM32F3xx_HAL_Driver/Src/stm32f3xx_hal_rcc_ex.c **** 
 196:Drivers/STM32F3xx_HAL_Driver/Src/stm32f3xx_hal_rcc_ex.c **** #if defined(RCC_CFGR3_USART2SW)
 197:Drivers/STM32F3xx_HAL_Driver/Src/stm32f3xx_hal_rcc_ex.c ****   /*----------------------------- USART2 Configuration --------------------------*/ 
 198:Drivers/STM32F3xx_HAL_Driver/Src/stm32f3xx_hal_rcc_ex.c ****   if(((PeriphClkInit->PeriphClockSelection) & RCC_PERIPHCLK_USART2) == RCC_PERIPHCLK_USART2)
 199:Drivers/STM32F3xx_HAL_Driver/Src/stm32f3xx_hal_rcc_ex.c ****   {
 200:Drivers/STM32F3xx_HAL_Driver/Src/stm32f3xx_hal_rcc_ex.c ****     /* Check the parameters */
 201:Drivers/STM32F3xx_HAL_Driver/Src/stm32f3xx_hal_rcc_ex.c ****     assert_param(IS_RCC_USART2CLKSOURCE(PeriphClkInit->Usart2ClockSelection));
ARM GAS  /var/folders/b1/22c950295gx2kqj80tvj8wqc0000gn/T//ccYsOlQx.s 			page 26


 202:Drivers/STM32F3xx_HAL_Driver/Src/stm32f3xx_hal_rcc_ex.c ****     
 203:Drivers/STM32F3xx_HAL_Driver/Src/stm32f3xx_hal_rcc_ex.c ****     /* Configure the USART2 clock source */
 204:Drivers/STM32F3xx_HAL_Driver/Src/stm32f3xx_hal_rcc_ex.c ****     __HAL_RCC_USART2_CONFIG(PeriphClkInit->Usart2ClockSelection);
 205:Drivers/STM32F3xx_HAL_Driver/Src/stm32f3xx_hal_rcc_ex.c ****   }
 206:Drivers/STM32F3xx_HAL_Driver/Src/stm32f3xx_hal_rcc_ex.c **** #endif /* RCC_CFGR3_USART2SW */
 207:Drivers/STM32F3xx_HAL_Driver/Src/stm32f3xx_hal_rcc_ex.c **** 
 208:Drivers/STM32F3xx_HAL_Driver/Src/stm32f3xx_hal_rcc_ex.c **** #if defined(RCC_CFGR3_USART3SW)
 209:Drivers/STM32F3xx_HAL_Driver/Src/stm32f3xx_hal_rcc_ex.c ****   /*------------------------------ USART3 Configuration ------------------------*/ 
 210:Drivers/STM32F3xx_HAL_Driver/Src/stm32f3xx_hal_rcc_ex.c ****   if(((PeriphClkInit->PeriphClockSelection) & RCC_PERIPHCLK_USART3) == RCC_PERIPHCLK_USART3)
 211:Drivers/STM32F3xx_HAL_Driver/Src/stm32f3xx_hal_rcc_ex.c ****   {
 212:Drivers/STM32F3xx_HAL_Driver/Src/stm32f3xx_hal_rcc_ex.c ****     /* Check the parameters */
 213:Drivers/STM32F3xx_HAL_Driver/Src/stm32f3xx_hal_rcc_ex.c ****     assert_param(IS_RCC_USART3CLKSOURCE(PeriphClkInit->Usart3ClockSelection));
 214:Drivers/STM32F3xx_HAL_Driver/Src/stm32f3xx_hal_rcc_ex.c ****     
 215:Drivers/STM32F3xx_HAL_Driver/Src/stm32f3xx_hal_rcc_ex.c ****     /* Configure the USART3 clock source */
 216:Drivers/STM32F3xx_HAL_Driver/Src/stm32f3xx_hal_rcc_ex.c ****     __HAL_RCC_USART3_CONFIG(PeriphClkInit->Usart3ClockSelection);
 217:Drivers/STM32F3xx_HAL_Driver/Src/stm32f3xx_hal_rcc_ex.c ****   }
 218:Drivers/STM32F3xx_HAL_Driver/Src/stm32f3xx_hal_rcc_ex.c **** #endif /* RCC_CFGR3_USART3SW */
 219:Drivers/STM32F3xx_HAL_Driver/Src/stm32f3xx_hal_rcc_ex.c **** 
 220:Drivers/STM32F3xx_HAL_Driver/Src/stm32f3xx_hal_rcc_ex.c ****   /*------------------------------ I2C1 Configuration ------------------------*/ 
 221:Drivers/STM32F3xx_HAL_Driver/Src/stm32f3xx_hal_rcc_ex.c ****   if(((PeriphClkInit->PeriphClockSelection) & RCC_PERIPHCLK_I2C1) == RCC_PERIPHCLK_I2C1)
 213              		.loc 1 221 3 view .LVU64
 214              		.loc 1 221 5 is_stmt 0 view .LVU65
 215 009c 9806     		lsls	r0, r3, #26
 216 009e 06D5     		bpl	.L18
 222:Drivers/STM32F3xx_HAL_Driver/Src/stm32f3xx_hal_rcc_ex.c ****   {
 223:Drivers/STM32F3xx_HAL_Driver/Src/stm32f3xx_hal_rcc_ex.c ****     /* Check the parameters */
 224:Drivers/STM32F3xx_HAL_Driver/Src/stm32f3xx_hal_rcc_ex.c ****     assert_param(IS_RCC_I2C1CLKSOURCE(PeriphClkInit->I2c1ClockSelection));
 217              		.loc 1 224 5 is_stmt 1 view .LVU66
 225:Drivers/STM32F3xx_HAL_Driver/Src/stm32f3xx_hal_rcc_ex.c ****     
 226:Drivers/STM32F3xx_HAL_Driver/Src/stm32f3xx_hal_rcc_ex.c ****     /* Configure the I2C1 clock source */
 227:Drivers/STM32F3xx_HAL_Driver/Src/stm32f3xx_hal_rcc_ex.c ****     __HAL_RCC_I2C1_CONFIG(PeriphClkInit->I2c1ClockSelection);
 218              		.loc 1 227 5 view .LVU67
 219 00a0 3449     		ldr	r1, .L46
 220 00a2 E068     		ldr	r0, [r4, #12]
 221 00a4 0A6B     		ldr	r2, [r1, #48]
 222 00a6 22F01002 		bic	r2, r2, #16
 223 00aa 0243     		orrs	r2, r2, r0
 224 00ac 0A63     		str	r2, [r1, #48]
 225              	.L18:
 228:Drivers/STM32F3xx_HAL_Driver/Src/stm32f3xx_hal_rcc_ex.c ****   }
 229:Drivers/STM32F3xx_HAL_Driver/Src/stm32f3xx_hal_rcc_ex.c **** 
 230:Drivers/STM32F3xx_HAL_Driver/Src/stm32f3xx_hal_rcc_ex.c **** #if defined(STM32F302xE) || defined(STM32F303xE)\
 231:Drivers/STM32F3xx_HAL_Driver/Src/stm32f3xx_hal_rcc_ex.c ****  || defined(STM32F302xC) || defined(STM32F303xC)\
 232:Drivers/STM32F3xx_HAL_Driver/Src/stm32f3xx_hal_rcc_ex.c ****  || defined(STM32F302x8)                        \
 233:Drivers/STM32F3xx_HAL_Driver/Src/stm32f3xx_hal_rcc_ex.c ****  || defined(STM32F373xC)
 234:Drivers/STM32F3xx_HAL_Driver/Src/stm32f3xx_hal_rcc_ex.c ****   /*------------------------------ USB Configuration ------------------------*/ 
 235:Drivers/STM32F3xx_HAL_Driver/Src/stm32f3xx_hal_rcc_ex.c ****   if(((PeriphClkInit->PeriphClockSelection) & RCC_PERIPHCLK_USB) == RCC_PERIPHCLK_USB)
 236:Drivers/STM32F3xx_HAL_Driver/Src/stm32f3xx_hal_rcc_ex.c ****   {
 237:Drivers/STM32F3xx_HAL_Driver/Src/stm32f3xx_hal_rcc_ex.c ****     /* Check the parameters */
 238:Drivers/STM32F3xx_HAL_Driver/Src/stm32f3xx_hal_rcc_ex.c ****     assert_param(IS_RCC_USBCLKSOURCE(PeriphClkInit->USBClockSelection));
 239:Drivers/STM32F3xx_HAL_Driver/Src/stm32f3xx_hal_rcc_ex.c ****     
 240:Drivers/STM32F3xx_HAL_Driver/Src/stm32f3xx_hal_rcc_ex.c ****     /* Configure the USB clock source */
 241:Drivers/STM32F3xx_HAL_Driver/Src/stm32f3xx_hal_rcc_ex.c ****     __HAL_RCC_USB_CONFIG(PeriphClkInit->USBClockSelection);
 242:Drivers/STM32F3xx_HAL_Driver/Src/stm32f3xx_hal_rcc_ex.c ****   }
 243:Drivers/STM32F3xx_HAL_Driver/Src/stm32f3xx_hal_rcc_ex.c **** 
 244:Drivers/STM32F3xx_HAL_Driver/Src/stm32f3xx_hal_rcc_ex.c **** #endif /* STM32F302xE || STM32F303xE || */
 245:Drivers/STM32F3xx_HAL_Driver/Src/stm32f3xx_hal_rcc_ex.c ****        /* STM32F302xC || STM32F303xC || */
ARM GAS  /var/folders/b1/22c950295gx2kqj80tvj8wqc0000gn/T//ccYsOlQx.s 			page 27


 246:Drivers/STM32F3xx_HAL_Driver/Src/stm32f3xx_hal_rcc_ex.c ****        /* STM32F302x8                || */
 247:Drivers/STM32F3xx_HAL_Driver/Src/stm32f3xx_hal_rcc_ex.c ****        /* STM32F373xC                   */
 248:Drivers/STM32F3xx_HAL_Driver/Src/stm32f3xx_hal_rcc_ex.c **** 
 249:Drivers/STM32F3xx_HAL_Driver/Src/stm32f3xx_hal_rcc_ex.c **** #if defined(STM32F302xE) || defined(STM32F303xE) || defined(STM32F398xx)\
 250:Drivers/STM32F3xx_HAL_Driver/Src/stm32f3xx_hal_rcc_ex.c ****  || defined(STM32F302xC) || defined(STM32F303xC) || defined(STM32F358xx)\
 251:Drivers/STM32F3xx_HAL_Driver/Src/stm32f3xx_hal_rcc_ex.c ****  || defined(STM32F301x8) || defined(STM32F302x8) || defined(STM32F318xx)\
 252:Drivers/STM32F3xx_HAL_Driver/Src/stm32f3xx_hal_rcc_ex.c ****  || defined(STM32F373xC) || defined(STM32F378xx)
 253:Drivers/STM32F3xx_HAL_Driver/Src/stm32f3xx_hal_rcc_ex.c **** 
 254:Drivers/STM32F3xx_HAL_Driver/Src/stm32f3xx_hal_rcc_ex.c ****   /*------------------------------ I2C2 Configuration ------------------------*/ 
 255:Drivers/STM32F3xx_HAL_Driver/Src/stm32f3xx_hal_rcc_ex.c ****   if(((PeriphClkInit->PeriphClockSelection) & RCC_PERIPHCLK_I2C2) == RCC_PERIPHCLK_I2C2)
 256:Drivers/STM32F3xx_HAL_Driver/Src/stm32f3xx_hal_rcc_ex.c ****   {
 257:Drivers/STM32F3xx_HAL_Driver/Src/stm32f3xx_hal_rcc_ex.c ****     /* Check the parameters */
 258:Drivers/STM32F3xx_HAL_Driver/Src/stm32f3xx_hal_rcc_ex.c ****     assert_param(IS_RCC_I2C2CLKSOURCE(PeriphClkInit->I2c2ClockSelection));
 259:Drivers/STM32F3xx_HAL_Driver/Src/stm32f3xx_hal_rcc_ex.c ****     
 260:Drivers/STM32F3xx_HAL_Driver/Src/stm32f3xx_hal_rcc_ex.c ****     /* Configure the I2C2 clock source */
 261:Drivers/STM32F3xx_HAL_Driver/Src/stm32f3xx_hal_rcc_ex.c ****     __HAL_RCC_I2C2_CONFIG(PeriphClkInit->I2c2ClockSelection);
 262:Drivers/STM32F3xx_HAL_Driver/Src/stm32f3xx_hal_rcc_ex.c ****   }
 263:Drivers/STM32F3xx_HAL_Driver/Src/stm32f3xx_hal_rcc_ex.c **** 
 264:Drivers/STM32F3xx_HAL_Driver/Src/stm32f3xx_hal_rcc_ex.c **** #endif /* STM32F302xE || STM32F303xE || STM32F398xx || */
 265:Drivers/STM32F3xx_HAL_Driver/Src/stm32f3xx_hal_rcc_ex.c ****        /* STM32F302xC || STM32F303xC || STM32F358xx || */
 266:Drivers/STM32F3xx_HAL_Driver/Src/stm32f3xx_hal_rcc_ex.c ****        /* STM32F301x8 || STM32F302x8 || STM32F318xx || */
 267:Drivers/STM32F3xx_HAL_Driver/Src/stm32f3xx_hal_rcc_ex.c ****        /* STM32F373xC || STM32F378xx                   */
 268:Drivers/STM32F3xx_HAL_Driver/Src/stm32f3xx_hal_rcc_ex.c ****   
 269:Drivers/STM32F3xx_HAL_Driver/Src/stm32f3xx_hal_rcc_ex.c **** #if defined(STM32F302xE) || defined(STM32F303xE) || defined(STM32F398xx)\
 270:Drivers/STM32F3xx_HAL_Driver/Src/stm32f3xx_hal_rcc_ex.c ****  || defined(STM32F301x8) || defined(STM32F302x8) || defined(STM32F318xx)
 271:Drivers/STM32F3xx_HAL_Driver/Src/stm32f3xx_hal_rcc_ex.c **** 
 272:Drivers/STM32F3xx_HAL_Driver/Src/stm32f3xx_hal_rcc_ex.c ****   /*------------------------------ I2C3 Configuration ------------------------*/ 
 273:Drivers/STM32F3xx_HAL_Driver/Src/stm32f3xx_hal_rcc_ex.c ****   if(((PeriphClkInit->PeriphClockSelection) & RCC_PERIPHCLK_I2C3) == RCC_PERIPHCLK_I2C3)
 274:Drivers/STM32F3xx_HAL_Driver/Src/stm32f3xx_hal_rcc_ex.c ****   {
 275:Drivers/STM32F3xx_HAL_Driver/Src/stm32f3xx_hal_rcc_ex.c ****     /* Check the parameters */
 276:Drivers/STM32F3xx_HAL_Driver/Src/stm32f3xx_hal_rcc_ex.c ****     assert_param(IS_RCC_I2C3CLKSOURCE(PeriphClkInit->I2c3ClockSelection));
 277:Drivers/STM32F3xx_HAL_Driver/Src/stm32f3xx_hal_rcc_ex.c ****     
 278:Drivers/STM32F3xx_HAL_Driver/Src/stm32f3xx_hal_rcc_ex.c ****     /* Configure the I2C3 clock source */
 279:Drivers/STM32F3xx_HAL_Driver/Src/stm32f3xx_hal_rcc_ex.c ****     __HAL_RCC_I2C3_CONFIG(PeriphClkInit->I2c3ClockSelection);
 280:Drivers/STM32F3xx_HAL_Driver/Src/stm32f3xx_hal_rcc_ex.c ****   }
 281:Drivers/STM32F3xx_HAL_Driver/Src/stm32f3xx_hal_rcc_ex.c **** #endif /* STM32F302xE || STM32F303xE || STM32F398xx || */
 282:Drivers/STM32F3xx_HAL_Driver/Src/stm32f3xx_hal_rcc_ex.c ****        /* STM32F301x8 || STM32F302x8 || STM32F318xx    */
 283:Drivers/STM32F3xx_HAL_Driver/Src/stm32f3xx_hal_rcc_ex.c ****   
 284:Drivers/STM32F3xx_HAL_Driver/Src/stm32f3xx_hal_rcc_ex.c **** #if defined(STM32F302xE) || defined(STM32F303xE) || defined(STM32F398xx)\
 285:Drivers/STM32F3xx_HAL_Driver/Src/stm32f3xx_hal_rcc_ex.c ****  || defined(STM32F302xC) || defined(STM32F303xC) || defined(STM32F358xx)
 286:Drivers/STM32F3xx_HAL_Driver/Src/stm32f3xx_hal_rcc_ex.c **** 
 287:Drivers/STM32F3xx_HAL_Driver/Src/stm32f3xx_hal_rcc_ex.c ****   /*------------------------------ UART4 Configuration ------------------------*/ 
 288:Drivers/STM32F3xx_HAL_Driver/Src/stm32f3xx_hal_rcc_ex.c ****   if(((PeriphClkInit->PeriphClockSelection) & RCC_PERIPHCLK_UART4) == RCC_PERIPHCLK_UART4)
 289:Drivers/STM32F3xx_HAL_Driver/Src/stm32f3xx_hal_rcc_ex.c ****   {
 290:Drivers/STM32F3xx_HAL_Driver/Src/stm32f3xx_hal_rcc_ex.c ****     /* Check the parameters */
 291:Drivers/STM32F3xx_HAL_Driver/Src/stm32f3xx_hal_rcc_ex.c ****     assert_param(IS_RCC_UART4CLKSOURCE(PeriphClkInit->Uart4ClockSelection));
 292:Drivers/STM32F3xx_HAL_Driver/Src/stm32f3xx_hal_rcc_ex.c ****     
 293:Drivers/STM32F3xx_HAL_Driver/Src/stm32f3xx_hal_rcc_ex.c ****     /* Configure the UART4 clock source */
 294:Drivers/STM32F3xx_HAL_Driver/Src/stm32f3xx_hal_rcc_ex.c ****     __HAL_RCC_UART4_CONFIG(PeriphClkInit->Uart4ClockSelection);
 295:Drivers/STM32F3xx_HAL_Driver/Src/stm32f3xx_hal_rcc_ex.c ****   }
 296:Drivers/STM32F3xx_HAL_Driver/Src/stm32f3xx_hal_rcc_ex.c **** 
 297:Drivers/STM32F3xx_HAL_Driver/Src/stm32f3xx_hal_rcc_ex.c ****   /*------------------------------ UART5 Configuration ------------------------*/ 
 298:Drivers/STM32F3xx_HAL_Driver/Src/stm32f3xx_hal_rcc_ex.c ****   if(((PeriphClkInit->PeriphClockSelection) & RCC_PERIPHCLK_UART5) == RCC_PERIPHCLK_UART5)
 299:Drivers/STM32F3xx_HAL_Driver/Src/stm32f3xx_hal_rcc_ex.c ****   {
 300:Drivers/STM32F3xx_HAL_Driver/Src/stm32f3xx_hal_rcc_ex.c ****     /* Check the parameters */
 301:Drivers/STM32F3xx_HAL_Driver/Src/stm32f3xx_hal_rcc_ex.c ****     assert_param(IS_RCC_UART5CLKSOURCE(PeriphClkInit->Uart5ClockSelection));
 302:Drivers/STM32F3xx_HAL_Driver/Src/stm32f3xx_hal_rcc_ex.c ****     
ARM GAS  /var/folders/b1/22c950295gx2kqj80tvj8wqc0000gn/T//ccYsOlQx.s 			page 28


 303:Drivers/STM32F3xx_HAL_Driver/Src/stm32f3xx_hal_rcc_ex.c ****     /* Configure the UART5 clock source */
 304:Drivers/STM32F3xx_HAL_Driver/Src/stm32f3xx_hal_rcc_ex.c ****     __HAL_RCC_UART5_CONFIG(PeriphClkInit->Uart5ClockSelection);
 305:Drivers/STM32F3xx_HAL_Driver/Src/stm32f3xx_hal_rcc_ex.c ****   }
 306:Drivers/STM32F3xx_HAL_Driver/Src/stm32f3xx_hal_rcc_ex.c **** 
 307:Drivers/STM32F3xx_HAL_Driver/Src/stm32f3xx_hal_rcc_ex.c **** #endif /* STM32F302xE || STM32F303xE || STM32F398xx || */
 308:Drivers/STM32F3xx_HAL_Driver/Src/stm32f3xx_hal_rcc_ex.c ****        /* STM32F302xC || STM32F303xC || STM32F358xx    */
 309:Drivers/STM32F3xx_HAL_Driver/Src/stm32f3xx_hal_rcc_ex.c **** 
 310:Drivers/STM32F3xx_HAL_Driver/Src/stm32f3xx_hal_rcc_ex.c **** #if defined(STM32F302xE) || defined(STM32F303xE) || defined(STM32F398xx)\
 311:Drivers/STM32F3xx_HAL_Driver/Src/stm32f3xx_hal_rcc_ex.c ****  || defined(STM32F302xC) || defined(STM32F303xC) || defined(STM32F358xx)\
 312:Drivers/STM32F3xx_HAL_Driver/Src/stm32f3xx_hal_rcc_ex.c ****  || defined(STM32F301x8) || defined(STM32F302x8) || defined(STM32F318xx)
 313:Drivers/STM32F3xx_HAL_Driver/Src/stm32f3xx_hal_rcc_ex.c ****   /*------------------------------ I2S Configuration ------------------------*/ 
 314:Drivers/STM32F3xx_HAL_Driver/Src/stm32f3xx_hal_rcc_ex.c ****   if(((PeriphClkInit->PeriphClockSelection) & RCC_PERIPHCLK_I2S) == RCC_PERIPHCLK_I2S)
 315:Drivers/STM32F3xx_HAL_Driver/Src/stm32f3xx_hal_rcc_ex.c ****   {
 316:Drivers/STM32F3xx_HAL_Driver/Src/stm32f3xx_hal_rcc_ex.c ****     /* Check the parameters */
 317:Drivers/STM32F3xx_HAL_Driver/Src/stm32f3xx_hal_rcc_ex.c ****     assert_param(IS_RCC_I2SCLKSOURCE(PeriphClkInit->I2sClockSelection));
 318:Drivers/STM32F3xx_HAL_Driver/Src/stm32f3xx_hal_rcc_ex.c ****     
 319:Drivers/STM32F3xx_HAL_Driver/Src/stm32f3xx_hal_rcc_ex.c ****     /* Configure the I2S clock source */
 320:Drivers/STM32F3xx_HAL_Driver/Src/stm32f3xx_hal_rcc_ex.c ****     __HAL_RCC_I2S_CONFIG(PeriphClkInit->I2sClockSelection);
 321:Drivers/STM32F3xx_HAL_Driver/Src/stm32f3xx_hal_rcc_ex.c ****   }
 322:Drivers/STM32F3xx_HAL_Driver/Src/stm32f3xx_hal_rcc_ex.c **** 
 323:Drivers/STM32F3xx_HAL_Driver/Src/stm32f3xx_hal_rcc_ex.c **** #endif /* STM32F302xE || STM32F303xE || STM32F398xx || */
 324:Drivers/STM32F3xx_HAL_Driver/Src/stm32f3xx_hal_rcc_ex.c ****        /* STM32F302xC || STM32F303xC || STM32F358xx || */
 325:Drivers/STM32F3xx_HAL_Driver/Src/stm32f3xx_hal_rcc_ex.c ****        /* STM32F301x8 || STM32F302x8 || STM32F318xx    */
 326:Drivers/STM32F3xx_HAL_Driver/Src/stm32f3xx_hal_rcc_ex.c ****   
 327:Drivers/STM32F3xx_HAL_Driver/Src/stm32f3xx_hal_rcc_ex.c **** #if defined(STM32F301x8) || defined(STM32F302x8) || defined(STM32F318xx)
 328:Drivers/STM32F3xx_HAL_Driver/Src/stm32f3xx_hal_rcc_ex.c ****       
 329:Drivers/STM32F3xx_HAL_Driver/Src/stm32f3xx_hal_rcc_ex.c ****   /*------------------------------ ADC1 clock Configuration ------------------*/ 
 330:Drivers/STM32F3xx_HAL_Driver/Src/stm32f3xx_hal_rcc_ex.c ****   if(((PeriphClkInit->PeriphClockSelection) & RCC_PERIPHCLK_ADC1) == RCC_PERIPHCLK_ADC1)
 331:Drivers/STM32F3xx_HAL_Driver/Src/stm32f3xx_hal_rcc_ex.c ****   {
 332:Drivers/STM32F3xx_HAL_Driver/Src/stm32f3xx_hal_rcc_ex.c ****     /* Check the parameters */
 333:Drivers/STM32F3xx_HAL_Driver/Src/stm32f3xx_hal_rcc_ex.c ****     assert_param(IS_RCC_ADC1PLLCLK_DIV(PeriphClkInit->Adc1ClockSelection));
 334:Drivers/STM32F3xx_HAL_Driver/Src/stm32f3xx_hal_rcc_ex.c ****     
 335:Drivers/STM32F3xx_HAL_Driver/Src/stm32f3xx_hal_rcc_ex.c ****     /* Configure the ADC1 clock source */
 336:Drivers/STM32F3xx_HAL_Driver/Src/stm32f3xx_hal_rcc_ex.c ****     __HAL_RCC_ADC1_CONFIG(PeriphClkInit->Adc1ClockSelection);
 337:Drivers/STM32F3xx_HAL_Driver/Src/stm32f3xx_hal_rcc_ex.c ****   }
 338:Drivers/STM32F3xx_HAL_Driver/Src/stm32f3xx_hal_rcc_ex.c **** 
 339:Drivers/STM32F3xx_HAL_Driver/Src/stm32f3xx_hal_rcc_ex.c **** #endif /* STM32F301x8 || STM32F302x8 || STM32F318xx */
 340:Drivers/STM32F3xx_HAL_Driver/Src/stm32f3xx_hal_rcc_ex.c ****   
 341:Drivers/STM32F3xx_HAL_Driver/Src/stm32f3xx_hal_rcc_ex.c **** #if defined(STM32F302xE) || defined(STM32F303xE) || defined(STM32F398xx)\
 342:Drivers/STM32F3xx_HAL_Driver/Src/stm32f3xx_hal_rcc_ex.c ****  || defined(STM32F302xC) || defined(STM32F303xC) || defined(STM32F358xx)\
 343:Drivers/STM32F3xx_HAL_Driver/Src/stm32f3xx_hal_rcc_ex.c ****  || defined(STM32F303x8) || defined(STM32F334x8) || defined(STM32F328xx)
 344:Drivers/STM32F3xx_HAL_Driver/Src/stm32f3xx_hal_rcc_ex.c ****       
 345:Drivers/STM32F3xx_HAL_Driver/Src/stm32f3xx_hal_rcc_ex.c ****   /*------------------------------ ADC1 & ADC2 clock Configuration -------------*/ 
 346:Drivers/STM32F3xx_HAL_Driver/Src/stm32f3xx_hal_rcc_ex.c ****   if(((PeriphClkInit->PeriphClockSelection) & RCC_PERIPHCLK_ADC12) == RCC_PERIPHCLK_ADC12)
 226              		.loc 1 346 3 view .LVU68
 227              		.loc 1 346 5 is_stmt 0 view .LVU69
 228 00ae 1906     		lsls	r1, r3, #24
 229 00b0 06D5     		bpl	.L19
 347:Drivers/STM32F3xx_HAL_Driver/Src/stm32f3xx_hal_rcc_ex.c ****   {
 348:Drivers/STM32F3xx_HAL_Driver/Src/stm32f3xx_hal_rcc_ex.c ****     /* Check the parameters */
 349:Drivers/STM32F3xx_HAL_Driver/Src/stm32f3xx_hal_rcc_ex.c ****     assert_param(IS_RCC_ADC12PLLCLK_DIV(PeriphClkInit->Adc12ClockSelection));
 230              		.loc 1 349 5 is_stmt 1 view .LVU70
 350:Drivers/STM32F3xx_HAL_Driver/Src/stm32f3xx_hal_rcc_ex.c ****     
 351:Drivers/STM32F3xx_HAL_Driver/Src/stm32f3xx_hal_rcc_ex.c ****     /* Configure the ADC12 clock source */
 352:Drivers/STM32F3xx_HAL_Driver/Src/stm32f3xx_hal_rcc_ex.c ****     __HAL_RCC_ADC12_CONFIG(PeriphClkInit->Adc12ClockSelection);
 231              		.loc 1 352 5 view .LVU71
 232 00b2 3049     		ldr	r1, .L46
ARM GAS  /var/folders/b1/22c950295gx2kqj80tvj8wqc0000gn/T//ccYsOlQx.s 			page 29


 233 00b4 2069     		ldr	r0, [r4, #16]
 234 00b6 CA6A     		ldr	r2, [r1, #44]
 235 00b8 22F4F872 		bic	r2, r2, #496
 236 00bc 0243     		orrs	r2, r2, r0
 237 00be CA62     		str	r2, [r1, #44]
 238              	.L19:
 353:Drivers/STM32F3xx_HAL_Driver/Src/stm32f3xx_hal_rcc_ex.c ****   }
 354:Drivers/STM32F3xx_HAL_Driver/Src/stm32f3xx_hal_rcc_ex.c **** 
 355:Drivers/STM32F3xx_HAL_Driver/Src/stm32f3xx_hal_rcc_ex.c **** #endif /* STM32F302xE || STM32F303xE || STM32F398xx || */
 356:Drivers/STM32F3xx_HAL_Driver/Src/stm32f3xx_hal_rcc_ex.c ****        /* STM32F302xC || STM32F303xC || STM32F358xx || */
 357:Drivers/STM32F3xx_HAL_Driver/Src/stm32f3xx_hal_rcc_ex.c ****        /* STM32F303x8 || STM32F334x8 || STM32F328xx    */    
 358:Drivers/STM32F3xx_HAL_Driver/Src/stm32f3xx_hal_rcc_ex.c ****   
 359:Drivers/STM32F3xx_HAL_Driver/Src/stm32f3xx_hal_rcc_ex.c **** #if defined(STM32F303xE) || defined(STM32F398xx)\
 360:Drivers/STM32F3xx_HAL_Driver/Src/stm32f3xx_hal_rcc_ex.c ****  || defined(STM32F303xC) || defined(STM32F358xx)
 361:Drivers/STM32F3xx_HAL_Driver/Src/stm32f3xx_hal_rcc_ex.c **** 
 362:Drivers/STM32F3xx_HAL_Driver/Src/stm32f3xx_hal_rcc_ex.c ****   /*------------------------------ ADC3 & ADC4 clock Configuration -------------*/ 
 363:Drivers/STM32F3xx_HAL_Driver/Src/stm32f3xx_hal_rcc_ex.c ****   if(((PeriphClkInit->PeriphClockSelection) & RCC_PERIPHCLK_ADC34) == RCC_PERIPHCLK_ADC34)
 364:Drivers/STM32F3xx_HAL_Driver/Src/stm32f3xx_hal_rcc_ex.c ****   {
 365:Drivers/STM32F3xx_HAL_Driver/Src/stm32f3xx_hal_rcc_ex.c ****     /* Check the parameters */
 366:Drivers/STM32F3xx_HAL_Driver/Src/stm32f3xx_hal_rcc_ex.c ****     assert_param(IS_RCC_ADC34PLLCLK_DIV(PeriphClkInit->Adc34ClockSelection));
 367:Drivers/STM32F3xx_HAL_Driver/Src/stm32f3xx_hal_rcc_ex.c ****     
 368:Drivers/STM32F3xx_HAL_Driver/Src/stm32f3xx_hal_rcc_ex.c ****     /* Configure the ADC34 clock source */
 369:Drivers/STM32F3xx_HAL_Driver/Src/stm32f3xx_hal_rcc_ex.c ****     __HAL_RCC_ADC34_CONFIG(PeriphClkInit->Adc34ClockSelection);
 370:Drivers/STM32F3xx_HAL_Driver/Src/stm32f3xx_hal_rcc_ex.c ****   }
 371:Drivers/STM32F3xx_HAL_Driver/Src/stm32f3xx_hal_rcc_ex.c **** 
 372:Drivers/STM32F3xx_HAL_Driver/Src/stm32f3xx_hal_rcc_ex.c **** #endif /* STM32F303xE || STM32F398xx || */
 373:Drivers/STM32F3xx_HAL_Driver/Src/stm32f3xx_hal_rcc_ex.c ****        /* STM32F303xC || STM32F358xx    */
 374:Drivers/STM32F3xx_HAL_Driver/Src/stm32f3xx_hal_rcc_ex.c **** 
 375:Drivers/STM32F3xx_HAL_Driver/Src/stm32f3xx_hal_rcc_ex.c **** #if defined(STM32F373xC) || defined(STM32F378xx)
 376:Drivers/STM32F3xx_HAL_Driver/Src/stm32f3xx_hal_rcc_ex.c ****       
 377:Drivers/STM32F3xx_HAL_Driver/Src/stm32f3xx_hal_rcc_ex.c ****   /*------------------------------ ADC1 clock Configuration ------------------*/ 
 378:Drivers/STM32F3xx_HAL_Driver/Src/stm32f3xx_hal_rcc_ex.c ****   if(((PeriphClkInit->PeriphClockSelection) & RCC_PERIPHCLK_ADC1) == RCC_PERIPHCLK_ADC1)
 379:Drivers/STM32F3xx_HAL_Driver/Src/stm32f3xx_hal_rcc_ex.c ****   {
 380:Drivers/STM32F3xx_HAL_Driver/Src/stm32f3xx_hal_rcc_ex.c ****     /* Check the parameters */
 381:Drivers/STM32F3xx_HAL_Driver/Src/stm32f3xx_hal_rcc_ex.c ****     assert_param(IS_RCC_ADC1PCLK2_DIV(PeriphClkInit->Adc1ClockSelection));
 382:Drivers/STM32F3xx_HAL_Driver/Src/stm32f3xx_hal_rcc_ex.c ****     
 383:Drivers/STM32F3xx_HAL_Driver/Src/stm32f3xx_hal_rcc_ex.c ****     /* Configure the ADC1 clock source */
 384:Drivers/STM32F3xx_HAL_Driver/Src/stm32f3xx_hal_rcc_ex.c ****     __HAL_RCC_ADC1_CONFIG(PeriphClkInit->Adc1ClockSelection);
 385:Drivers/STM32F3xx_HAL_Driver/Src/stm32f3xx_hal_rcc_ex.c ****   }
 386:Drivers/STM32F3xx_HAL_Driver/Src/stm32f3xx_hal_rcc_ex.c **** 
 387:Drivers/STM32F3xx_HAL_Driver/Src/stm32f3xx_hal_rcc_ex.c **** #endif /* STM32F373xC || STM32F378xx */
 388:Drivers/STM32F3xx_HAL_Driver/Src/stm32f3xx_hal_rcc_ex.c **** 
 389:Drivers/STM32F3xx_HAL_Driver/Src/stm32f3xx_hal_rcc_ex.c **** #if defined(STM32F302xE) || defined(STM32F303xE) || defined(STM32F398xx)\
 390:Drivers/STM32F3xx_HAL_Driver/Src/stm32f3xx_hal_rcc_ex.c ****  || defined(STM32F302xC) || defined(STM32F303xC) || defined(STM32F358xx)\
 391:Drivers/STM32F3xx_HAL_Driver/Src/stm32f3xx_hal_rcc_ex.c ****  || defined(STM32F303x8) || defined(STM32F334x8) || defined(STM32F328xx)\
 392:Drivers/STM32F3xx_HAL_Driver/Src/stm32f3xx_hal_rcc_ex.c ****  || defined(STM32F301x8) || defined(STM32F302x8) || defined(STM32F318xx)
 393:Drivers/STM32F3xx_HAL_Driver/Src/stm32f3xx_hal_rcc_ex.c **** 
 394:Drivers/STM32F3xx_HAL_Driver/Src/stm32f3xx_hal_rcc_ex.c ****   /*------------------------------ TIM1 clock Configuration ----------------*/ 
 395:Drivers/STM32F3xx_HAL_Driver/Src/stm32f3xx_hal_rcc_ex.c ****   if(((PeriphClkInit->PeriphClockSelection) & RCC_PERIPHCLK_TIM1) == RCC_PERIPHCLK_TIM1)
 239              		.loc 1 395 3 view .LVU72
 240              		.loc 1 395 5 is_stmt 0 view .LVU73
 241 00c0 DA04     		lsls	r2, r3, #19
 242 00c2 06D5     		bpl	.L20
 396:Drivers/STM32F3xx_HAL_Driver/Src/stm32f3xx_hal_rcc_ex.c ****   {
 397:Drivers/STM32F3xx_HAL_Driver/Src/stm32f3xx_hal_rcc_ex.c ****     /* Check the parameters */
 398:Drivers/STM32F3xx_HAL_Driver/Src/stm32f3xx_hal_rcc_ex.c ****     assert_param(IS_RCC_TIM1CLKSOURCE(PeriphClkInit->Tim1ClockSelection));
 243              		.loc 1 398 5 is_stmt 1 view .LVU74
ARM GAS  /var/folders/b1/22c950295gx2kqj80tvj8wqc0000gn/T//ccYsOlQx.s 			page 30


 399:Drivers/STM32F3xx_HAL_Driver/Src/stm32f3xx_hal_rcc_ex.c ****     
 400:Drivers/STM32F3xx_HAL_Driver/Src/stm32f3xx_hal_rcc_ex.c ****     /* Configure the TIM1 clock source */
 401:Drivers/STM32F3xx_HAL_Driver/Src/stm32f3xx_hal_rcc_ex.c ****     __HAL_RCC_TIM1_CONFIG(PeriphClkInit->Tim1ClockSelection);
 244              		.loc 1 401 5 view .LVU75
 245 00c4 2B49     		ldr	r1, .L46
 246 00c6 6069     		ldr	r0, [r4, #20]
 247 00c8 0A6B     		ldr	r2, [r1, #48]
 248 00ca 22F48072 		bic	r2, r2, #256
 249 00ce 0243     		orrs	r2, r2, r0
 250 00d0 0A63     		str	r2, [r1, #48]
 251              	.L20:
 402:Drivers/STM32F3xx_HAL_Driver/Src/stm32f3xx_hal_rcc_ex.c ****   }
 403:Drivers/STM32F3xx_HAL_Driver/Src/stm32f3xx_hal_rcc_ex.c **** 
 404:Drivers/STM32F3xx_HAL_Driver/Src/stm32f3xx_hal_rcc_ex.c **** #endif /* STM32F302xE || STM32F303xE || STM32F398xx || */
 405:Drivers/STM32F3xx_HAL_Driver/Src/stm32f3xx_hal_rcc_ex.c ****        /* STM32F302xC || STM32F303xC || STM32F358xx || */
 406:Drivers/STM32F3xx_HAL_Driver/Src/stm32f3xx_hal_rcc_ex.c ****        /* STM32F303x8 || STM32F334x8 || STM32F328xx || */
 407:Drivers/STM32F3xx_HAL_Driver/Src/stm32f3xx_hal_rcc_ex.c ****        /* STM32F301x8 || STM32F302x8 || STM32F318xx    */
 408:Drivers/STM32F3xx_HAL_Driver/Src/stm32f3xx_hal_rcc_ex.c ****   
 409:Drivers/STM32F3xx_HAL_Driver/Src/stm32f3xx_hal_rcc_ex.c **** #if defined(STM32F303xE) || defined(STM32F398xx)\
 410:Drivers/STM32F3xx_HAL_Driver/Src/stm32f3xx_hal_rcc_ex.c ****  || defined(STM32F303xC) || defined(STM32F358xx)
 411:Drivers/STM32F3xx_HAL_Driver/Src/stm32f3xx_hal_rcc_ex.c **** 
 412:Drivers/STM32F3xx_HAL_Driver/Src/stm32f3xx_hal_rcc_ex.c ****   /*------------------------------ TIM8 clock Configuration ----------------*/ 
 413:Drivers/STM32F3xx_HAL_Driver/Src/stm32f3xx_hal_rcc_ex.c ****   if(((PeriphClkInit->PeriphClockSelection) & RCC_PERIPHCLK_TIM8) == RCC_PERIPHCLK_TIM8)
 414:Drivers/STM32F3xx_HAL_Driver/Src/stm32f3xx_hal_rcc_ex.c ****   {
 415:Drivers/STM32F3xx_HAL_Driver/Src/stm32f3xx_hal_rcc_ex.c ****     /* Check the parameters */
 416:Drivers/STM32F3xx_HAL_Driver/Src/stm32f3xx_hal_rcc_ex.c ****     assert_param(IS_RCC_TIM8CLKSOURCE(PeriphClkInit->Tim8ClockSelection));
 417:Drivers/STM32F3xx_HAL_Driver/Src/stm32f3xx_hal_rcc_ex.c ****     
 418:Drivers/STM32F3xx_HAL_Driver/Src/stm32f3xx_hal_rcc_ex.c ****     /* Configure the TIM8 clock source */
 419:Drivers/STM32F3xx_HAL_Driver/Src/stm32f3xx_hal_rcc_ex.c ****     __HAL_RCC_TIM8_CONFIG(PeriphClkInit->Tim8ClockSelection);
 420:Drivers/STM32F3xx_HAL_Driver/Src/stm32f3xx_hal_rcc_ex.c ****   }
 421:Drivers/STM32F3xx_HAL_Driver/Src/stm32f3xx_hal_rcc_ex.c **** 
 422:Drivers/STM32F3xx_HAL_Driver/Src/stm32f3xx_hal_rcc_ex.c **** #endif /* STM32F303xE || STM32F398xx || */
 423:Drivers/STM32F3xx_HAL_Driver/Src/stm32f3xx_hal_rcc_ex.c ****        /* STM32F303xC || STM32F358xx    */
 424:Drivers/STM32F3xx_HAL_Driver/Src/stm32f3xx_hal_rcc_ex.c **** 
 425:Drivers/STM32F3xx_HAL_Driver/Src/stm32f3xx_hal_rcc_ex.c **** #if defined(STM32F301x8) || defined(STM32F302x8) || defined(STM32F318xx)
 426:Drivers/STM32F3xx_HAL_Driver/Src/stm32f3xx_hal_rcc_ex.c **** 
 427:Drivers/STM32F3xx_HAL_Driver/Src/stm32f3xx_hal_rcc_ex.c ****   /*------------------------------ TIM15 clock Configuration ----------------*/ 
 428:Drivers/STM32F3xx_HAL_Driver/Src/stm32f3xx_hal_rcc_ex.c ****   if(((PeriphClkInit->PeriphClockSelection) & RCC_PERIPHCLK_TIM15) == RCC_PERIPHCLK_TIM15)
 429:Drivers/STM32F3xx_HAL_Driver/Src/stm32f3xx_hal_rcc_ex.c ****   {
 430:Drivers/STM32F3xx_HAL_Driver/Src/stm32f3xx_hal_rcc_ex.c ****     /* Check the parameters */
 431:Drivers/STM32F3xx_HAL_Driver/Src/stm32f3xx_hal_rcc_ex.c ****     assert_param(IS_RCC_TIM15CLKSOURCE(PeriphClkInit->Tim15ClockSelection));
 432:Drivers/STM32F3xx_HAL_Driver/Src/stm32f3xx_hal_rcc_ex.c ****     
 433:Drivers/STM32F3xx_HAL_Driver/Src/stm32f3xx_hal_rcc_ex.c ****     /* Configure the TIM15 clock source */
 434:Drivers/STM32F3xx_HAL_Driver/Src/stm32f3xx_hal_rcc_ex.c ****     __HAL_RCC_TIM15_CONFIG(PeriphClkInit->Tim15ClockSelection);
 435:Drivers/STM32F3xx_HAL_Driver/Src/stm32f3xx_hal_rcc_ex.c ****   }
 436:Drivers/STM32F3xx_HAL_Driver/Src/stm32f3xx_hal_rcc_ex.c **** 
 437:Drivers/STM32F3xx_HAL_Driver/Src/stm32f3xx_hal_rcc_ex.c ****   /*------------------------------ TIM16 clock Configuration ----------------*/ 
 438:Drivers/STM32F3xx_HAL_Driver/Src/stm32f3xx_hal_rcc_ex.c ****   if(((PeriphClkInit->PeriphClockSelection) & RCC_PERIPHCLK_TIM16) == RCC_PERIPHCLK_TIM16)
 439:Drivers/STM32F3xx_HAL_Driver/Src/stm32f3xx_hal_rcc_ex.c ****   {
 440:Drivers/STM32F3xx_HAL_Driver/Src/stm32f3xx_hal_rcc_ex.c ****     /* Check the parameters */
 441:Drivers/STM32F3xx_HAL_Driver/Src/stm32f3xx_hal_rcc_ex.c ****     assert_param(IS_RCC_TIM16CLKSOURCE(PeriphClkInit->Tim16ClockSelection));
 442:Drivers/STM32F3xx_HAL_Driver/Src/stm32f3xx_hal_rcc_ex.c ****     
 443:Drivers/STM32F3xx_HAL_Driver/Src/stm32f3xx_hal_rcc_ex.c ****     /* Configure the TIM16 clock source */
 444:Drivers/STM32F3xx_HAL_Driver/Src/stm32f3xx_hal_rcc_ex.c ****     __HAL_RCC_TIM16_CONFIG(PeriphClkInit->Tim16ClockSelection);
 445:Drivers/STM32F3xx_HAL_Driver/Src/stm32f3xx_hal_rcc_ex.c ****   }
 446:Drivers/STM32F3xx_HAL_Driver/Src/stm32f3xx_hal_rcc_ex.c **** 
 447:Drivers/STM32F3xx_HAL_Driver/Src/stm32f3xx_hal_rcc_ex.c ****   /*------------------------------ TIM17 clock Configuration ----------------*/ 
ARM GAS  /var/folders/b1/22c950295gx2kqj80tvj8wqc0000gn/T//ccYsOlQx.s 			page 31


 448:Drivers/STM32F3xx_HAL_Driver/Src/stm32f3xx_hal_rcc_ex.c ****   if(((PeriphClkInit->PeriphClockSelection) & RCC_PERIPHCLK_TIM17) == RCC_PERIPHCLK_TIM17)
 449:Drivers/STM32F3xx_HAL_Driver/Src/stm32f3xx_hal_rcc_ex.c ****   {
 450:Drivers/STM32F3xx_HAL_Driver/Src/stm32f3xx_hal_rcc_ex.c ****     /* Check the parameters */
 451:Drivers/STM32F3xx_HAL_Driver/Src/stm32f3xx_hal_rcc_ex.c ****     assert_param(IS_RCC_TIM17CLKSOURCE(PeriphClkInit->Tim17ClockSelection));
 452:Drivers/STM32F3xx_HAL_Driver/Src/stm32f3xx_hal_rcc_ex.c ****     
 453:Drivers/STM32F3xx_HAL_Driver/Src/stm32f3xx_hal_rcc_ex.c ****     /* Configure the TIM17 clock source */
 454:Drivers/STM32F3xx_HAL_Driver/Src/stm32f3xx_hal_rcc_ex.c ****     __HAL_RCC_TIM17_CONFIG(PeriphClkInit->Tim17ClockSelection);
 455:Drivers/STM32F3xx_HAL_Driver/Src/stm32f3xx_hal_rcc_ex.c ****   }
 456:Drivers/STM32F3xx_HAL_Driver/Src/stm32f3xx_hal_rcc_ex.c **** 
 457:Drivers/STM32F3xx_HAL_Driver/Src/stm32f3xx_hal_rcc_ex.c **** #endif /* STM32F301x8 || STM32F302x8 || STM32F318xx */
 458:Drivers/STM32F3xx_HAL_Driver/Src/stm32f3xx_hal_rcc_ex.c **** 
 459:Drivers/STM32F3xx_HAL_Driver/Src/stm32f3xx_hal_rcc_ex.c **** #if defined(STM32F334x8)
 460:Drivers/STM32F3xx_HAL_Driver/Src/stm32f3xx_hal_rcc_ex.c **** 
 461:Drivers/STM32F3xx_HAL_Driver/Src/stm32f3xx_hal_rcc_ex.c ****   /*------------------------------ HRTIM1 clock Configuration ----------------*/ 
 462:Drivers/STM32F3xx_HAL_Driver/Src/stm32f3xx_hal_rcc_ex.c ****   if(((PeriphClkInit->PeriphClockSelection) & RCC_PERIPHCLK_HRTIM1) == RCC_PERIPHCLK_HRTIM1)
 252              		.loc 1 462 3 view .LVU76
 253              		.loc 1 462 5 is_stmt 0 view .LVU77
 254 00d2 13F48043 		ands	r3, r3, #16384
 255 00d6 03D1     		bne	.L45
 463:Drivers/STM32F3xx_HAL_Driver/Src/stm32f3xx_hal_rcc_ex.c ****   {
 464:Drivers/STM32F3xx_HAL_Driver/Src/stm32f3xx_hal_rcc_ex.c ****     /* Check the parameters */
 465:Drivers/STM32F3xx_HAL_Driver/Src/stm32f3xx_hal_rcc_ex.c ****     assert_param(IS_RCC_HRTIM1CLKSOURCE(PeriphClkInit->Hrtim1ClockSelection));
 466:Drivers/STM32F3xx_HAL_Driver/Src/stm32f3xx_hal_rcc_ex.c ****     
 467:Drivers/STM32F3xx_HAL_Driver/Src/stm32f3xx_hal_rcc_ex.c ****     /* Configure the HRTIM1 clock source */
 468:Drivers/STM32F3xx_HAL_Driver/Src/stm32f3xx_hal_rcc_ex.c ****     __HAL_RCC_HRTIM1_CONFIG(PeriphClkInit->Hrtim1ClockSelection);
 469:Drivers/STM32F3xx_HAL_Driver/Src/stm32f3xx_hal_rcc_ex.c ****   }
 470:Drivers/STM32F3xx_HAL_Driver/Src/stm32f3xx_hal_rcc_ex.c **** 
 471:Drivers/STM32F3xx_HAL_Driver/Src/stm32f3xx_hal_rcc_ex.c **** #endif /* STM32F334x8 */
 472:Drivers/STM32F3xx_HAL_Driver/Src/stm32f3xx_hal_rcc_ex.c **** 
 473:Drivers/STM32F3xx_HAL_Driver/Src/stm32f3xx_hal_rcc_ex.c **** #if defined(STM32F373xC) || defined(STM32F378xx)
 474:Drivers/STM32F3xx_HAL_Driver/Src/stm32f3xx_hal_rcc_ex.c ****   
 475:Drivers/STM32F3xx_HAL_Driver/Src/stm32f3xx_hal_rcc_ex.c ****   /*------------------------------ SDADC clock Configuration -------------------*/ 
 476:Drivers/STM32F3xx_HAL_Driver/Src/stm32f3xx_hal_rcc_ex.c ****   if(((PeriphClkInit->PeriphClockSelection) & RCC_PERIPHCLK_SDADC) == RCC_PERIPHCLK_SDADC)
 477:Drivers/STM32F3xx_HAL_Driver/Src/stm32f3xx_hal_rcc_ex.c ****   {
 478:Drivers/STM32F3xx_HAL_Driver/Src/stm32f3xx_hal_rcc_ex.c ****     /* Check the parameters */
 479:Drivers/STM32F3xx_HAL_Driver/Src/stm32f3xx_hal_rcc_ex.c ****     assert_param(IS_RCC_SDADCSYSCLK_DIV(PeriphClkInit->SdadcClockSelection));
 480:Drivers/STM32F3xx_HAL_Driver/Src/stm32f3xx_hal_rcc_ex.c ****     
 481:Drivers/STM32F3xx_HAL_Driver/Src/stm32f3xx_hal_rcc_ex.c ****     /* Configure the SDADC clock prescaler */
 482:Drivers/STM32F3xx_HAL_Driver/Src/stm32f3xx_hal_rcc_ex.c ****     __HAL_RCC_SDADC_CONFIG(PeriphClkInit->SdadcClockSelection);
 483:Drivers/STM32F3xx_HAL_Driver/Src/stm32f3xx_hal_rcc_ex.c ****   }
 484:Drivers/STM32F3xx_HAL_Driver/Src/stm32f3xx_hal_rcc_ex.c **** 
 485:Drivers/STM32F3xx_HAL_Driver/Src/stm32f3xx_hal_rcc_ex.c ****   /*------------------------------ CEC clock Configuration -------------------*/ 
 486:Drivers/STM32F3xx_HAL_Driver/Src/stm32f3xx_hal_rcc_ex.c ****   if(((PeriphClkInit->PeriphClockSelection) & RCC_PERIPHCLK_CEC) == RCC_PERIPHCLK_CEC)
 487:Drivers/STM32F3xx_HAL_Driver/Src/stm32f3xx_hal_rcc_ex.c ****   {
 488:Drivers/STM32F3xx_HAL_Driver/Src/stm32f3xx_hal_rcc_ex.c ****     /* Check the parameters */
 489:Drivers/STM32F3xx_HAL_Driver/Src/stm32f3xx_hal_rcc_ex.c ****     assert_param(IS_RCC_CECCLKSOURCE(PeriphClkInit->CecClockSelection));
 490:Drivers/STM32F3xx_HAL_Driver/Src/stm32f3xx_hal_rcc_ex.c ****     
 491:Drivers/STM32F3xx_HAL_Driver/Src/stm32f3xx_hal_rcc_ex.c ****     /* Configure the CEC clock source */
 492:Drivers/STM32F3xx_HAL_Driver/Src/stm32f3xx_hal_rcc_ex.c ****     __HAL_RCC_CEC_CONFIG(PeriphClkInit->CecClockSelection);
 493:Drivers/STM32F3xx_HAL_Driver/Src/stm32f3xx_hal_rcc_ex.c ****   }
 494:Drivers/STM32F3xx_HAL_Driver/Src/stm32f3xx_hal_rcc_ex.c **** 
 495:Drivers/STM32F3xx_HAL_Driver/Src/stm32f3xx_hal_rcc_ex.c **** #endif /* STM32F373xC || STM32F378xx */
 496:Drivers/STM32F3xx_HAL_Driver/Src/stm32f3xx_hal_rcc_ex.c ****   
 497:Drivers/STM32F3xx_HAL_Driver/Src/stm32f3xx_hal_rcc_ex.c **** #if defined(STM32F302xE) || defined(STM32F303xE) || defined(STM32F398xx)
 498:Drivers/STM32F3xx_HAL_Driver/Src/stm32f3xx_hal_rcc_ex.c ****   
 499:Drivers/STM32F3xx_HAL_Driver/Src/stm32f3xx_hal_rcc_ex.c ****   /*------------------------------ TIM2 clock Configuration -------------------*/ 
 500:Drivers/STM32F3xx_HAL_Driver/Src/stm32f3xx_hal_rcc_ex.c ****   if(((PeriphClkInit->PeriphClockSelection) & RCC_PERIPHCLK_TIM2) == RCC_PERIPHCLK_TIM2)
ARM GAS  /var/folders/b1/22c950295gx2kqj80tvj8wqc0000gn/T//ccYsOlQx.s 			page 32


 501:Drivers/STM32F3xx_HAL_Driver/Src/stm32f3xx_hal_rcc_ex.c ****   {
 502:Drivers/STM32F3xx_HAL_Driver/Src/stm32f3xx_hal_rcc_ex.c ****     /* Check the parameters */
 503:Drivers/STM32F3xx_HAL_Driver/Src/stm32f3xx_hal_rcc_ex.c ****     assert_param(IS_RCC_TIM2CLKSOURCE(PeriphClkInit->Tim2ClockSelection));
 504:Drivers/STM32F3xx_HAL_Driver/Src/stm32f3xx_hal_rcc_ex.c ****     
 505:Drivers/STM32F3xx_HAL_Driver/Src/stm32f3xx_hal_rcc_ex.c ****     /* Configure the CEC clock source */
 506:Drivers/STM32F3xx_HAL_Driver/Src/stm32f3xx_hal_rcc_ex.c ****     __HAL_RCC_TIM2_CONFIG(PeriphClkInit->Tim2ClockSelection);
 507:Drivers/STM32F3xx_HAL_Driver/Src/stm32f3xx_hal_rcc_ex.c ****   }
 508:Drivers/STM32F3xx_HAL_Driver/Src/stm32f3xx_hal_rcc_ex.c **** 
 509:Drivers/STM32F3xx_HAL_Driver/Src/stm32f3xx_hal_rcc_ex.c ****   /*------------------------------ TIM3 clock Configuration -------------------*/ 
 510:Drivers/STM32F3xx_HAL_Driver/Src/stm32f3xx_hal_rcc_ex.c ****   if(((PeriphClkInit->PeriphClockSelection) & RCC_PERIPHCLK_TIM34) == RCC_PERIPHCLK_TIM34)
 511:Drivers/STM32F3xx_HAL_Driver/Src/stm32f3xx_hal_rcc_ex.c ****   {
 512:Drivers/STM32F3xx_HAL_Driver/Src/stm32f3xx_hal_rcc_ex.c ****     /* Check the parameters */
 513:Drivers/STM32F3xx_HAL_Driver/Src/stm32f3xx_hal_rcc_ex.c ****     assert_param(IS_RCC_TIM3CLKSOURCE(PeriphClkInit->Tim34ClockSelection));
 514:Drivers/STM32F3xx_HAL_Driver/Src/stm32f3xx_hal_rcc_ex.c ****     
 515:Drivers/STM32F3xx_HAL_Driver/Src/stm32f3xx_hal_rcc_ex.c ****     /* Configure the CEC clock source */
 516:Drivers/STM32F3xx_HAL_Driver/Src/stm32f3xx_hal_rcc_ex.c ****     __HAL_RCC_TIM34_CONFIG(PeriphClkInit->Tim34ClockSelection);
 517:Drivers/STM32F3xx_HAL_Driver/Src/stm32f3xx_hal_rcc_ex.c ****   }
 518:Drivers/STM32F3xx_HAL_Driver/Src/stm32f3xx_hal_rcc_ex.c **** 
 519:Drivers/STM32F3xx_HAL_Driver/Src/stm32f3xx_hal_rcc_ex.c ****   /*------------------------------ TIM15 clock Configuration ------------------*/ 
 520:Drivers/STM32F3xx_HAL_Driver/Src/stm32f3xx_hal_rcc_ex.c ****   if(((PeriphClkInit->PeriphClockSelection) & RCC_PERIPHCLK_TIM15) == RCC_PERIPHCLK_TIM15)
 521:Drivers/STM32F3xx_HAL_Driver/Src/stm32f3xx_hal_rcc_ex.c ****   {
 522:Drivers/STM32F3xx_HAL_Driver/Src/stm32f3xx_hal_rcc_ex.c ****     /* Check the parameters */
 523:Drivers/STM32F3xx_HAL_Driver/Src/stm32f3xx_hal_rcc_ex.c ****     assert_param(IS_RCC_TIM15CLKSOURCE(PeriphClkInit->Tim15ClockSelection));
 524:Drivers/STM32F3xx_HAL_Driver/Src/stm32f3xx_hal_rcc_ex.c ****     
 525:Drivers/STM32F3xx_HAL_Driver/Src/stm32f3xx_hal_rcc_ex.c ****     /* Configure the CEC clock source */
 526:Drivers/STM32F3xx_HAL_Driver/Src/stm32f3xx_hal_rcc_ex.c ****     __HAL_RCC_TIM15_CONFIG(PeriphClkInit->Tim15ClockSelection);
 527:Drivers/STM32F3xx_HAL_Driver/Src/stm32f3xx_hal_rcc_ex.c ****   }
 528:Drivers/STM32F3xx_HAL_Driver/Src/stm32f3xx_hal_rcc_ex.c **** 
 529:Drivers/STM32F3xx_HAL_Driver/Src/stm32f3xx_hal_rcc_ex.c ****   /*------------------------------ TIM16 clock Configuration ------------------*/ 
 530:Drivers/STM32F3xx_HAL_Driver/Src/stm32f3xx_hal_rcc_ex.c ****   if(((PeriphClkInit->PeriphClockSelection) & RCC_PERIPHCLK_TIM16) == RCC_PERIPHCLK_TIM16)
 531:Drivers/STM32F3xx_HAL_Driver/Src/stm32f3xx_hal_rcc_ex.c ****   {
 532:Drivers/STM32F3xx_HAL_Driver/Src/stm32f3xx_hal_rcc_ex.c ****     /* Check the parameters */
 533:Drivers/STM32F3xx_HAL_Driver/Src/stm32f3xx_hal_rcc_ex.c ****     assert_param(IS_RCC_TIM16CLKSOURCE(PeriphClkInit->Tim16ClockSelection));
 534:Drivers/STM32F3xx_HAL_Driver/Src/stm32f3xx_hal_rcc_ex.c ****     
 535:Drivers/STM32F3xx_HAL_Driver/Src/stm32f3xx_hal_rcc_ex.c ****     /* Configure the CEC clock source */
 536:Drivers/STM32F3xx_HAL_Driver/Src/stm32f3xx_hal_rcc_ex.c ****     __HAL_RCC_TIM16_CONFIG(PeriphClkInit->Tim16ClockSelection);
 537:Drivers/STM32F3xx_HAL_Driver/Src/stm32f3xx_hal_rcc_ex.c ****   }
 538:Drivers/STM32F3xx_HAL_Driver/Src/stm32f3xx_hal_rcc_ex.c **** 
 539:Drivers/STM32F3xx_HAL_Driver/Src/stm32f3xx_hal_rcc_ex.c ****   /*------------------------------ TIM17 clock Configuration ------------------*/ 
 540:Drivers/STM32F3xx_HAL_Driver/Src/stm32f3xx_hal_rcc_ex.c ****   if(((PeriphClkInit->PeriphClockSelection) & RCC_PERIPHCLK_TIM17) == RCC_PERIPHCLK_TIM17)
 541:Drivers/STM32F3xx_HAL_Driver/Src/stm32f3xx_hal_rcc_ex.c ****   {
 542:Drivers/STM32F3xx_HAL_Driver/Src/stm32f3xx_hal_rcc_ex.c ****     /* Check the parameters */
 543:Drivers/STM32F3xx_HAL_Driver/Src/stm32f3xx_hal_rcc_ex.c ****     assert_param(IS_RCC_TIM17CLKSOURCE(PeriphClkInit->Tim17ClockSelection));
 544:Drivers/STM32F3xx_HAL_Driver/Src/stm32f3xx_hal_rcc_ex.c ****     
 545:Drivers/STM32F3xx_HAL_Driver/Src/stm32f3xx_hal_rcc_ex.c ****     /* Configure the CEC clock source */
 546:Drivers/STM32F3xx_HAL_Driver/Src/stm32f3xx_hal_rcc_ex.c ****     __HAL_RCC_TIM17_CONFIG(PeriphClkInit->Tim17ClockSelection);
 547:Drivers/STM32F3xx_HAL_Driver/Src/stm32f3xx_hal_rcc_ex.c ****   }
 548:Drivers/STM32F3xx_HAL_Driver/Src/stm32f3xx_hal_rcc_ex.c **** 
 549:Drivers/STM32F3xx_HAL_Driver/Src/stm32f3xx_hal_rcc_ex.c **** #endif /* STM32F302xE || STM32F303xE || STM32F398xx */  
 550:Drivers/STM32F3xx_HAL_Driver/Src/stm32f3xx_hal_rcc_ex.c **** 
 551:Drivers/STM32F3xx_HAL_Driver/Src/stm32f3xx_hal_rcc_ex.c **** #if defined(STM32F303xE) || defined(STM32F398xx)
 552:Drivers/STM32F3xx_HAL_Driver/Src/stm32f3xx_hal_rcc_ex.c ****   /*------------------------------ TIM20 clock Configuration ------------------*/ 
 553:Drivers/STM32F3xx_HAL_Driver/Src/stm32f3xx_hal_rcc_ex.c ****   if(((PeriphClkInit->PeriphClockSelection) & RCC_PERIPHCLK_TIM20) == RCC_PERIPHCLK_TIM20)
 554:Drivers/STM32F3xx_HAL_Driver/Src/stm32f3xx_hal_rcc_ex.c ****   {
 555:Drivers/STM32F3xx_HAL_Driver/Src/stm32f3xx_hal_rcc_ex.c ****     /* Check the parameters */
 556:Drivers/STM32F3xx_HAL_Driver/Src/stm32f3xx_hal_rcc_ex.c ****     assert_param(IS_RCC_TIM20CLKSOURCE(PeriphClkInit->Tim20ClockSelection));
 557:Drivers/STM32F3xx_HAL_Driver/Src/stm32f3xx_hal_rcc_ex.c ****     
ARM GAS  /var/folders/b1/22c950295gx2kqj80tvj8wqc0000gn/T//ccYsOlQx.s 			page 33


 558:Drivers/STM32F3xx_HAL_Driver/Src/stm32f3xx_hal_rcc_ex.c ****     /* Configure the CEC clock source */
 559:Drivers/STM32F3xx_HAL_Driver/Src/stm32f3xx_hal_rcc_ex.c ****     __HAL_RCC_TIM20_CONFIG(PeriphClkInit->Tim20ClockSelection);
 560:Drivers/STM32F3xx_HAL_Driver/Src/stm32f3xx_hal_rcc_ex.c ****   }
 561:Drivers/STM32F3xx_HAL_Driver/Src/stm32f3xx_hal_rcc_ex.c **** #endif /* STM32F303xE || STM32F398xx */  
 562:Drivers/STM32F3xx_HAL_Driver/Src/stm32f3xx_hal_rcc_ex.c **** 
 563:Drivers/STM32F3xx_HAL_Driver/Src/stm32f3xx_hal_rcc_ex.c ****   
 564:Drivers/STM32F3xx_HAL_Driver/Src/stm32f3xx_hal_rcc_ex.c ****   return HAL_OK;
 256              		.loc 1 564 10 view .LVU78
 257 00d8 1846     		mov	r0, r3
 565:Drivers/STM32F3xx_HAL_Driver/Src/stm32f3xx_hal_rcc_ex.c **** }
 258              		.loc 1 565 1 view .LVU79
 259 00da 03B0     		add	sp, sp, #12
 260              	.LCFI2:
 261              		.cfi_remember_state
 262              		.cfi_def_cfa_offset 28
 263              		@ sp needed
 264 00dc BDE8F083 		pop	{r4, r5, r6, r7, r8, r9, pc}
 265              	.LVL13:
 266              	.L45:
 267              	.LCFI3:
 268              		.cfi_restore_state
 465:Drivers/STM32F3xx_HAL_Driver/Src/stm32f3xx_hal_rcc_ex.c ****     
 269              		.loc 1 465 5 is_stmt 1 view .LVU80
 468:Drivers/STM32F3xx_HAL_Driver/Src/stm32f3xx_hal_rcc_ex.c ****   }
 270              		.loc 1 468 5 view .LVU81
 271 00e0 244A     		ldr	r2, .L46
 272 00e2 A169     		ldr	r1, [r4, #24]
 273 00e4 136B     		ldr	r3, [r2, #48]
 274 00e6 23F48053 		bic	r3, r3, #4096
 564:Drivers/STM32F3xx_HAL_Driver/Src/stm32f3xx_hal_rcc_ex.c **** }
 275              		.loc 1 564 10 is_stmt 0 view .LVU82
 276 00ea 0020     		movs	r0, #0
 468:Drivers/STM32F3xx_HAL_Driver/Src/stm32f3xx_hal_rcc_ex.c ****   }
 277              		.loc 1 468 5 view .LVU83
 278 00ec 0B43     		orrs	r3, r3, r1
 279 00ee 1363     		str	r3, [r2, #48]
 280              		.loc 1 565 1 view .LVU84
 281 00f0 03B0     		add	sp, sp, #12
 282              	.LCFI4:
 283              		.cfi_remember_state
 284              		.cfi_def_cfa_offset 28
 285              		@ sp needed
 286 00f2 BDE8F083 		pop	{r4, r5, r6, r7, r8, r9, pc}
 287              	.LVL14:
 288              	.L44:
 289              	.LCFI5:
 290              		.cfi_restore_state
 128:Drivers/STM32F3xx_HAL_Driver/Src/stm32f3xx_hal_rcc_ex.c ****       pwrclkchanged = SET;
 291              		.loc 1 128 7 is_stmt 1 view .LVU85
 292              	.LBB23:
 128:Drivers/STM32F3xx_HAL_Driver/Src/stm32f3xx_hal_rcc_ex.c ****       pwrclkchanged = SET;
 293              		.loc 1 128 7 view .LVU86
 128:Drivers/STM32F3xx_HAL_Driver/Src/stm32f3xx_hal_rcc_ex.c ****       pwrclkchanged = SET;
 294              		.loc 1 128 7 view .LVU87
 295 00f6 DA69     		ldr	r2, [r3, #28]
 296              	.LBE23:
 132:Drivers/STM32F3xx_HAL_Driver/Src/stm32f3xx_hal_rcc_ex.c ****     {
ARM GAS  /var/folders/b1/22c950295gx2kqj80tvj8wqc0000gn/T//ccYsOlQx.s 			page 34


 297              		.loc 1 132 8 is_stmt 0 view .LVU88
 298 00f8 1F4D     		ldr	r5, .L46+4
 299              	.LBB24:
 128:Drivers/STM32F3xx_HAL_Driver/Src/stm32f3xx_hal_rcc_ex.c ****       pwrclkchanged = SET;
 300              		.loc 1 128 7 view .LVU89
 301 00fa 42F08052 		orr	r2, r2, #268435456
 302 00fe DA61     		str	r2, [r3, #28]
 128:Drivers/STM32F3xx_HAL_Driver/Src/stm32f3xx_hal_rcc_ex.c ****       pwrclkchanged = SET;
 303              		.loc 1 128 7 is_stmt 1 view .LVU90
 304 0100 DB69     		ldr	r3, [r3, #28]
 305 0102 03F08053 		and	r3, r3, #268435456
 306 0106 0193     		str	r3, [sp, #4]
 128:Drivers/STM32F3xx_HAL_Driver/Src/stm32f3xx_hal_rcc_ex.c ****       pwrclkchanged = SET;
 307              		.loc 1 128 7 view .LVU91
 308 0108 019B     		ldr	r3, [sp, #4]
 309              	.LBE24:
 128:Drivers/STM32F3xx_HAL_Driver/Src/stm32f3xx_hal_rcc_ex.c ****       pwrclkchanged = SET;
 310              		.loc 1 128 7 view .LVU92
 129:Drivers/STM32F3xx_HAL_Driver/Src/stm32f3xx_hal_rcc_ex.c ****     }
 311              		.loc 1 129 7 view .LVU93
 312              	.LVL15:
 132:Drivers/STM32F3xx_HAL_Driver/Src/stm32f3xx_hal_rcc_ex.c ****     {
 313              		.loc 1 132 8 is_stmt 0 view .LVU94
 314 010a 2B68     		ldr	r3, [r5]
 132:Drivers/STM32F3xx_HAL_Driver/Src/stm32f3xx_hal_rcc_ex.c ****     {
 315              		.loc 1 132 7 view .LVU95
 316 010c DA05     		lsls	r2, r3, #23
 129:Drivers/STM32F3xx_HAL_Driver/Src/stm32f3xx_hal_rcc_ex.c ****     }
 317              		.loc 1 129 21 view .LVU96
 318 010e 4FF00106 		mov	r6, #1
 319              	.LVL16:
 132:Drivers/STM32F3xx_HAL_Driver/Src/stm32f3xx_hal_rcc_ex.c ****     {
 320              		.loc 1 132 5 is_stmt 1 view .LVU97
 132:Drivers/STM32F3xx_HAL_Driver/Src/stm32f3xx_hal_rcc_ex.c ****     {
 321              		.loc 1 132 7 is_stmt 0 view .LVU98
 322 0112 86D4     		bmi	.L10
 323              	.L4:
 135:Drivers/STM32F3xx_HAL_Driver/Src/stm32f3xx_hal_rcc_ex.c ****       
 324              		.loc 1 135 7 is_stmt 1 view .LVU99
 325 0114 2B68     		ldr	r3, [r5]
 326 0116 43F48073 		orr	r3, r3, #256
 327 011a 2B60     		str	r3, [r5]
 138:Drivers/STM32F3xx_HAL_Driver/Src/stm32f3xx_hal_rcc_ex.c ****       
 328              		.loc 1 138 7 view .LVU100
 138:Drivers/STM32F3xx_HAL_Driver/Src/stm32f3xx_hal_rcc_ex.c ****       
 329              		.loc 1 138 19 is_stmt 0 view .LVU101
 330 011c FFF7FEFF 		bl	HAL_GetTick
 331              	.LVL17:
 332 0120 0746     		mov	r7, r0
 333              	.LVL18:
 140:Drivers/STM32F3xx_HAL_Driver/Src/stm32f3xx_hal_rcc_ex.c ****       {
 334              		.loc 1 140 7 is_stmt 1 view .LVU102
 335              	.L7:
 142:Drivers/STM32F3xx_HAL_Driver/Src/stm32f3xx_hal_rcc_ex.c ****         {
 336              		.loc 1 142 11 view .LVU103
 140:Drivers/STM32F3xx_HAL_Driver/Src/stm32f3xx_hal_rcc_ex.c ****       {
 337              		.loc 1 140 13 view .LVU104
ARM GAS  /var/folders/b1/22c950295gx2kqj80tvj8wqc0000gn/T//ccYsOlQx.s 			page 35


 338 0122 2B68     		ldr	r3, [r5]
 339 0124 DB05     		lsls	r3, r3, #23
 340 0126 3FF57CAF 		bmi	.L10
 142:Drivers/STM32F3xx_HAL_Driver/Src/stm32f3xx_hal_rcc_ex.c ****         {
 341              		.loc 1 142 15 is_stmt 0 view .LVU105
 342 012a FFF7FEFF 		bl	HAL_GetTick
 343              	.LVL19:
 142:Drivers/STM32F3xx_HAL_Driver/Src/stm32f3xx_hal_rcc_ex.c ****         {
 344              		.loc 1 142 29 view .LVU106
 345 012e C01B     		subs	r0, r0, r7
 142:Drivers/STM32F3xx_HAL_Driver/Src/stm32f3xx_hal_rcc_ex.c ****         {
 346              		.loc 1 142 13 view .LVU107
 347 0130 6428     		cmp	r0, #100
 348 0132 F6D9     		bls	.L7
 349              	.LVL20:
 350              	.L14:
 144:Drivers/STM32F3xx_HAL_Driver/Src/stm32f3xx_hal_rcc_ex.c ****         }
 351              		.loc 1 144 18 view .LVU108
 352 0134 0320     		movs	r0, #3
 353              		.loc 1 565 1 view .LVU109
 354 0136 03B0     		add	sp, sp, #12
 355              	.LCFI6:
 356              		.cfi_remember_state
 357              		.cfi_def_cfa_offset 28
 358              		@ sp needed
 359 0138 BDE8F083 		pop	{r4, r5, r6, r7, r8, r9, pc}
 360              	.LVL21:
 361              	.L12:
 362              	.LCFI7:
 363              		.cfi_restore_state
 165:Drivers/STM32F3xx_HAL_Driver/Src/stm32f3xx_hal_rcc_ex.c ****         
 364              		.loc 1 165 9 is_stmt 1 view .LVU110
 165:Drivers/STM32F3xx_HAL_Driver/Src/stm32f3xx_hal_rcc_ex.c ****         
 365              		.loc 1 165 21 is_stmt 0 view .LVU111
 366 013c FFF7FEFF 		bl	HAL_GetTick
 367              	.LVL22:
 368              	.LBB25:
 369              	.LBB26:
 988:Drivers/CMSIS/Include/cmsis_gcc.h **** #else
 370              		.loc 2 988 4 view .LVU112
 371 0140 4FF00209 		mov	r9, #2
 372              	.LBE26:
 373              	.LBE25:
 165:Drivers/STM32F3xx_HAL_Driver/Src/stm32f3xx_hal_rcc_ex.c ****         
 374              		.loc 1 165 21 view .LVU113
 375 0144 0746     		mov	r7, r0
 376              	.LVL23:
 168:Drivers/STM32F3xx_HAL_Driver/Src/stm32f3xx_hal_rcc_ex.c ****         {
 377              		.loc 1 168 9 is_stmt 1 view .LVU114
 168:Drivers/STM32F3xx_HAL_Driver/Src/stm32f3xx_hal_rcc_ex.c ****         {
 378              		.loc 1 168 14 is_stmt 0 view .LVU115
 379 0146 06E0     		b	.L13
 380              	.LVL24:
 381              	.L15:
 170:Drivers/STM32F3xx_HAL_Driver/Src/stm32f3xx_hal_rcc_ex.c ****           {
 382              		.loc 1 170 17 view .LVU116
 383 0148 FFF7FEFF 		bl	HAL_GetTick
ARM GAS  /var/folders/b1/22c950295gx2kqj80tvj8wqc0000gn/T//ccYsOlQx.s 			page 36


 384              	.LVL25:
 170:Drivers/STM32F3xx_HAL_Driver/Src/stm32f3xx_hal_rcc_ex.c ****           {
 385              		.loc 1 170 15 view .LVU117
 386 014c 41F28833 		movw	r3, #5000
 170:Drivers/STM32F3xx_HAL_Driver/Src/stm32f3xx_hal_rcc_ex.c ****           {
 387              		.loc 1 170 31 view .LVU118
 388 0150 C01B     		subs	r0, r0, r7
 170:Drivers/STM32F3xx_HAL_Driver/Src/stm32f3xx_hal_rcc_ex.c ****           {
 389              		.loc 1 170 15 view .LVU119
 390 0152 9842     		cmp	r0, r3
 391 0154 EED8     		bhi	.L14
 392              	.L13:
 168:Drivers/STM32F3xx_HAL_Driver/Src/stm32f3xx_hal_rcc_ex.c ****         {
 393              		.loc 1 168 51 is_stmt 1 view .LVU120
 394              	.LVL26:
 395              	.LBB28:
 396              	.LBI25:
 981:Drivers/CMSIS/Include/cmsis_gcc.h **** {
 397              		.loc 2 981 31 view .LVU121
 398              	.LBB27:
 983:Drivers/CMSIS/Include/cmsis_gcc.h **** 
 399              		.loc 2 983 3 view .LVU122
 988:Drivers/CMSIS/Include/cmsis_gcc.h **** #else
 400              		.loc 2 988 4 view .LVU123
 401              		.syntax unified
 402              	@ 988 "Drivers/CMSIS/Include/cmsis_gcc.h" 1
 403 0156 99FAA9F3 		rbit r3, r9
 404              	@ 0 "" 2
 405              	.LVL27:
 406              		.loc 2 1001 3 view .LVU124
 407              		.loc 2 1001 3 is_stmt 0 view .LVU125
 408              		.thumb
 409              		.syntax unified
 410              	.LBE27:
 411              	.LBE28:
 412              	.LBB29:
 413              	.LBI29:
 981:Drivers/CMSIS/Include/cmsis_gcc.h **** {
 414              		.loc 2 981 31 is_stmt 1 view .LVU126
 415              	.LBB30:
 983:Drivers/CMSIS/Include/cmsis_gcc.h **** 
 416              		.loc 2 983 3 view .LVU127
 988:Drivers/CMSIS/Include/cmsis_gcc.h **** #else
 417              		.loc 2 988 4 view .LVU128
 418              		.syntax unified
 419              	@ 988 "Drivers/CMSIS/Include/cmsis_gcc.h" 1
 420 015a 99FAA9F3 		rbit r3, r9
 421              	@ 0 "" 2
 422              	.LVL28:
 423              		.loc 2 1001 3 view .LVU129
 424              		.loc 2 1001 3 is_stmt 0 view .LVU130
 425              		.thumb
 426              		.syntax unified
 427              	.LBE30:
 428              	.LBE29:
 168:Drivers/STM32F3xx_HAL_Driver/Src/stm32f3xx_hal_rcc_ex.c ****         {
 429              		.loc 1 168 15 view .LVU131
ARM GAS  /var/folders/b1/22c950295gx2kqj80tvj8wqc0000gn/T//ccYsOlQx.s 			page 37


 430 015e D8F82020 		ldr	r2, [r8, #32]
 431              	.LVL29:
 432              	.LBB31:
 433              	.LBI31:
 981:Drivers/CMSIS/Include/cmsis_gcc.h **** {
 434              		.loc 2 981 31 is_stmt 1 view .LVU132
 435              	.LBB32:
 983:Drivers/CMSIS/Include/cmsis_gcc.h **** 
 436              		.loc 2 983 3 view .LVU133
 988:Drivers/CMSIS/Include/cmsis_gcc.h **** #else
 437              		.loc 2 988 4 view .LVU134
 438              		.syntax unified
 439              	@ 988 "Drivers/CMSIS/Include/cmsis_gcc.h" 1
 440 0162 99FAA9F3 		rbit r3, r9
 441              	@ 0 "" 2
 442              		.thumb
 443              		.syntax unified
 444              	.LBE32:
 445              	.LBE31:
 170:Drivers/STM32F3xx_HAL_Driver/Src/stm32f3xx_hal_rcc_ex.c ****           {
 446              		.loc 1 170 13 view .LVU135
 447              	.LVL30:
 448              	.LBB34:
 449              	.LBB33:
 450              		.loc 2 1001 3 view .LVU136
 451              		.loc 2 1001 3 is_stmt 0 view .LVU137
 452              	.LBE33:
 453              	.LBE34:
 168:Drivers/STM32F3xx_HAL_Driver/Src/stm32f3xx_hal_rcc_ex.c ****         {
 454              		.loc 1 168 15 view .LVU138
 455 0166 B3FA83F3 		clz	r3, r3
 456 016a 05FA03F3 		lsl	r3, r5, r3
 168:Drivers/STM32F3xx_HAL_Driver/Src/stm32f3xx_hal_rcc_ex.c ****         {
 457              		.loc 1 168 51 view .LVU139
 458 016e 1342     		tst	r3, r2
 459 0170 EAD0     		beq	.L15
 460 0172 7DE7     		b	.L41
 461              	.L47:
 462              		.align	2
 463              	.L46:
 464 0174 00100240 		.word	1073876992
 465 0178 00700040 		.word	1073770496
 466 017c 00819010 		.word	277905664
 467              		.cfi_endproc
 468              	.LFE123:
 470              		.section	.text.HAL_RCCEx_GetPeriphCLKConfig,"ax",%progbits
 471              		.align	1
 472              		.p2align 2,,3
 473              		.global	HAL_RCCEx_GetPeriphCLKConfig
 474              		.syntax unified
 475              		.thumb
 476              		.thumb_func
 478              	HAL_RCCEx_GetPeriphCLKConfig:
 479              	.LVL31:
 480              	.LFB124:
 566:Drivers/STM32F3xx_HAL_Driver/Src/stm32f3xx_hal_rcc_ex.c **** 
 567:Drivers/STM32F3xx_HAL_Driver/Src/stm32f3xx_hal_rcc_ex.c **** /**
ARM GAS  /var/folders/b1/22c950295gx2kqj80tvj8wqc0000gn/T//ccYsOlQx.s 			page 38


 568:Drivers/STM32F3xx_HAL_Driver/Src/stm32f3xx_hal_rcc_ex.c ****   * @brief  Get the RCC_ClkInitStruct according to the internal
 569:Drivers/STM32F3xx_HAL_Driver/Src/stm32f3xx_hal_rcc_ex.c ****   * RCC configuration registers.
 570:Drivers/STM32F3xx_HAL_Driver/Src/stm32f3xx_hal_rcc_ex.c ****   * @param  PeriphClkInit pointer to an RCC_PeriphCLKInitTypeDef structure that
 571:Drivers/STM32F3xx_HAL_Driver/Src/stm32f3xx_hal_rcc_ex.c ****   *         returns the configuration information for the Extended Peripherals clocks
 572:Drivers/STM32F3xx_HAL_Driver/Src/stm32f3xx_hal_rcc_ex.c ****   *         (ADC, CEC, I2C, I2S, SDADC, HRTIM, TIM, USART, RTC and USB clocks).
 573:Drivers/STM32F3xx_HAL_Driver/Src/stm32f3xx_hal_rcc_ex.c ****   * @retval None
 574:Drivers/STM32F3xx_HAL_Driver/Src/stm32f3xx_hal_rcc_ex.c ****   */
 575:Drivers/STM32F3xx_HAL_Driver/Src/stm32f3xx_hal_rcc_ex.c **** void HAL_RCCEx_GetPeriphCLKConfig(RCC_PeriphCLKInitTypeDef  *PeriphClkInit)
 576:Drivers/STM32F3xx_HAL_Driver/Src/stm32f3xx_hal_rcc_ex.c **** {
 481              		.loc 1 576 1 is_stmt 1 view -0
 482              		.cfi_startproc
 483              		@ args = 0, pretend = 0, frame = 0
 484              		@ frame_needed = 0, uses_anonymous_args = 0
 485              		@ link register save eliminated.
 577:Drivers/STM32F3xx_HAL_Driver/Src/stm32f3xx_hal_rcc_ex.c ****   /* Set all possible values for the extended clock type parameter------------*/
 578:Drivers/STM32F3xx_HAL_Driver/Src/stm32f3xx_hal_rcc_ex.c ****   /* Common part first */
 579:Drivers/STM32F3xx_HAL_Driver/Src/stm32f3xx_hal_rcc_ex.c **** #if defined(RCC_CFGR3_USART2SW) && defined(RCC_CFGR3_USART3SW)
 580:Drivers/STM32F3xx_HAL_Driver/Src/stm32f3xx_hal_rcc_ex.c ****   PeriphClkInit->PeriphClockSelection = RCC_PERIPHCLK_USART1 | RCC_PERIPHCLK_USART2 | RCC_PERIPHCLK
 581:Drivers/STM32F3xx_HAL_Driver/Src/stm32f3xx_hal_rcc_ex.c ****                                         RCC_PERIPHCLK_I2C1   | RCC_PERIPHCLK_RTC;
 582:Drivers/STM32F3xx_HAL_Driver/Src/stm32f3xx_hal_rcc_ex.c **** #else
 583:Drivers/STM32F3xx_HAL_Driver/Src/stm32f3xx_hal_rcc_ex.c ****   PeriphClkInit->PeriphClockSelection = RCC_PERIPHCLK_USART1 | \
 486              		.loc 1 583 3 view .LVU141
 584:Drivers/STM32F3xx_HAL_Driver/Src/stm32f3xx_hal_rcc_ex.c ****                                         RCC_PERIPHCLK_I2C1   | RCC_PERIPHCLK_RTC;
 585:Drivers/STM32F3xx_HAL_Driver/Src/stm32f3xx_hal_rcc_ex.c **** #endif /* RCC_CFGR3_USART2SW && RCC_CFGR3_USART3SW */
 586:Drivers/STM32F3xx_HAL_Driver/Src/stm32f3xx_hal_rcc_ex.c ****   
 587:Drivers/STM32F3xx_HAL_Driver/Src/stm32f3xx_hal_rcc_ex.c ****   /* Get the RTC configuration --------------------------------------------*/
 588:Drivers/STM32F3xx_HAL_Driver/Src/stm32f3xx_hal_rcc_ex.c ****   PeriphClkInit->RTCClockSelection = __HAL_RCC_GET_RTC_SOURCE();
 487              		.loc 1 588 3 view .LVU142
 488              		.loc 1 588 38 is_stmt 0 view .LVU143
 489 0000 0D4B     		ldr	r3, .L49
 589:Drivers/STM32F3xx_HAL_Driver/Src/stm32f3xx_hal_rcc_ex.c ****   /* Get the USART1 clock configuration --------------------------------------------*/
 590:Drivers/STM32F3xx_HAL_Driver/Src/stm32f3xx_hal_rcc_ex.c ****   PeriphClkInit->Usart1ClockSelection = __HAL_RCC_GET_USART1_SOURCE();
 591:Drivers/STM32F3xx_HAL_Driver/Src/stm32f3xx_hal_rcc_ex.c **** #if defined(RCC_CFGR3_USART2SW)
 592:Drivers/STM32F3xx_HAL_Driver/Src/stm32f3xx_hal_rcc_ex.c ****   /* Get the USART2 clock configuration -----------------------------------------*/
 593:Drivers/STM32F3xx_HAL_Driver/Src/stm32f3xx_hal_rcc_ex.c ****   PeriphClkInit->Usart2ClockSelection = __HAL_RCC_GET_USART2_SOURCE();
 594:Drivers/STM32F3xx_HAL_Driver/Src/stm32f3xx_hal_rcc_ex.c **** #endif /* RCC_CFGR3_USART2SW */
 595:Drivers/STM32F3xx_HAL_Driver/Src/stm32f3xx_hal_rcc_ex.c **** #if defined(RCC_CFGR3_USART3SW)
 596:Drivers/STM32F3xx_HAL_Driver/Src/stm32f3xx_hal_rcc_ex.c ****    /* Get the USART3 clock configuration -----------------------------------------*/
 597:Drivers/STM32F3xx_HAL_Driver/Src/stm32f3xx_hal_rcc_ex.c ****   PeriphClkInit->Usart3ClockSelection = __HAL_RCC_GET_USART3_SOURCE();
 598:Drivers/STM32F3xx_HAL_Driver/Src/stm32f3xx_hal_rcc_ex.c **** #endif /* RCC_CFGR3_USART3SW */
 599:Drivers/STM32F3xx_HAL_Driver/Src/stm32f3xx_hal_rcc_ex.c ****   /* Get the I2C1 clock configuration -----------------------------------------*/
 600:Drivers/STM32F3xx_HAL_Driver/Src/stm32f3xx_hal_rcc_ex.c ****   PeriphClkInit->I2c1ClockSelection = __HAL_RCC_GET_I2C1_SOURCE();
 601:Drivers/STM32F3xx_HAL_Driver/Src/stm32f3xx_hal_rcc_ex.c **** 
 602:Drivers/STM32F3xx_HAL_Driver/Src/stm32f3xx_hal_rcc_ex.c **** #if defined(STM32F302xE) || defined(STM32F303xE)\
 603:Drivers/STM32F3xx_HAL_Driver/Src/stm32f3xx_hal_rcc_ex.c ****     || defined(STM32F302xC) || defined(STM32F303xC)\
 604:Drivers/STM32F3xx_HAL_Driver/Src/stm32f3xx_hal_rcc_ex.c ****     || defined(STM32F302x8)                        \
 605:Drivers/STM32F3xx_HAL_Driver/Src/stm32f3xx_hal_rcc_ex.c ****     || defined(STM32F373xC)
 606:Drivers/STM32F3xx_HAL_Driver/Src/stm32f3xx_hal_rcc_ex.c **** 
 607:Drivers/STM32F3xx_HAL_Driver/Src/stm32f3xx_hal_rcc_ex.c ****   PeriphClkInit->PeriphClockSelection |= RCC_PERIPHCLK_USB;
 608:Drivers/STM32F3xx_HAL_Driver/Src/stm32f3xx_hal_rcc_ex.c ****   /* Get the USB clock configuration -----------------------------------------*/
 609:Drivers/STM32F3xx_HAL_Driver/Src/stm32f3xx_hal_rcc_ex.c ****   PeriphClkInit->USBClockSelection = __HAL_RCC_GET_USB_SOURCE();
 610:Drivers/STM32F3xx_HAL_Driver/Src/stm32f3xx_hal_rcc_ex.c **** 
 611:Drivers/STM32F3xx_HAL_Driver/Src/stm32f3xx_hal_rcc_ex.c **** #endif /* STM32F302xE || STM32F303xE || */
 612:Drivers/STM32F3xx_HAL_Driver/Src/stm32f3xx_hal_rcc_ex.c ****        /* STM32F302xC || STM32F303xC || */
 613:Drivers/STM32F3xx_HAL_Driver/Src/stm32f3xx_hal_rcc_ex.c ****        /* STM32F302x8                || */
 614:Drivers/STM32F3xx_HAL_Driver/Src/stm32f3xx_hal_rcc_ex.c ****        /* STM32F373xC                   */
 615:Drivers/STM32F3xx_HAL_Driver/Src/stm32f3xx_hal_rcc_ex.c **** 
ARM GAS  /var/folders/b1/22c950295gx2kqj80tvj8wqc0000gn/T//ccYsOlQx.s 			page 39


 616:Drivers/STM32F3xx_HAL_Driver/Src/stm32f3xx_hal_rcc_ex.c **** #if defined(STM32F302xE) || defined(STM32F303xE) || defined(STM32F398xx)\
 617:Drivers/STM32F3xx_HAL_Driver/Src/stm32f3xx_hal_rcc_ex.c ****     || defined(STM32F302xC) || defined(STM32F303xC) || defined(STM32F358xx)\
 618:Drivers/STM32F3xx_HAL_Driver/Src/stm32f3xx_hal_rcc_ex.c ****     || defined(STM32F301x8) || defined(STM32F302x8) || defined(STM32F318xx)\
 619:Drivers/STM32F3xx_HAL_Driver/Src/stm32f3xx_hal_rcc_ex.c ****     || defined(STM32F373xC) || defined(STM32F378xx)
 620:Drivers/STM32F3xx_HAL_Driver/Src/stm32f3xx_hal_rcc_ex.c **** 
 621:Drivers/STM32F3xx_HAL_Driver/Src/stm32f3xx_hal_rcc_ex.c ****   PeriphClkInit->PeriphClockSelection |= RCC_PERIPHCLK_I2C2;
 622:Drivers/STM32F3xx_HAL_Driver/Src/stm32f3xx_hal_rcc_ex.c ****   /* Get the I2C2 clock configuration -----------------------------------------*/
 623:Drivers/STM32F3xx_HAL_Driver/Src/stm32f3xx_hal_rcc_ex.c ****   PeriphClkInit->I2c2ClockSelection = __HAL_RCC_GET_I2C2_SOURCE();
 624:Drivers/STM32F3xx_HAL_Driver/Src/stm32f3xx_hal_rcc_ex.c **** 
 625:Drivers/STM32F3xx_HAL_Driver/Src/stm32f3xx_hal_rcc_ex.c **** #endif /* STM32F302xE || STM32F303xE || STM32F398xx || */
 626:Drivers/STM32F3xx_HAL_Driver/Src/stm32f3xx_hal_rcc_ex.c ****        /* STM32F302xC || STM32F303xC || STM32F358xx || */
 627:Drivers/STM32F3xx_HAL_Driver/Src/stm32f3xx_hal_rcc_ex.c ****        /* STM32F301x8 || STM32F302x8 || STM32F318xx || */
 628:Drivers/STM32F3xx_HAL_Driver/Src/stm32f3xx_hal_rcc_ex.c ****        /* STM32F373xC || STM32F378xx                   */
 629:Drivers/STM32F3xx_HAL_Driver/Src/stm32f3xx_hal_rcc_ex.c ****   
 630:Drivers/STM32F3xx_HAL_Driver/Src/stm32f3xx_hal_rcc_ex.c **** #if defined(STM32F302xE) || defined(STM32F303xE) || defined(STM32F398xx)\
 631:Drivers/STM32F3xx_HAL_Driver/Src/stm32f3xx_hal_rcc_ex.c ****     || defined(STM32F301x8) || defined(STM32F302x8) || defined(STM32F318xx)
 632:Drivers/STM32F3xx_HAL_Driver/Src/stm32f3xx_hal_rcc_ex.c **** 
 633:Drivers/STM32F3xx_HAL_Driver/Src/stm32f3xx_hal_rcc_ex.c ****   PeriphClkInit->PeriphClockSelection |= RCC_PERIPHCLK_I2C3;
 634:Drivers/STM32F3xx_HAL_Driver/Src/stm32f3xx_hal_rcc_ex.c ****   /* Get the I2C3 clock configuration -----------------------------------------*/
 635:Drivers/STM32F3xx_HAL_Driver/Src/stm32f3xx_hal_rcc_ex.c ****   PeriphClkInit->I2c3ClockSelection = __HAL_RCC_GET_I2C3_SOURCE();
 636:Drivers/STM32F3xx_HAL_Driver/Src/stm32f3xx_hal_rcc_ex.c **** 
 637:Drivers/STM32F3xx_HAL_Driver/Src/stm32f3xx_hal_rcc_ex.c **** #endif /* STM32F302xE || STM32F303xE || STM32F398xx || */
 638:Drivers/STM32F3xx_HAL_Driver/Src/stm32f3xx_hal_rcc_ex.c ****        /* STM32F301x8 || STM32F302x8 || STM32F318xx    */
 639:Drivers/STM32F3xx_HAL_Driver/Src/stm32f3xx_hal_rcc_ex.c ****   
 640:Drivers/STM32F3xx_HAL_Driver/Src/stm32f3xx_hal_rcc_ex.c **** #if defined(STM32F302xE) || defined(STM32F303xE) || defined(STM32F398xx)\
 641:Drivers/STM32F3xx_HAL_Driver/Src/stm32f3xx_hal_rcc_ex.c ****     || defined(STM32F302xC) || defined(STM32F303xC) ||defined(STM32F358xx)
 642:Drivers/STM32F3xx_HAL_Driver/Src/stm32f3xx_hal_rcc_ex.c **** 
 643:Drivers/STM32F3xx_HAL_Driver/Src/stm32f3xx_hal_rcc_ex.c ****   PeriphClkInit->PeriphClockSelection |= (RCC_PERIPHCLK_UART4  | RCC_PERIPHCLK_UART5);
 644:Drivers/STM32F3xx_HAL_Driver/Src/stm32f3xx_hal_rcc_ex.c ****   /* Get the UART4 clock configuration -----------------------------------------*/
 645:Drivers/STM32F3xx_HAL_Driver/Src/stm32f3xx_hal_rcc_ex.c ****   PeriphClkInit->Uart4ClockSelection = __HAL_RCC_GET_UART4_SOURCE();
 646:Drivers/STM32F3xx_HAL_Driver/Src/stm32f3xx_hal_rcc_ex.c ****   /* Get the UART5 clock configuration -----------------------------------------*/
 647:Drivers/STM32F3xx_HAL_Driver/Src/stm32f3xx_hal_rcc_ex.c ****   PeriphClkInit->Uart5ClockSelection = __HAL_RCC_GET_UART5_SOURCE();
 648:Drivers/STM32F3xx_HAL_Driver/Src/stm32f3xx_hal_rcc_ex.c **** 
 649:Drivers/STM32F3xx_HAL_Driver/Src/stm32f3xx_hal_rcc_ex.c **** #endif /* STM32F302xE || STM32F303xE || STM32F398xx || */
 650:Drivers/STM32F3xx_HAL_Driver/Src/stm32f3xx_hal_rcc_ex.c ****        /* STM32F302xC || STM32F303xC || STM32F358xx */
 651:Drivers/STM32F3xx_HAL_Driver/Src/stm32f3xx_hal_rcc_ex.c **** 
 652:Drivers/STM32F3xx_HAL_Driver/Src/stm32f3xx_hal_rcc_ex.c **** #if defined(STM32F302xE) || defined(STM32F303xE) || defined(STM32F398xx)\
 653:Drivers/STM32F3xx_HAL_Driver/Src/stm32f3xx_hal_rcc_ex.c ****     || defined(STM32F302xC) || defined(STM32F303xC) || defined(STM32F358xx)\
 654:Drivers/STM32F3xx_HAL_Driver/Src/stm32f3xx_hal_rcc_ex.c ****     || defined(STM32F301x8) || defined(STM32F302x8) || defined(STM32F318xx)
 655:Drivers/STM32F3xx_HAL_Driver/Src/stm32f3xx_hal_rcc_ex.c **** 
 656:Drivers/STM32F3xx_HAL_Driver/Src/stm32f3xx_hal_rcc_ex.c ****   PeriphClkInit->PeriphClockSelection |= RCC_PERIPHCLK_I2S;
 657:Drivers/STM32F3xx_HAL_Driver/Src/stm32f3xx_hal_rcc_ex.c ****   /* Get the I2S clock configuration -----------------------------------------*/
 658:Drivers/STM32F3xx_HAL_Driver/Src/stm32f3xx_hal_rcc_ex.c ****   PeriphClkInit->I2sClockSelection = __HAL_RCC_GET_I2S_SOURCE();
 659:Drivers/STM32F3xx_HAL_Driver/Src/stm32f3xx_hal_rcc_ex.c **** 
 660:Drivers/STM32F3xx_HAL_Driver/Src/stm32f3xx_hal_rcc_ex.c **** #endif /* STM32F302xE || STM32F303xE || STM32F398xx || */
 661:Drivers/STM32F3xx_HAL_Driver/Src/stm32f3xx_hal_rcc_ex.c ****        /* STM32F302xC || STM32F303xC || STM32F358xx || */
 662:Drivers/STM32F3xx_HAL_Driver/Src/stm32f3xx_hal_rcc_ex.c ****        /* STM32F301x8 || STM32F302x8 || STM32F318xx || */
 663:Drivers/STM32F3xx_HAL_Driver/Src/stm32f3xx_hal_rcc_ex.c ****   
 664:Drivers/STM32F3xx_HAL_Driver/Src/stm32f3xx_hal_rcc_ex.c **** #if defined(STM32F301x8) || defined(STM32F302x8) || defined(STM32F318xx)\
 665:Drivers/STM32F3xx_HAL_Driver/Src/stm32f3xx_hal_rcc_ex.c ****     || defined(STM32F373xC) || defined(STM32F378xx)
 666:Drivers/STM32F3xx_HAL_Driver/Src/stm32f3xx_hal_rcc_ex.c ****       
 667:Drivers/STM32F3xx_HAL_Driver/Src/stm32f3xx_hal_rcc_ex.c ****   PeriphClkInit->PeriphClockSelection |= RCC_PERIPHCLK_ADC1;
 668:Drivers/STM32F3xx_HAL_Driver/Src/stm32f3xx_hal_rcc_ex.c ****   /* Get the ADC1 clock configuration -----------------------------------------*/
 669:Drivers/STM32F3xx_HAL_Driver/Src/stm32f3xx_hal_rcc_ex.c ****   PeriphClkInit->Adc1ClockSelection = __HAL_RCC_GET_ADC1_SOURCE();
 670:Drivers/STM32F3xx_HAL_Driver/Src/stm32f3xx_hal_rcc_ex.c **** 
 671:Drivers/STM32F3xx_HAL_Driver/Src/stm32f3xx_hal_rcc_ex.c **** #endif /* STM32F301x8 || STM32F302x8 || STM32F318xx || */
 672:Drivers/STM32F3xx_HAL_Driver/Src/stm32f3xx_hal_rcc_ex.c ****        /* STM32F373xC || STM32F378xx                   */
ARM GAS  /var/folders/b1/22c950295gx2kqj80tvj8wqc0000gn/T//ccYsOlQx.s 			page 40


 673:Drivers/STM32F3xx_HAL_Driver/Src/stm32f3xx_hal_rcc_ex.c **** 
 674:Drivers/STM32F3xx_HAL_Driver/Src/stm32f3xx_hal_rcc_ex.c **** #if defined(STM32F302xE) || defined(STM32F303xE) || defined(STM32F398xx)\
 675:Drivers/STM32F3xx_HAL_Driver/Src/stm32f3xx_hal_rcc_ex.c ****     || defined(STM32F302xC) || defined(STM32F303xC) || defined(STM32F358xx)\
 676:Drivers/STM32F3xx_HAL_Driver/Src/stm32f3xx_hal_rcc_ex.c ****     || defined(STM32F303x8) || defined(STM32F334x8) || defined(STM32F328xx)
 677:Drivers/STM32F3xx_HAL_Driver/Src/stm32f3xx_hal_rcc_ex.c **** 
 678:Drivers/STM32F3xx_HAL_Driver/Src/stm32f3xx_hal_rcc_ex.c ****   PeriphClkInit->PeriphClockSelection |= RCC_PERIPHCLK_ADC12;
 679:Drivers/STM32F3xx_HAL_Driver/Src/stm32f3xx_hal_rcc_ex.c ****   /* Get the ADC1 & ADC2 clock configuration -----------------------------------------*/
 680:Drivers/STM32F3xx_HAL_Driver/Src/stm32f3xx_hal_rcc_ex.c ****   PeriphClkInit->Adc12ClockSelection = __HAL_RCC_GET_ADC12_SOURCE();
 681:Drivers/STM32F3xx_HAL_Driver/Src/stm32f3xx_hal_rcc_ex.c **** 
 682:Drivers/STM32F3xx_HAL_Driver/Src/stm32f3xx_hal_rcc_ex.c **** #endif /* STM32F302xE || STM32F303xE || STM32F398xx || */
 683:Drivers/STM32F3xx_HAL_Driver/Src/stm32f3xx_hal_rcc_ex.c ****        /* STM32F302xC || STM32F303xC || STM32F358xx || */
 684:Drivers/STM32F3xx_HAL_Driver/Src/stm32f3xx_hal_rcc_ex.c ****        /* STM32F303x8 || STM32F334x8 || STM32F328xx    */
 685:Drivers/STM32F3xx_HAL_Driver/Src/stm32f3xx_hal_rcc_ex.c **** 
 686:Drivers/STM32F3xx_HAL_Driver/Src/stm32f3xx_hal_rcc_ex.c **** #if defined(STM32F303xE) || defined(STM32F398xx)\
 687:Drivers/STM32F3xx_HAL_Driver/Src/stm32f3xx_hal_rcc_ex.c ****     || defined(STM32F303xC) || defined(STM32F358xx)
 688:Drivers/STM32F3xx_HAL_Driver/Src/stm32f3xx_hal_rcc_ex.c **** 
 689:Drivers/STM32F3xx_HAL_Driver/Src/stm32f3xx_hal_rcc_ex.c ****   PeriphClkInit->PeriphClockSelection |= RCC_PERIPHCLK_ADC34;
 690:Drivers/STM32F3xx_HAL_Driver/Src/stm32f3xx_hal_rcc_ex.c ****    /* Get the ADC3 & ADC4 clock configuration -----------------------------------------*/
 691:Drivers/STM32F3xx_HAL_Driver/Src/stm32f3xx_hal_rcc_ex.c ****   PeriphClkInit->Adc34ClockSelection = __HAL_RCC_GET_ADC34_SOURCE();
 692:Drivers/STM32F3xx_HAL_Driver/Src/stm32f3xx_hal_rcc_ex.c **** 
 693:Drivers/STM32F3xx_HAL_Driver/Src/stm32f3xx_hal_rcc_ex.c **** #endif /* STM32F303xE || STM32F398xx || */
 694:Drivers/STM32F3xx_HAL_Driver/Src/stm32f3xx_hal_rcc_ex.c ****        /* STM32F303xC || STM32F358xx    */
 695:Drivers/STM32F3xx_HAL_Driver/Src/stm32f3xx_hal_rcc_ex.c **** 
 696:Drivers/STM32F3xx_HAL_Driver/Src/stm32f3xx_hal_rcc_ex.c **** #if defined(STM32F302xE) || defined(STM32F303xE) || defined(STM32F398xx)\
 697:Drivers/STM32F3xx_HAL_Driver/Src/stm32f3xx_hal_rcc_ex.c ****     || defined(STM32F302xC) || defined(STM32F303xC) || defined(STM32F358xx)\
 698:Drivers/STM32F3xx_HAL_Driver/Src/stm32f3xx_hal_rcc_ex.c ****     || defined(STM32F303x8) || defined(STM32F334x8) || defined(STM32F328xx)\
 699:Drivers/STM32F3xx_HAL_Driver/Src/stm32f3xx_hal_rcc_ex.c ****     || defined(STM32F301x8) || defined(STM32F302x8) || defined(STM32F318xx)
 700:Drivers/STM32F3xx_HAL_Driver/Src/stm32f3xx_hal_rcc_ex.c **** 
 701:Drivers/STM32F3xx_HAL_Driver/Src/stm32f3xx_hal_rcc_ex.c ****   PeriphClkInit->PeriphClockSelection |= RCC_PERIPHCLK_TIM1;
 702:Drivers/STM32F3xx_HAL_Driver/Src/stm32f3xx_hal_rcc_ex.c ****   /* Get the TIM1 clock configuration -----------------------------------------*/
 703:Drivers/STM32F3xx_HAL_Driver/Src/stm32f3xx_hal_rcc_ex.c ****   PeriphClkInit->Tim1ClockSelection = __HAL_RCC_GET_TIM1_SOURCE();
 704:Drivers/STM32F3xx_HAL_Driver/Src/stm32f3xx_hal_rcc_ex.c **** 
 705:Drivers/STM32F3xx_HAL_Driver/Src/stm32f3xx_hal_rcc_ex.c **** #endif /* STM32F302xE || STM32F303xE || STM32F398xx || */
 706:Drivers/STM32F3xx_HAL_Driver/Src/stm32f3xx_hal_rcc_ex.c ****        /* STM32F302xC || STM32F303xC || STM32F358xx || */
 707:Drivers/STM32F3xx_HAL_Driver/Src/stm32f3xx_hal_rcc_ex.c ****        /* STM32F303x8 || STM32F334x8 || STM32F328xx || */
 708:Drivers/STM32F3xx_HAL_Driver/Src/stm32f3xx_hal_rcc_ex.c ****        /* STM32F301x8 || STM32F302x8 || STM32F318xx    */
 709:Drivers/STM32F3xx_HAL_Driver/Src/stm32f3xx_hal_rcc_ex.c ****   
 710:Drivers/STM32F3xx_HAL_Driver/Src/stm32f3xx_hal_rcc_ex.c **** #if defined(STM32F303xE) || defined(STM32F398xx)\
 711:Drivers/STM32F3xx_HAL_Driver/Src/stm32f3xx_hal_rcc_ex.c ****     || defined(STM32F303xC) || defined(STM32F358xx)
 712:Drivers/STM32F3xx_HAL_Driver/Src/stm32f3xx_hal_rcc_ex.c **** 
 713:Drivers/STM32F3xx_HAL_Driver/Src/stm32f3xx_hal_rcc_ex.c ****   PeriphClkInit->PeriphClockSelection |= RCC_PERIPHCLK_TIM8;
 714:Drivers/STM32F3xx_HAL_Driver/Src/stm32f3xx_hal_rcc_ex.c ****   /* Get the TIM8 clock configuration -----------------------------------------*/
 715:Drivers/STM32F3xx_HAL_Driver/Src/stm32f3xx_hal_rcc_ex.c ****   PeriphClkInit->Tim8ClockSelection = __HAL_RCC_GET_TIM8_SOURCE();
 716:Drivers/STM32F3xx_HAL_Driver/Src/stm32f3xx_hal_rcc_ex.c **** 
 717:Drivers/STM32F3xx_HAL_Driver/Src/stm32f3xx_hal_rcc_ex.c **** #endif /* STM32F303xE || STM32F398xx || */
 718:Drivers/STM32F3xx_HAL_Driver/Src/stm32f3xx_hal_rcc_ex.c ****        /* STM32F303xC || STM32F358xx    */
 719:Drivers/STM32F3xx_HAL_Driver/Src/stm32f3xx_hal_rcc_ex.c **** 
 720:Drivers/STM32F3xx_HAL_Driver/Src/stm32f3xx_hal_rcc_ex.c **** #if defined(STM32F301x8) || defined(STM32F302x8) || defined(STM32F318xx)
 721:Drivers/STM32F3xx_HAL_Driver/Src/stm32f3xx_hal_rcc_ex.c **** 
 722:Drivers/STM32F3xx_HAL_Driver/Src/stm32f3xx_hal_rcc_ex.c ****   PeriphClkInit->PeriphClockSelection |= (RCC_PERIPHCLK_TIM15 | RCC_PERIPHCLK_TIM16 | RCC_PERIPHCLK
 723:Drivers/STM32F3xx_HAL_Driver/Src/stm32f3xx_hal_rcc_ex.c ****   /* Get the TIM15 clock configuration -----------------------------------------*/
 724:Drivers/STM32F3xx_HAL_Driver/Src/stm32f3xx_hal_rcc_ex.c ****   PeriphClkInit->Tim15ClockSelection = __HAL_RCC_GET_TIM15_SOURCE();
 725:Drivers/STM32F3xx_HAL_Driver/Src/stm32f3xx_hal_rcc_ex.c ****   /* Get the TIM16 clock configuration -----------------------------------------*/
 726:Drivers/STM32F3xx_HAL_Driver/Src/stm32f3xx_hal_rcc_ex.c ****   PeriphClkInit->Tim16ClockSelection = __HAL_RCC_GET_TIM16_SOURCE();
 727:Drivers/STM32F3xx_HAL_Driver/Src/stm32f3xx_hal_rcc_ex.c ****   /* Get the TIM17 clock configuration -----------------------------------------*/
 728:Drivers/STM32F3xx_HAL_Driver/Src/stm32f3xx_hal_rcc_ex.c ****   PeriphClkInit->Tim17ClockSelection = __HAL_RCC_GET_TIM17_SOURCE();
 729:Drivers/STM32F3xx_HAL_Driver/Src/stm32f3xx_hal_rcc_ex.c **** 
ARM GAS  /var/folders/b1/22c950295gx2kqj80tvj8wqc0000gn/T//ccYsOlQx.s 			page 41


 730:Drivers/STM32F3xx_HAL_Driver/Src/stm32f3xx_hal_rcc_ex.c **** #endif /* STM32F301x8 || STM32F302x8 || STM32F318xx */
 731:Drivers/STM32F3xx_HAL_Driver/Src/stm32f3xx_hal_rcc_ex.c **** 
 732:Drivers/STM32F3xx_HAL_Driver/Src/stm32f3xx_hal_rcc_ex.c **** #if defined(STM32F334x8)
 733:Drivers/STM32F3xx_HAL_Driver/Src/stm32f3xx_hal_rcc_ex.c **** 
 734:Drivers/STM32F3xx_HAL_Driver/Src/stm32f3xx_hal_rcc_ex.c ****   PeriphClkInit->PeriphClockSelection |= RCC_PERIPHCLK_HRTIM1;
 490              		.loc 1 734 39 view .LVU144
 491 0002 0E49     		ldr	r1, .L49+4
 588:Drivers/STM32F3xx_HAL_Driver/Src/stm32f3xx_hal_rcc_ex.c ****   /* Get the USART1 clock configuration --------------------------------------------*/
 492              		.loc 1 588 38 view .LVU145
 493 0004 1A6A     		ldr	r2, [r3, #32]
 494 0006 02F44072 		and	r2, r2, #768
 588:Drivers/STM32F3xx_HAL_Driver/Src/stm32f3xx_hal_rcc_ex.c ****   /* Get the USART1 clock configuration --------------------------------------------*/
 495              		.loc 1 588 36 view .LVU146
 496 000a 4260     		str	r2, [r0, #4]
 590:Drivers/STM32F3xx_HAL_Driver/Src/stm32f3xx_hal_rcc_ex.c **** #if defined(RCC_CFGR3_USART2SW)
 497              		.loc 1 590 3 is_stmt 1 view .LVU147
 590:Drivers/STM32F3xx_HAL_Driver/Src/stm32f3xx_hal_rcc_ex.c **** #if defined(RCC_CFGR3_USART2SW)
 498              		.loc 1 590 41 is_stmt 0 view .LVU148
 499 000c 1A6B     		ldr	r2, [r3, #48]
 500 000e 02F00302 		and	r2, r2, #3
 590:Drivers/STM32F3xx_HAL_Driver/Src/stm32f3xx_hal_rcc_ex.c **** #if defined(RCC_CFGR3_USART2SW)
 501              		.loc 1 590 39 view .LVU149
 502 0012 8260     		str	r2, [r0, #8]
 600:Drivers/STM32F3xx_HAL_Driver/Src/stm32f3xx_hal_rcc_ex.c **** 
 503              		.loc 1 600 3 is_stmt 1 view .LVU150
 600:Drivers/STM32F3xx_HAL_Driver/Src/stm32f3xx_hal_rcc_ex.c **** 
 504              		.loc 1 600 39 is_stmt 0 view .LVU151
 505 0014 1A6B     		ldr	r2, [r3, #48]
 506 0016 02F01002 		and	r2, r2, #16
 600:Drivers/STM32F3xx_HAL_Driver/Src/stm32f3xx_hal_rcc_ex.c **** 
 507              		.loc 1 600 37 view .LVU152
 508 001a C260     		str	r2, [r0, #12]
 678:Drivers/STM32F3xx_HAL_Driver/Src/stm32f3xx_hal_rcc_ex.c ****   /* Get the ADC1 & ADC2 clock configuration -----------------------------------------*/
 509              		.loc 1 678 3 is_stmt 1 view .LVU153
 680:Drivers/STM32F3xx_HAL_Driver/Src/stm32f3xx_hal_rcc_ex.c **** 
 510              		.loc 1 680 3 view .LVU154
 680:Drivers/STM32F3xx_HAL_Driver/Src/stm32f3xx_hal_rcc_ex.c **** 
 511              		.loc 1 680 40 is_stmt 0 view .LVU155
 512 001c DA6A     		ldr	r2, [r3, #44]
 513 001e 02F4F872 		and	r2, r2, #496
 680:Drivers/STM32F3xx_HAL_Driver/Src/stm32f3xx_hal_rcc_ex.c **** 
 514              		.loc 1 680 38 view .LVU156
 515 0022 0261     		str	r2, [r0, #16]
 701:Drivers/STM32F3xx_HAL_Driver/Src/stm32f3xx_hal_rcc_ex.c ****   /* Get the TIM1 clock configuration -----------------------------------------*/
 516              		.loc 1 701 3 is_stmt 1 view .LVU157
 703:Drivers/STM32F3xx_HAL_Driver/Src/stm32f3xx_hal_rcc_ex.c **** 
 517              		.loc 1 703 3 view .LVU158
 703:Drivers/STM32F3xx_HAL_Driver/Src/stm32f3xx_hal_rcc_ex.c **** 
 518              		.loc 1 703 39 is_stmt 0 view .LVU159
 519 0024 1A6B     		ldr	r2, [r3, #48]
 520              		.loc 1 734 39 view .LVU160
 521 0026 0160     		str	r1, [r0]
 703:Drivers/STM32F3xx_HAL_Driver/Src/stm32f3xx_hal_rcc_ex.c **** 
 522              		.loc 1 703 39 view .LVU161
 523 0028 02F48072 		and	r2, r2, #256
 703:Drivers/STM32F3xx_HAL_Driver/Src/stm32f3xx_hal_rcc_ex.c **** 
 524              		.loc 1 703 37 view .LVU162
ARM GAS  /var/folders/b1/22c950295gx2kqj80tvj8wqc0000gn/T//ccYsOlQx.s 			page 42


 525 002c 4261     		str	r2, [r0, #20]
 526              		.loc 1 734 3 is_stmt 1 view .LVU163
 735:Drivers/STM32F3xx_HAL_Driver/Src/stm32f3xx_hal_rcc_ex.c ****   /* Get the HRTIM1 clock configuration -----------------------------------------*/
 736:Drivers/STM32F3xx_HAL_Driver/Src/stm32f3xx_hal_rcc_ex.c ****   PeriphClkInit->Hrtim1ClockSelection = __HAL_RCC_GET_HRTIM1_SOURCE();
 527              		.loc 1 736 3 view .LVU164
 528              		.loc 1 736 41 is_stmt 0 view .LVU165
 529 002e 1B6B     		ldr	r3, [r3, #48]
 530 0030 03F48053 		and	r3, r3, #4096
 531              		.loc 1 736 39 view .LVU166
 532 0034 8361     		str	r3, [r0, #24]
 737:Drivers/STM32F3xx_HAL_Driver/Src/stm32f3xx_hal_rcc_ex.c **** 
 738:Drivers/STM32F3xx_HAL_Driver/Src/stm32f3xx_hal_rcc_ex.c **** #endif /* STM32F334x8 */
 739:Drivers/STM32F3xx_HAL_Driver/Src/stm32f3xx_hal_rcc_ex.c **** 
 740:Drivers/STM32F3xx_HAL_Driver/Src/stm32f3xx_hal_rcc_ex.c **** #if defined(STM32F373xC) || defined(STM32F378xx)
 741:Drivers/STM32F3xx_HAL_Driver/Src/stm32f3xx_hal_rcc_ex.c **** 
 742:Drivers/STM32F3xx_HAL_Driver/Src/stm32f3xx_hal_rcc_ex.c ****   PeriphClkInit->PeriphClockSelection |= RCC_PERIPHCLK_SDADC;
 743:Drivers/STM32F3xx_HAL_Driver/Src/stm32f3xx_hal_rcc_ex.c ****   /* Get the SDADC clock configuration -----------------------------------------*/
 744:Drivers/STM32F3xx_HAL_Driver/Src/stm32f3xx_hal_rcc_ex.c ****   PeriphClkInit->SdadcClockSelection = __HAL_RCC_GET_SDADC_SOURCE();
 745:Drivers/STM32F3xx_HAL_Driver/Src/stm32f3xx_hal_rcc_ex.c **** 
 746:Drivers/STM32F3xx_HAL_Driver/Src/stm32f3xx_hal_rcc_ex.c ****   PeriphClkInit->PeriphClockSelection |= RCC_PERIPHCLK_CEC;
 747:Drivers/STM32F3xx_HAL_Driver/Src/stm32f3xx_hal_rcc_ex.c ****   /* Get the CEC clock configuration -----------------------------------------*/
 748:Drivers/STM32F3xx_HAL_Driver/Src/stm32f3xx_hal_rcc_ex.c ****   PeriphClkInit->CecClockSelection = __HAL_RCC_GET_CEC_SOURCE();
 749:Drivers/STM32F3xx_HAL_Driver/Src/stm32f3xx_hal_rcc_ex.c **** 
 750:Drivers/STM32F3xx_HAL_Driver/Src/stm32f3xx_hal_rcc_ex.c **** #endif /* STM32F373xC || STM32F378xx */
 751:Drivers/STM32F3xx_HAL_Driver/Src/stm32f3xx_hal_rcc_ex.c **** 
 752:Drivers/STM32F3xx_HAL_Driver/Src/stm32f3xx_hal_rcc_ex.c **** #if defined(STM32F302xE) || defined(STM32F303xE) || defined(STM32F398xx)
 753:Drivers/STM32F3xx_HAL_Driver/Src/stm32f3xx_hal_rcc_ex.c **** 
 754:Drivers/STM32F3xx_HAL_Driver/Src/stm32f3xx_hal_rcc_ex.c ****   PeriphClkInit->PeriphClockSelection |= RCC_PERIPHCLK_TIM2;
 755:Drivers/STM32F3xx_HAL_Driver/Src/stm32f3xx_hal_rcc_ex.c ****   /* Get the TIM2 clock configuration -----------------------------------------*/
 756:Drivers/STM32F3xx_HAL_Driver/Src/stm32f3xx_hal_rcc_ex.c ****   PeriphClkInit->Tim2ClockSelection = __HAL_RCC_GET_TIM2_SOURCE();
 757:Drivers/STM32F3xx_HAL_Driver/Src/stm32f3xx_hal_rcc_ex.c **** 
 758:Drivers/STM32F3xx_HAL_Driver/Src/stm32f3xx_hal_rcc_ex.c ****   PeriphClkInit->PeriphClockSelection |= RCC_PERIPHCLK_TIM34;
 759:Drivers/STM32F3xx_HAL_Driver/Src/stm32f3xx_hal_rcc_ex.c ****   /* Get the TIM3 clock configuration -----------------------------------------*/
 760:Drivers/STM32F3xx_HAL_Driver/Src/stm32f3xx_hal_rcc_ex.c ****   PeriphClkInit->Tim34ClockSelection = __HAL_RCC_GET_TIM34_SOURCE();
 761:Drivers/STM32F3xx_HAL_Driver/Src/stm32f3xx_hal_rcc_ex.c **** 
 762:Drivers/STM32F3xx_HAL_Driver/Src/stm32f3xx_hal_rcc_ex.c ****   PeriphClkInit->PeriphClockSelection |= RCC_PERIPHCLK_TIM15;
 763:Drivers/STM32F3xx_HAL_Driver/Src/stm32f3xx_hal_rcc_ex.c ****   /* Get the TIM15 clock configuration -----------------------------------------*/
 764:Drivers/STM32F3xx_HAL_Driver/Src/stm32f3xx_hal_rcc_ex.c ****   PeriphClkInit->Tim15ClockSelection = __HAL_RCC_GET_TIM15_SOURCE();
 765:Drivers/STM32F3xx_HAL_Driver/Src/stm32f3xx_hal_rcc_ex.c **** 
 766:Drivers/STM32F3xx_HAL_Driver/Src/stm32f3xx_hal_rcc_ex.c ****   PeriphClkInit->PeriphClockSelection |= RCC_PERIPHCLK_TIM16;
 767:Drivers/STM32F3xx_HAL_Driver/Src/stm32f3xx_hal_rcc_ex.c ****   /* Get the TIM16 clock configuration -----------------------------------------*/
 768:Drivers/STM32F3xx_HAL_Driver/Src/stm32f3xx_hal_rcc_ex.c ****   PeriphClkInit->Tim16ClockSelection = __HAL_RCC_GET_TIM16_SOURCE();
 769:Drivers/STM32F3xx_HAL_Driver/Src/stm32f3xx_hal_rcc_ex.c **** 
 770:Drivers/STM32F3xx_HAL_Driver/Src/stm32f3xx_hal_rcc_ex.c ****   PeriphClkInit->PeriphClockSelection |= RCC_PERIPHCLK_TIM17;
 771:Drivers/STM32F3xx_HAL_Driver/Src/stm32f3xx_hal_rcc_ex.c ****   /* Get the TIM17 clock configuration -----------------------------------------*/
 772:Drivers/STM32F3xx_HAL_Driver/Src/stm32f3xx_hal_rcc_ex.c ****   PeriphClkInit->Tim17ClockSelection = __HAL_RCC_GET_TIM17_SOURCE();
 773:Drivers/STM32F3xx_HAL_Driver/Src/stm32f3xx_hal_rcc_ex.c **** 
 774:Drivers/STM32F3xx_HAL_Driver/Src/stm32f3xx_hal_rcc_ex.c **** #endif /* STM32F302xE || STM32F303xE || STM32F398xx */
 775:Drivers/STM32F3xx_HAL_Driver/Src/stm32f3xx_hal_rcc_ex.c ****   
 776:Drivers/STM32F3xx_HAL_Driver/Src/stm32f3xx_hal_rcc_ex.c **** #if defined (STM32F303xE) || defined(STM32F398xx)
 777:Drivers/STM32F3xx_HAL_Driver/Src/stm32f3xx_hal_rcc_ex.c ****   PeriphClkInit->PeriphClockSelection |= RCC_PERIPHCLK_TIM20;
 778:Drivers/STM32F3xx_HAL_Driver/Src/stm32f3xx_hal_rcc_ex.c ****   /* Get the TIM20 clock configuration -----------------------------------------*/
 779:Drivers/STM32F3xx_HAL_Driver/Src/stm32f3xx_hal_rcc_ex.c ****   PeriphClkInit->Tim20ClockSelection = __HAL_RCC_GET_TIM20_SOURCE();
 780:Drivers/STM32F3xx_HAL_Driver/Src/stm32f3xx_hal_rcc_ex.c **** #endif /* STM32F303xE || STM32F398xx */
 781:Drivers/STM32F3xx_HAL_Driver/Src/stm32f3xx_hal_rcc_ex.c **** }
 533              		.loc 1 781 1 view .LVU167
 534 0036 7047     		bx	lr
ARM GAS  /var/folders/b1/22c950295gx2kqj80tvj8wqc0000gn/T//ccYsOlQx.s 			page 43


 535              	.L50:
 536              		.align	2
 537              	.L49:
 538 0038 00100240 		.word	1073876992
 539 003c A1500100 		.word	86177
 540              		.cfi_endproc
 541              	.LFE124:
 543              		.section	.text.HAL_RCCEx_GetPeriphCLKFreq,"ax",%progbits
 544              		.align	1
 545              		.p2align 2,,3
 546              		.global	HAL_RCCEx_GetPeriphCLKFreq
 547              		.syntax unified
 548              		.thumb
 549              		.thumb_func
 551              	HAL_RCCEx_GetPeriphCLKFreq:
 552              	.LVL32:
 553              	.LFB125:
 782:Drivers/STM32F3xx_HAL_Driver/Src/stm32f3xx_hal_rcc_ex.c **** 
 783:Drivers/STM32F3xx_HAL_Driver/Src/stm32f3xx_hal_rcc_ex.c **** /**
 784:Drivers/STM32F3xx_HAL_Driver/Src/stm32f3xx_hal_rcc_ex.c ****   * @brief  Returns the peripheral clock frequency
 785:Drivers/STM32F3xx_HAL_Driver/Src/stm32f3xx_hal_rcc_ex.c ****   * @note   Returns 0 if peripheral clock is unknown or 0xDEADDEAD if not applicable.
 786:Drivers/STM32F3xx_HAL_Driver/Src/stm32f3xx_hal_rcc_ex.c ****   * @param  PeriphClk Peripheral clock identifier
 787:Drivers/STM32F3xx_HAL_Driver/Src/stm32f3xx_hal_rcc_ex.c ****   *         This parameter can be one of the following values:
 788:Drivers/STM32F3xx_HAL_Driver/Src/stm32f3xx_hal_rcc_ex.c ****   *            @arg @ref RCC_PERIPHCLK_RTC     RTC peripheral clock
 789:Drivers/STM32F3xx_HAL_Driver/Src/stm32f3xx_hal_rcc_ex.c ****   *            @arg @ref RCC_PERIPHCLK_USART1  USART1 peripheral clock
 790:Drivers/STM32F3xx_HAL_Driver/Src/stm32f3xx_hal_rcc_ex.c ****   *            @arg @ref RCC_PERIPHCLK_I2C1    I2C1 peripheral clock
 791:Drivers/STM32F3xx_HAL_Driver/Src/stm32f3xx_hal_rcc_ex.c ****   @if STM32F301x8
 792:Drivers/STM32F3xx_HAL_Driver/Src/stm32f3xx_hal_rcc_ex.c ****   *            @arg @ref RCC_PERIPHCLK_I2C2    I2C2 peripheral clock
 793:Drivers/STM32F3xx_HAL_Driver/Src/stm32f3xx_hal_rcc_ex.c ****   *            @arg @ref RCC_PERIPHCLK_I2C3    I2C3 peripheral clock
 794:Drivers/STM32F3xx_HAL_Driver/Src/stm32f3xx_hal_rcc_ex.c ****   *            @arg @ref RCC_PERIPHCLK_I2S     I2S peripheral clock
 795:Drivers/STM32F3xx_HAL_Driver/Src/stm32f3xx_hal_rcc_ex.c ****   *            @arg @ref RCC_PERIPHCLK_ADC1    ADC1 peripheral clock
 796:Drivers/STM32F3xx_HAL_Driver/Src/stm32f3xx_hal_rcc_ex.c ****   *            @arg @ref RCC_PERIPHCLK_TIM1    TIM1 peripheral clock
 797:Drivers/STM32F3xx_HAL_Driver/Src/stm32f3xx_hal_rcc_ex.c ****   *            @arg @ref RCC_PERIPHCLK_TIM15   TIM15 peripheral clock
 798:Drivers/STM32F3xx_HAL_Driver/Src/stm32f3xx_hal_rcc_ex.c ****   *            @arg @ref RCC_PERIPHCLK_TIM16   TIM16 peripheral clock
 799:Drivers/STM32F3xx_HAL_Driver/Src/stm32f3xx_hal_rcc_ex.c ****   *            @arg @ref RCC_PERIPHCLK_TIM17   TIM17 peripheral clock
 800:Drivers/STM32F3xx_HAL_Driver/Src/stm32f3xx_hal_rcc_ex.c ****   @endif
 801:Drivers/STM32F3xx_HAL_Driver/Src/stm32f3xx_hal_rcc_ex.c ****   @if STM32F302x8
 802:Drivers/STM32F3xx_HAL_Driver/Src/stm32f3xx_hal_rcc_ex.c ****   *            @arg @ref RCC_PERIPHCLK_I2C2    I2C2 peripheral clock
 803:Drivers/STM32F3xx_HAL_Driver/Src/stm32f3xx_hal_rcc_ex.c ****   *            @arg @ref RCC_PERIPHCLK_I2C3    I2C3 peripheral clock
 804:Drivers/STM32F3xx_HAL_Driver/Src/stm32f3xx_hal_rcc_ex.c ****   *            @arg @ref RCC_PERIPHCLK_I2S     I2S peripheral clock
 805:Drivers/STM32F3xx_HAL_Driver/Src/stm32f3xx_hal_rcc_ex.c ****   *            @arg @ref RCC_PERIPHCLK_USB     USB peripheral clock
 806:Drivers/STM32F3xx_HAL_Driver/Src/stm32f3xx_hal_rcc_ex.c ****   *            @arg @ref RCC_PERIPHCLK_ADC1    ADC1 peripheral clock
 807:Drivers/STM32F3xx_HAL_Driver/Src/stm32f3xx_hal_rcc_ex.c ****   *            @arg @ref RCC_PERIPHCLK_TIM1    TIM1 peripheral clock
 808:Drivers/STM32F3xx_HAL_Driver/Src/stm32f3xx_hal_rcc_ex.c ****   *            @arg @ref RCC_PERIPHCLK_TIM15   TIM15 peripheral clock
 809:Drivers/STM32F3xx_HAL_Driver/Src/stm32f3xx_hal_rcc_ex.c ****   *            @arg @ref RCC_PERIPHCLK_TIM16   TIM16 peripheral clock
 810:Drivers/STM32F3xx_HAL_Driver/Src/stm32f3xx_hal_rcc_ex.c ****   *            @arg @ref RCC_PERIPHCLK_TIM17   TIM17 peripheral clock
 811:Drivers/STM32F3xx_HAL_Driver/Src/stm32f3xx_hal_rcc_ex.c ****   @endif
 812:Drivers/STM32F3xx_HAL_Driver/Src/stm32f3xx_hal_rcc_ex.c ****   @if STM32F302xC
 813:Drivers/STM32F3xx_HAL_Driver/Src/stm32f3xx_hal_rcc_ex.c ****   *            @arg @ref RCC_PERIPHCLK_USART2  USART2 peripheral clock
 814:Drivers/STM32F3xx_HAL_Driver/Src/stm32f3xx_hal_rcc_ex.c ****   *            @arg @ref RCC_PERIPHCLK_USART3  USART3 peripheral clock
 815:Drivers/STM32F3xx_HAL_Driver/Src/stm32f3xx_hal_rcc_ex.c ****   *            @arg @ref RCC_PERIPHCLK_UART4   UART4 peripheral clock
 816:Drivers/STM32F3xx_HAL_Driver/Src/stm32f3xx_hal_rcc_ex.c ****   *            @arg @ref RCC_PERIPHCLK_UART5   UART5 peripheral clock
 817:Drivers/STM32F3xx_HAL_Driver/Src/stm32f3xx_hal_rcc_ex.c ****   *            @arg @ref RCC_PERIPHCLK_I2C2    I2C2 peripheral clock
 818:Drivers/STM32F3xx_HAL_Driver/Src/stm32f3xx_hal_rcc_ex.c ****   *            @arg @ref RCC_PERIPHCLK_I2S     I2S peripheral clock
 819:Drivers/STM32F3xx_HAL_Driver/Src/stm32f3xx_hal_rcc_ex.c ****   *            @arg @ref RCC_PERIPHCLK_USB     USB peripheral clock
 820:Drivers/STM32F3xx_HAL_Driver/Src/stm32f3xx_hal_rcc_ex.c ****   *            @arg @ref RCC_PERIPHCLK_ADC12   ADC12 peripheral clock
 821:Drivers/STM32F3xx_HAL_Driver/Src/stm32f3xx_hal_rcc_ex.c ****   *            @arg @ref RCC_PERIPHCLK_TIM1    TIM1 peripheral clock
ARM GAS  /var/folders/b1/22c950295gx2kqj80tvj8wqc0000gn/T//ccYsOlQx.s 			page 44


 822:Drivers/STM32F3xx_HAL_Driver/Src/stm32f3xx_hal_rcc_ex.c ****   @endif
 823:Drivers/STM32F3xx_HAL_Driver/Src/stm32f3xx_hal_rcc_ex.c ****   @if STM32F302xE
 824:Drivers/STM32F3xx_HAL_Driver/Src/stm32f3xx_hal_rcc_ex.c ****   *            @arg @ref RCC_PERIPHCLK_USART2  USART2 peripheral clock
 825:Drivers/STM32F3xx_HAL_Driver/Src/stm32f3xx_hal_rcc_ex.c ****   *            @arg @ref RCC_PERIPHCLK_USART3  USART3 peripheral clock
 826:Drivers/STM32F3xx_HAL_Driver/Src/stm32f3xx_hal_rcc_ex.c ****   *            @arg @ref RCC_PERIPHCLK_UART4   UART4 peripheral clock
 827:Drivers/STM32F3xx_HAL_Driver/Src/stm32f3xx_hal_rcc_ex.c ****   *            @arg @ref RCC_PERIPHCLK_UART5   UART5 peripheral clock
 828:Drivers/STM32F3xx_HAL_Driver/Src/stm32f3xx_hal_rcc_ex.c ****   *            @arg @ref RCC_PERIPHCLK_I2C2    I2C2 peripheral clock
 829:Drivers/STM32F3xx_HAL_Driver/Src/stm32f3xx_hal_rcc_ex.c ****   *            @arg @ref RCC_PERIPHCLK_I2C3    I2C3 peripheral clock
 830:Drivers/STM32F3xx_HAL_Driver/Src/stm32f3xx_hal_rcc_ex.c ****   *            @arg @ref RCC_PERIPHCLK_I2S     I2S peripheral clock
 831:Drivers/STM32F3xx_HAL_Driver/Src/stm32f3xx_hal_rcc_ex.c ****   *            @arg @ref RCC_PERIPHCLK_USB     USB peripheral clock
 832:Drivers/STM32F3xx_HAL_Driver/Src/stm32f3xx_hal_rcc_ex.c ****   *            @arg @ref RCC_PERIPHCLK_ADC12   ADC12 peripheral clock
 833:Drivers/STM32F3xx_HAL_Driver/Src/stm32f3xx_hal_rcc_ex.c ****   *            @arg @ref RCC_PERIPHCLK_TIM1    TIM1 peripheral clock
 834:Drivers/STM32F3xx_HAL_Driver/Src/stm32f3xx_hal_rcc_ex.c ****   *            @arg @ref RCC_PERIPHCLK_TIM2    TIM2 peripheral clock
 835:Drivers/STM32F3xx_HAL_Driver/Src/stm32f3xx_hal_rcc_ex.c ****   *            @arg @ref RCC_PERIPHCLK_TIM15   TIM15 peripheral clock
 836:Drivers/STM32F3xx_HAL_Driver/Src/stm32f3xx_hal_rcc_ex.c ****   *            @arg @ref RCC_PERIPHCLK_TIM16   TIM16 peripheral clock
 837:Drivers/STM32F3xx_HAL_Driver/Src/stm32f3xx_hal_rcc_ex.c ****   *            @arg @ref RCC_PERIPHCLK_TIM17   TIM17 peripheral clock
 838:Drivers/STM32F3xx_HAL_Driver/Src/stm32f3xx_hal_rcc_ex.c ****   *            @arg @ref RCC_PERIPHCLK_TIM34   TIM34 peripheral clock
 839:Drivers/STM32F3xx_HAL_Driver/Src/stm32f3xx_hal_rcc_ex.c ****   @endif
 840:Drivers/STM32F3xx_HAL_Driver/Src/stm32f3xx_hal_rcc_ex.c ****   @if STM32F303x8
 841:Drivers/STM32F3xx_HAL_Driver/Src/stm32f3xx_hal_rcc_ex.c ****   *            @arg @ref RCC_PERIPHCLK_ADC12   ADC12 peripheral clock
 842:Drivers/STM32F3xx_HAL_Driver/Src/stm32f3xx_hal_rcc_ex.c ****   *            @arg @ref RCC_PERIPHCLK_TIM1    TIM1 peripheral clock
 843:Drivers/STM32F3xx_HAL_Driver/Src/stm32f3xx_hal_rcc_ex.c ****   @endif
 844:Drivers/STM32F3xx_HAL_Driver/Src/stm32f3xx_hal_rcc_ex.c ****   @if STM32F303xC
 845:Drivers/STM32F3xx_HAL_Driver/Src/stm32f3xx_hal_rcc_ex.c ****   *            @arg @ref RCC_PERIPHCLK_USART2  USART2 peripheral clock
 846:Drivers/STM32F3xx_HAL_Driver/Src/stm32f3xx_hal_rcc_ex.c ****   *            @arg @ref RCC_PERIPHCLK_USART3  USART3 peripheral clock
 847:Drivers/STM32F3xx_HAL_Driver/Src/stm32f3xx_hal_rcc_ex.c ****   *            @arg @ref RCC_PERIPHCLK_UART4   UART4 peripheral clock
 848:Drivers/STM32F3xx_HAL_Driver/Src/stm32f3xx_hal_rcc_ex.c ****   *            @arg @ref RCC_PERIPHCLK_UART5   UART5 peripheral clock
 849:Drivers/STM32F3xx_HAL_Driver/Src/stm32f3xx_hal_rcc_ex.c ****   *            @arg @ref RCC_PERIPHCLK_I2C2    I2C2 peripheral clock
 850:Drivers/STM32F3xx_HAL_Driver/Src/stm32f3xx_hal_rcc_ex.c ****   *            @arg @ref RCC_PERIPHCLK_I2S     I2S peripheral clock
 851:Drivers/STM32F3xx_HAL_Driver/Src/stm32f3xx_hal_rcc_ex.c ****   *            @arg @ref RCC_PERIPHCLK_USB     USB peripheral clock
 852:Drivers/STM32F3xx_HAL_Driver/Src/stm32f3xx_hal_rcc_ex.c ****   *            @arg @ref RCC_PERIPHCLK_ADC12   ADC12 peripheral clock
 853:Drivers/STM32F3xx_HAL_Driver/Src/stm32f3xx_hal_rcc_ex.c ****   *            @arg @ref RCC_PERIPHCLK_ADC34   ADC34 peripheral clock
 854:Drivers/STM32F3xx_HAL_Driver/Src/stm32f3xx_hal_rcc_ex.c ****   *            @arg @ref RCC_PERIPHCLK_TIM1    TIM1 peripheral clock
 855:Drivers/STM32F3xx_HAL_Driver/Src/stm32f3xx_hal_rcc_ex.c ****   *            @arg @ref RCC_PERIPHCLK_TIM8    TIM8 peripheral clock
 856:Drivers/STM32F3xx_HAL_Driver/Src/stm32f3xx_hal_rcc_ex.c ****   @endif
 857:Drivers/STM32F3xx_HAL_Driver/Src/stm32f3xx_hal_rcc_ex.c ****   @if STM32F303xE
 858:Drivers/STM32F3xx_HAL_Driver/Src/stm32f3xx_hal_rcc_ex.c ****   *            @arg @ref RCC_PERIPHCLK_USART2  USART2 peripheral clock
 859:Drivers/STM32F3xx_HAL_Driver/Src/stm32f3xx_hal_rcc_ex.c ****   *            @arg @ref RCC_PERIPHCLK_USART3  USART3 peripheral clock
 860:Drivers/STM32F3xx_HAL_Driver/Src/stm32f3xx_hal_rcc_ex.c ****   *            @arg @ref RCC_PERIPHCLK_UART4   UART4 peripheral clock
 861:Drivers/STM32F3xx_HAL_Driver/Src/stm32f3xx_hal_rcc_ex.c ****   *            @arg @ref RCC_PERIPHCLK_UART5   UART5 peripheral clock
 862:Drivers/STM32F3xx_HAL_Driver/Src/stm32f3xx_hal_rcc_ex.c ****   *            @arg @ref RCC_PERIPHCLK_I2C2    I2C2 peripheral clock
 863:Drivers/STM32F3xx_HAL_Driver/Src/stm32f3xx_hal_rcc_ex.c ****   *            @arg @ref RCC_PERIPHCLK_I2C3    I2C3 peripheral clock
 864:Drivers/STM32F3xx_HAL_Driver/Src/stm32f3xx_hal_rcc_ex.c ****   *            @arg @ref RCC_PERIPHCLK_I2S     I2S peripheral clock
 865:Drivers/STM32F3xx_HAL_Driver/Src/stm32f3xx_hal_rcc_ex.c ****   *            @arg @ref RCC_PERIPHCLK_USB     USB peripheral clock
 866:Drivers/STM32F3xx_HAL_Driver/Src/stm32f3xx_hal_rcc_ex.c ****   *            @arg @ref RCC_PERIPHCLK_ADC12   ADC12 peripheral clock
 867:Drivers/STM32F3xx_HAL_Driver/Src/stm32f3xx_hal_rcc_ex.c ****   *            @arg @ref RCC_PERIPHCLK_ADC34   ADC34 peripheral clock
 868:Drivers/STM32F3xx_HAL_Driver/Src/stm32f3xx_hal_rcc_ex.c ****   *            @arg @ref RCC_PERIPHCLK_TIM1    TIM1 peripheral clock
 869:Drivers/STM32F3xx_HAL_Driver/Src/stm32f3xx_hal_rcc_ex.c ****   *            @arg @ref RCC_PERIPHCLK_TIM2    TIM2 peripheral clock
 870:Drivers/STM32F3xx_HAL_Driver/Src/stm32f3xx_hal_rcc_ex.c ****   *            @arg @ref RCC_PERIPHCLK_TIM8    TIM8 peripheral clock
 871:Drivers/STM32F3xx_HAL_Driver/Src/stm32f3xx_hal_rcc_ex.c ****   *            @arg @ref RCC_PERIPHCLK_TIM15   TIM15 peripheral clock
 872:Drivers/STM32F3xx_HAL_Driver/Src/stm32f3xx_hal_rcc_ex.c ****   *            @arg @ref RCC_PERIPHCLK_TIM16   TIM16 peripheral clock
 873:Drivers/STM32F3xx_HAL_Driver/Src/stm32f3xx_hal_rcc_ex.c ****   *            @arg @ref RCC_PERIPHCLK_TIM17   TIM17 peripheral clock
 874:Drivers/STM32F3xx_HAL_Driver/Src/stm32f3xx_hal_rcc_ex.c ****   *            @arg @ref RCC_PERIPHCLK_TIM20   TIM20 peripheral clock
 875:Drivers/STM32F3xx_HAL_Driver/Src/stm32f3xx_hal_rcc_ex.c ****   *            @arg @ref RCC_PERIPHCLK_TIM34   TIM34 peripheral clock
 876:Drivers/STM32F3xx_HAL_Driver/Src/stm32f3xx_hal_rcc_ex.c ****   @endif
 877:Drivers/STM32F3xx_HAL_Driver/Src/stm32f3xx_hal_rcc_ex.c ****   @if STM32F318xx
 878:Drivers/STM32F3xx_HAL_Driver/Src/stm32f3xx_hal_rcc_ex.c ****   *            @arg @ref RCC_PERIPHCLK_I2C2    I2C2 peripheral clock
ARM GAS  /var/folders/b1/22c950295gx2kqj80tvj8wqc0000gn/T//ccYsOlQx.s 			page 45


 879:Drivers/STM32F3xx_HAL_Driver/Src/stm32f3xx_hal_rcc_ex.c ****   *            @arg @ref RCC_PERIPHCLK_I2C3    I2C3 peripheral clock
 880:Drivers/STM32F3xx_HAL_Driver/Src/stm32f3xx_hal_rcc_ex.c ****   *            @arg @ref RCC_PERIPHCLK_I2S     I2S peripheral clock
 881:Drivers/STM32F3xx_HAL_Driver/Src/stm32f3xx_hal_rcc_ex.c ****   *            @arg @ref RCC_PERIPHCLK_ADC1    ADC1 peripheral clock
 882:Drivers/STM32F3xx_HAL_Driver/Src/stm32f3xx_hal_rcc_ex.c ****   *            @arg @ref RCC_PERIPHCLK_TIM1    TIM1 peripheral clock
 883:Drivers/STM32F3xx_HAL_Driver/Src/stm32f3xx_hal_rcc_ex.c ****   *            @arg @ref RCC_PERIPHCLK_TIM15   TIM15 peripheral clock
 884:Drivers/STM32F3xx_HAL_Driver/Src/stm32f3xx_hal_rcc_ex.c ****   *            @arg @ref RCC_PERIPHCLK_TIM16   TIM16 peripheral clock
 885:Drivers/STM32F3xx_HAL_Driver/Src/stm32f3xx_hal_rcc_ex.c ****   *            @arg @ref RCC_PERIPHCLK_TIM17   TIM17 peripheral clock
 886:Drivers/STM32F3xx_HAL_Driver/Src/stm32f3xx_hal_rcc_ex.c ****   @endif
 887:Drivers/STM32F3xx_HAL_Driver/Src/stm32f3xx_hal_rcc_ex.c ****   @if STM32F328xx
 888:Drivers/STM32F3xx_HAL_Driver/Src/stm32f3xx_hal_rcc_ex.c ****   *            @arg @ref RCC_PERIPHCLK_I2C2    I2C2 peripheral clock
 889:Drivers/STM32F3xx_HAL_Driver/Src/stm32f3xx_hal_rcc_ex.c ****   *            @arg @ref RCC_PERIPHCLK_ADC12   ADC12 peripheral clock
 890:Drivers/STM32F3xx_HAL_Driver/Src/stm32f3xx_hal_rcc_ex.c ****   *            @arg @ref RCC_PERIPHCLK_TIM1    TIM1 peripheral clock
 891:Drivers/STM32F3xx_HAL_Driver/Src/stm32f3xx_hal_rcc_ex.c ****   @endif
 892:Drivers/STM32F3xx_HAL_Driver/Src/stm32f3xx_hal_rcc_ex.c ****   @if STM32F334x8
 893:Drivers/STM32F3xx_HAL_Driver/Src/stm32f3xx_hal_rcc_ex.c ****   *            @arg @ref RCC_PERIPHCLK_ADC12   ADC12 peripheral clock
 894:Drivers/STM32F3xx_HAL_Driver/Src/stm32f3xx_hal_rcc_ex.c ****   *            @arg @ref RCC_PERIPHCLK_TIM1    TIM1 peripheral clock
 895:Drivers/STM32F3xx_HAL_Driver/Src/stm32f3xx_hal_rcc_ex.c ****   *            @arg @ref RCC_PERIPHCLK_HRTIM1  HRTIM1 peripheral clock
 896:Drivers/STM32F3xx_HAL_Driver/Src/stm32f3xx_hal_rcc_ex.c ****   @endif
 897:Drivers/STM32F3xx_HAL_Driver/Src/stm32f3xx_hal_rcc_ex.c ****   @if STM32F358xx
 898:Drivers/STM32F3xx_HAL_Driver/Src/stm32f3xx_hal_rcc_ex.c ****   *            @arg @ref RCC_PERIPHCLK_USART2  USART2 peripheral clock
 899:Drivers/STM32F3xx_HAL_Driver/Src/stm32f3xx_hal_rcc_ex.c ****   *            @arg @ref RCC_PERIPHCLK_USART3  USART3 peripheral clock
 900:Drivers/STM32F3xx_HAL_Driver/Src/stm32f3xx_hal_rcc_ex.c ****   *            @arg @ref RCC_PERIPHCLK_UART4   UART4 peripheral clock
 901:Drivers/STM32F3xx_HAL_Driver/Src/stm32f3xx_hal_rcc_ex.c ****   *            @arg @ref RCC_PERIPHCLK_UART5   UART5 peripheral clock
 902:Drivers/STM32F3xx_HAL_Driver/Src/stm32f3xx_hal_rcc_ex.c ****   *            @arg @ref RCC_PERIPHCLK_I2S     I2S peripheral clock
 903:Drivers/STM32F3xx_HAL_Driver/Src/stm32f3xx_hal_rcc_ex.c ****   *            @arg @ref RCC_PERIPHCLK_ADC12   ADC12 peripheral clock
 904:Drivers/STM32F3xx_HAL_Driver/Src/stm32f3xx_hal_rcc_ex.c ****   *            @arg @ref RCC_PERIPHCLK_ADC34   ADC34 peripheral clock
 905:Drivers/STM32F3xx_HAL_Driver/Src/stm32f3xx_hal_rcc_ex.c ****   *            @arg @ref RCC_PERIPHCLK_TIM1    TIM1 peripheral clock
 906:Drivers/STM32F3xx_HAL_Driver/Src/stm32f3xx_hal_rcc_ex.c ****   *            @arg @ref RCC_PERIPHCLK_TIM8    TIM8 peripheral clock
 907:Drivers/STM32F3xx_HAL_Driver/Src/stm32f3xx_hal_rcc_ex.c ****   @endif
 908:Drivers/STM32F3xx_HAL_Driver/Src/stm32f3xx_hal_rcc_ex.c ****   @if STM32F373xC
 909:Drivers/STM32F3xx_HAL_Driver/Src/stm32f3xx_hal_rcc_ex.c ****   *            @arg @ref RCC_PERIPHCLK_USART2  USART2 peripheral clock
 910:Drivers/STM32F3xx_HAL_Driver/Src/stm32f3xx_hal_rcc_ex.c ****   *            @arg @ref RCC_PERIPHCLK_USART3  USART3 peripheral clock
 911:Drivers/STM32F3xx_HAL_Driver/Src/stm32f3xx_hal_rcc_ex.c ****   *            @arg @ref RCC_PERIPHCLK_I2C2    I2C2 peripheral clock
 912:Drivers/STM32F3xx_HAL_Driver/Src/stm32f3xx_hal_rcc_ex.c ****   *            @arg @ref RCC_PERIPHCLK_USB     USB peripheral clock
 913:Drivers/STM32F3xx_HAL_Driver/Src/stm32f3xx_hal_rcc_ex.c ****   *            @arg @ref RCC_PERIPHCLK_ADC1    ADC1 peripheral clock
 914:Drivers/STM32F3xx_HAL_Driver/Src/stm32f3xx_hal_rcc_ex.c ****   *            @arg @ref RCC_PERIPHCLK_SDADC   SDADC peripheral clock
 915:Drivers/STM32F3xx_HAL_Driver/Src/stm32f3xx_hal_rcc_ex.c ****   *            @arg @ref RCC_PERIPHCLK_CEC     CEC peripheral clock
 916:Drivers/STM32F3xx_HAL_Driver/Src/stm32f3xx_hal_rcc_ex.c ****   @endif
 917:Drivers/STM32F3xx_HAL_Driver/Src/stm32f3xx_hal_rcc_ex.c ****   @if STM32F378xx
 918:Drivers/STM32F3xx_HAL_Driver/Src/stm32f3xx_hal_rcc_ex.c ****   *            @arg @ref RCC_PERIPHCLK_USART2  USART2 peripheral clock
 919:Drivers/STM32F3xx_HAL_Driver/Src/stm32f3xx_hal_rcc_ex.c ****   *            @arg @ref RCC_PERIPHCLK_USART3  USART3 peripheral clock
 920:Drivers/STM32F3xx_HAL_Driver/Src/stm32f3xx_hal_rcc_ex.c ****   *            @arg @ref RCC_PERIPHCLK_I2C2    I2C2 peripheral clock
 921:Drivers/STM32F3xx_HAL_Driver/Src/stm32f3xx_hal_rcc_ex.c ****   *            @arg @ref RCC_PERIPHCLK_ADC1    ADC1 peripheral clock
 922:Drivers/STM32F3xx_HAL_Driver/Src/stm32f3xx_hal_rcc_ex.c ****   *            @arg @ref RCC_PERIPHCLK_SDADC   SDADC peripheral clock
 923:Drivers/STM32F3xx_HAL_Driver/Src/stm32f3xx_hal_rcc_ex.c ****   *            @arg @ref RCC_PERIPHCLK_CEC     CEC peripheral clock
 924:Drivers/STM32F3xx_HAL_Driver/Src/stm32f3xx_hal_rcc_ex.c ****   @endif
 925:Drivers/STM32F3xx_HAL_Driver/Src/stm32f3xx_hal_rcc_ex.c ****   @if STM32F398xx
 926:Drivers/STM32F3xx_HAL_Driver/Src/stm32f3xx_hal_rcc_ex.c ****   *            @arg @ref RCC_PERIPHCLK_USART2  USART2 peripheral clock
 927:Drivers/STM32F3xx_HAL_Driver/Src/stm32f3xx_hal_rcc_ex.c ****   *            @arg @ref RCC_PERIPHCLK_USART3  USART3 peripheral clock
 928:Drivers/STM32F3xx_HAL_Driver/Src/stm32f3xx_hal_rcc_ex.c ****   *            @arg @ref RCC_PERIPHCLK_UART4   UART4 peripheral clock
 929:Drivers/STM32F3xx_HAL_Driver/Src/stm32f3xx_hal_rcc_ex.c ****   *            @arg @ref RCC_PERIPHCLK_UART5   UART5 peripheral clock
 930:Drivers/STM32F3xx_HAL_Driver/Src/stm32f3xx_hal_rcc_ex.c ****   *            @arg @ref RCC_PERIPHCLK_I2C2    I2C2 peripheral clock
 931:Drivers/STM32F3xx_HAL_Driver/Src/stm32f3xx_hal_rcc_ex.c ****   *            @arg @ref RCC_PERIPHCLK_I2C3    I2C3 peripheral clock
 932:Drivers/STM32F3xx_HAL_Driver/Src/stm32f3xx_hal_rcc_ex.c ****   *            @arg @ref RCC_PERIPHCLK_I2S     I2S peripheral clock
 933:Drivers/STM32F3xx_HAL_Driver/Src/stm32f3xx_hal_rcc_ex.c ****   *            @arg @ref RCC_PERIPHCLK_ADC12   ADC12 peripheral clock
 934:Drivers/STM32F3xx_HAL_Driver/Src/stm32f3xx_hal_rcc_ex.c ****   *            @arg @ref RCC_PERIPHCLK_ADC34   ADC34 peripheral clock
 935:Drivers/STM32F3xx_HAL_Driver/Src/stm32f3xx_hal_rcc_ex.c ****   *            @arg @ref RCC_PERIPHCLK_TIM1    TIM1 peripheral clock
ARM GAS  /var/folders/b1/22c950295gx2kqj80tvj8wqc0000gn/T//ccYsOlQx.s 			page 46


 936:Drivers/STM32F3xx_HAL_Driver/Src/stm32f3xx_hal_rcc_ex.c ****   *            @arg @ref RCC_PERIPHCLK_TIM2    TIM2 peripheral clock
 937:Drivers/STM32F3xx_HAL_Driver/Src/stm32f3xx_hal_rcc_ex.c ****   *            @arg @ref RCC_PERIPHCLK_TIM8    TIM8 peripheral clock
 938:Drivers/STM32F3xx_HAL_Driver/Src/stm32f3xx_hal_rcc_ex.c ****   *            @arg @ref RCC_PERIPHCLK_TIM15   TIM15 peripheral clock
 939:Drivers/STM32F3xx_HAL_Driver/Src/stm32f3xx_hal_rcc_ex.c ****   *            @arg @ref RCC_PERIPHCLK_TIM16   TIM16 peripheral clock
 940:Drivers/STM32F3xx_HAL_Driver/Src/stm32f3xx_hal_rcc_ex.c ****   *            @arg @ref RCC_PERIPHCLK_TIM17   TIM17 peripheral clock
 941:Drivers/STM32F3xx_HAL_Driver/Src/stm32f3xx_hal_rcc_ex.c ****   *            @arg @ref RCC_PERIPHCLK_TIM20   TIM20 peripheral clock
 942:Drivers/STM32F3xx_HAL_Driver/Src/stm32f3xx_hal_rcc_ex.c ****   *            @arg @ref RCC_PERIPHCLK_TIM34   TIM34 peripheral clock
 943:Drivers/STM32F3xx_HAL_Driver/Src/stm32f3xx_hal_rcc_ex.c ****   @endif
 944:Drivers/STM32F3xx_HAL_Driver/Src/stm32f3xx_hal_rcc_ex.c ****   * @retval Frequency in Hz (0: means that no available frequency for the peripheral)
 945:Drivers/STM32F3xx_HAL_Driver/Src/stm32f3xx_hal_rcc_ex.c ****   */
 946:Drivers/STM32F3xx_HAL_Driver/Src/stm32f3xx_hal_rcc_ex.c **** uint32_t HAL_RCCEx_GetPeriphCLKFreq(uint32_t PeriphClk)
 947:Drivers/STM32F3xx_HAL_Driver/Src/stm32f3xx_hal_rcc_ex.c **** {
 554              		.loc 1 947 1 is_stmt 1 view -0
 555              		.cfi_startproc
 556              		@ args = 0, pretend = 0, frame = 32
 557              		@ frame_needed = 0, uses_anonymous_args = 0
 948:Drivers/STM32F3xx_HAL_Driver/Src/stm32f3xx_hal_rcc_ex.c ****   /* frequency == 0 : means that no available frequency for the peripheral */
 949:Drivers/STM32F3xx_HAL_Driver/Src/stm32f3xx_hal_rcc_ex.c ****   uint32_t frequency = 0U;
 558              		.loc 1 949 3 view .LVU169
 950:Drivers/STM32F3xx_HAL_Driver/Src/stm32f3xx_hal_rcc_ex.c **** 
 951:Drivers/STM32F3xx_HAL_Driver/Src/stm32f3xx_hal_rcc_ex.c ****   uint32_t srcclk = 0U;
 559              		.loc 1 951 3 view .LVU170
 952:Drivers/STM32F3xx_HAL_Driver/Src/stm32f3xx_hal_rcc_ex.c **** #if defined(RCC_CFGR2_ADC1PRES) || defined(RCC_CFGR2_ADCPRE12) || defined(RCC_CFGR2_ADCPRE34)
 953:Drivers/STM32F3xx_HAL_Driver/Src/stm32f3xx_hal_rcc_ex.c ****   uint16_t adc_pll_prediv_table[16] = { 1U,  2U,  4U,  6U, 8U, 10U, 12U, 16U, 32U, 64U, 128U, 256U,
 560              		.loc 1 953 3 view .LVU171
 947:Drivers/STM32F3xx_HAL_Driver/Src/stm32f3xx_hal_rcc_ex.c ****   /* frequency == 0 : means that no available frequency for the peripheral */
 561              		.loc 1 947 1 is_stmt 0 view .LVU172
 562 0000 10B5     		push	{r4, lr}
 563              	.LCFI8:
 564              		.cfi_def_cfa_offset 8
 565              		.cfi_offset 4, -8
 566              		.cfi_offset 14, -4
 567              		.loc 1 953 12 view .LVU173
 568 0002 604C     		ldr	r4, .L106
 947:Drivers/STM32F3xx_HAL_Driver/Src/stm32f3xx_hal_rcc_ex.c ****   /* frequency == 0 : means that no available frequency for the peripheral */
 569              		.loc 1 947 1 view .LVU174
 570 0004 8646     		mov	lr, r0
 571              		.loc 1 953 12 view .LVU175
 572 0006 0FCC     		ldmia	r4!, {r0, r1, r2, r3}
 573              	.LVL33:
 947:Drivers/STM32F3xx_HAL_Driver/Src/stm32f3xx_hal_rcc_ex.c ****   /* frequency == 0 : means that no available frequency for the peripheral */
 574              		.loc 1 947 1 view .LVU176
 575 0008 88B0     		sub	sp, sp, #32
 576              	.LCFI9:
 577              		.cfi_def_cfa_offset 40
 578              		.loc 1 953 12 view .LVU177
 579 000a EC46     		mov	ip, sp
 580 000c ACE80F00 		stmia	ip!, {r0, r1, r2, r3}
 581 0010 94E80F00 		ldm	r4, {r0, r1, r2, r3}
 954:Drivers/STM32F3xx_HAL_Driver/Src/stm32f3xx_hal_rcc_ex.c **** #endif /* RCC_CFGR2_ADC1PRES || RCC_CFGR2_ADCPRE12 || RCC_CFGR2_ADCPRE34 */
 955:Drivers/STM32F3xx_HAL_Driver/Src/stm32f3xx_hal_rcc_ex.c **** #if defined(RCC_CFGR_SDPRE)
 956:Drivers/STM32F3xx_HAL_Driver/Src/stm32f3xx_hal_rcc_ex.c ****   uint8_t sdadc_prescaler_table[16] = { 2U,  4U,  6U, 8U, 10U, 12U, 14U, 16U, 20U, 24U, 28U, 32U, 3
 957:Drivers/STM32F3xx_HAL_Driver/Src/stm32f3xx_hal_rcc_ex.c **** #endif /* RCC_CFGR_SDPRE */
 958:Drivers/STM32F3xx_HAL_Driver/Src/stm32f3xx_hal_rcc_ex.c **** 
 959:Drivers/STM32F3xx_HAL_Driver/Src/stm32f3xx_hal_rcc_ex.c ****   /* Check the parameters */
 960:Drivers/STM32F3xx_HAL_Driver/Src/stm32f3xx_hal_rcc_ex.c ****   assert_param(IS_RCC_PERIPHCLOCK(PeriphClk));
 961:Drivers/STM32F3xx_HAL_Driver/Src/stm32f3xx_hal_rcc_ex.c ****   
ARM GAS  /var/folders/b1/22c950295gx2kqj80tvj8wqc0000gn/T//ccYsOlQx.s 			page 47


 962:Drivers/STM32F3xx_HAL_Driver/Src/stm32f3xx_hal_rcc_ex.c ****   switch (PeriphClk)
 582              		.loc 1 962 3 view .LVU178
 583 0014 BEF5805F 		cmp	lr, #4096
 953:Drivers/STM32F3xx_HAL_Driver/Src/stm32f3xx_hal_rcc_ex.c **** #endif /* RCC_CFGR2_ADC1PRES || RCC_CFGR2_ADCPRE12 || RCC_CFGR2_ADCPRE34 */
 584              		.loc 1 953 12 view .LVU179
 585 0018 8CE80F00 		stm	ip, {r0, r1, r2, r3}
 960:Drivers/STM32F3xx_HAL_Driver/Src/stm32f3xx_hal_rcc_ex.c ****   
 586              		.loc 1 960 3 is_stmt 1 view .LVU180
 587              		.loc 1 962 3 view .LVU181
 588 001c 00F08580 		beq	.L52
 589 0020 0FD8     		bhi	.L53
 590 0022 BEF1200F 		cmp	lr, #32
 591 0026 00F08580 		beq	.L54
 592 002a BEF1800F 		cmp	lr, #128
 593 002e 22D1     		bne	.L102
 963:Drivers/STM32F3xx_HAL_Driver/Src/stm32f3xx_hal_rcc_ex.c ****   {
 964:Drivers/STM32F3xx_HAL_Driver/Src/stm32f3xx_hal_rcc_ex.c ****   case RCC_PERIPHCLK_RTC:
 965:Drivers/STM32F3xx_HAL_Driver/Src/stm32f3xx_hal_rcc_ex.c ****     {
 966:Drivers/STM32F3xx_HAL_Driver/Src/stm32f3xx_hal_rcc_ex.c ****       /* Get the current RTC source */
 967:Drivers/STM32F3xx_HAL_Driver/Src/stm32f3xx_hal_rcc_ex.c ****       srcclk = __HAL_RCC_GET_RTC_SOURCE();
 968:Drivers/STM32F3xx_HAL_Driver/Src/stm32f3xx_hal_rcc_ex.c **** 
 969:Drivers/STM32F3xx_HAL_Driver/Src/stm32f3xx_hal_rcc_ex.c ****       /* Check if LSE is ready and if RTC clock selection is LSE */
 970:Drivers/STM32F3xx_HAL_Driver/Src/stm32f3xx_hal_rcc_ex.c ****       if ((srcclk == RCC_RTCCLKSOURCE_LSE) && (HAL_IS_BIT_SET(RCC->BDCR, RCC_BDCR_LSERDY)))
 971:Drivers/STM32F3xx_HAL_Driver/Src/stm32f3xx_hal_rcc_ex.c ****       {
 972:Drivers/STM32F3xx_HAL_Driver/Src/stm32f3xx_hal_rcc_ex.c ****         frequency = LSE_VALUE;
 973:Drivers/STM32F3xx_HAL_Driver/Src/stm32f3xx_hal_rcc_ex.c ****       }
 974:Drivers/STM32F3xx_HAL_Driver/Src/stm32f3xx_hal_rcc_ex.c ****       /* Check if LSI is ready and if RTC clock selection is LSI */
 975:Drivers/STM32F3xx_HAL_Driver/Src/stm32f3xx_hal_rcc_ex.c ****       else if ((srcclk == RCC_RTCCLKSOURCE_LSI) && (HAL_IS_BIT_SET(RCC->CSR, RCC_CSR_LSIRDY)))
 976:Drivers/STM32F3xx_HAL_Driver/Src/stm32f3xx_hal_rcc_ex.c ****       {
 977:Drivers/STM32F3xx_HAL_Driver/Src/stm32f3xx_hal_rcc_ex.c ****         frequency = LSI_VALUE;
 978:Drivers/STM32F3xx_HAL_Driver/Src/stm32f3xx_hal_rcc_ex.c ****       }
 979:Drivers/STM32F3xx_HAL_Driver/Src/stm32f3xx_hal_rcc_ex.c ****       /* Check if HSE is ready  and if RTC clock selection is HSI_DIV32*/
 980:Drivers/STM32F3xx_HAL_Driver/Src/stm32f3xx_hal_rcc_ex.c ****       else if ((srcclk == RCC_RTCCLKSOURCE_HSE_DIV32) && (HAL_IS_BIT_SET(RCC->CR, RCC_CR_HSERDY)))
 981:Drivers/STM32F3xx_HAL_Driver/Src/stm32f3xx_hal_rcc_ex.c ****       {
 982:Drivers/STM32F3xx_HAL_Driver/Src/stm32f3xx_hal_rcc_ex.c ****         frequency = HSE_VALUE / 32U;
 983:Drivers/STM32F3xx_HAL_Driver/Src/stm32f3xx_hal_rcc_ex.c ****       }
 984:Drivers/STM32F3xx_HAL_Driver/Src/stm32f3xx_hal_rcc_ex.c ****       break;
 985:Drivers/STM32F3xx_HAL_Driver/Src/stm32f3xx_hal_rcc_ex.c ****     }
 986:Drivers/STM32F3xx_HAL_Driver/Src/stm32f3xx_hal_rcc_ex.c ****   case RCC_PERIPHCLK_USART1:
 987:Drivers/STM32F3xx_HAL_Driver/Src/stm32f3xx_hal_rcc_ex.c ****     {
 988:Drivers/STM32F3xx_HAL_Driver/Src/stm32f3xx_hal_rcc_ex.c ****       /* Get the current USART1 source */
 989:Drivers/STM32F3xx_HAL_Driver/Src/stm32f3xx_hal_rcc_ex.c ****       srcclk = __HAL_RCC_GET_USART1_SOURCE();
 990:Drivers/STM32F3xx_HAL_Driver/Src/stm32f3xx_hal_rcc_ex.c **** 
 991:Drivers/STM32F3xx_HAL_Driver/Src/stm32f3xx_hal_rcc_ex.c ****       /* Check if USART1 clock selection is PCLK1 */
 992:Drivers/STM32F3xx_HAL_Driver/Src/stm32f3xx_hal_rcc_ex.c **** #if defined(RCC_USART1CLKSOURCE_PCLK2)
 993:Drivers/STM32F3xx_HAL_Driver/Src/stm32f3xx_hal_rcc_ex.c ****       if (srcclk == RCC_USART1CLKSOURCE_PCLK2)
 994:Drivers/STM32F3xx_HAL_Driver/Src/stm32f3xx_hal_rcc_ex.c ****       {
 995:Drivers/STM32F3xx_HAL_Driver/Src/stm32f3xx_hal_rcc_ex.c ****         frequency = HAL_RCC_GetPCLK2Freq();
 996:Drivers/STM32F3xx_HAL_Driver/Src/stm32f3xx_hal_rcc_ex.c ****       }
 997:Drivers/STM32F3xx_HAL_Driver/Src/stm32f3xx_hal_rcc_ex.c **** #else
 998:Drivers/STM32F3xx_HAL_Driver/Src/stm32f3xx_hal_rcc_ex.c ****       if (srcclk == RCC_USART1CLKSOURCE_PCLK1)
 999:Drivers/STM32F3xx_HAL_Driver/Src/stm32f3xx_hal_rcc_ex.c ****       {
1000:Drivers/STM32F3xx_HAL_Driver/Src/stm32f3xx_hal_rcc_ex.c ****         frequency = HAL_RCC_GetPCLK1Freq();
1001:Drivers/STM32F3xx_HAL_Driver/Src/stm32f3xx_hal_rcc_ex.c ****       }
1002:Drivers/STM32F3xx_HAL_Driver/Src/stm32f3xx_hal_rcc_ex.c **** #endif /* RCC_USART1CLKSOURCE_PCLK2 */
1003:Drivers/STM32F3xx_HAL_Driver/Src/stm32f3xx_hal_rcc_ex.c ****       /* Check if HSI is ready and if USART1 clock selection is HSI */
1004:Drivers/STM32F3xx_HAL_Driver/Src/stm32f3xx_hal_rcc_ex.c ****       else if ((srcclk == RCC_USART1CLKSOURCE_HSI) && (HAL_IS_BIT_SET(RCC->CR, RCC_CR_HSIRDY)))
ARM GAS  /var/folders/b1/22c950295gx2kqj80tvj8wqc0000gn/T//ccYsOlQx.s 			page 48


1005:Drivers/STM32F3xx_HAL_Driver/Src/stm32f3xx_hal_rcc_ex.c ****       {
1006:Drivers/STM32F3xx_HAL_Driver/Src/stm32f3xx_hal_rcc_ex.c ****         frequency = HSI_VALUE;
1007:Drivers/STM32F3xx_HAL_Driver/Src/stm32f3xx_hal_rcc_ex.c ****       }
1008:Drivers/STM32F3xx_HAL_Driver/Src/stm32f3xx_hal_rcc_ex.c ****       /* Check if USART1 clock selection is SYSCLK */
1009:Drivers/STM32F3xx_HAL_Driver/Src/stm32f3xx_hal_rcc_ex.c ****       else if (srcclk == RCC_USART1CLKSOURCE_SYSCLK)
1010:Drivers/STM32F3xx_HAL_Driver/Src/stm32f3xx_hal_rcc_ex.c ****       {
1011:Drivers/STM32F3xx_HAL_Driver/Src/stm32f3xx_hal_rcc_ex.c ****         frequency = HAL_RCC_GetSysClockFreq();
1012:Drivers/STM32F3xx_HAL_Driver/Src/stm32f3xx_hal_rcc_ex.c ****       }
1013:Drivers/STM32F3xx_HAL_Driver/Src/stm32f3xx_hal_rcc_ex.c ****       /* Check if LSE is ready  and if USART1 clock selection is LSE */
1014:Drivers/STM32F3xx_HAL_Driver/Src/stm32f3xx_hal_rcc_ex.c ****       else if ((srcclk == RCC_USART1CLKSOURCE_LSE) && (HAL_IS_BIT_SET(RCC->BDCR, RCC_BDCR_LSERDY)))
1015:Drivers/STM32F3xx_HAL_Driver/Src/stm32f3xx_hal_rcc_ex.c ****       {
1016:Drivers/STM32F3xx_HAL_Driver/Src/stm32f3xx_hal_rcc_ex.c ****         frequency = LSE_VALUE;
1017:Drivers/STM32F3xx_HAL_Driver/Src/stm32f3xx_hal_rcc_ex.c ****       }
1018:Drivers/STM32F3xx_HAL_Driver/Src/stm32f3xx_hal_rcc_ex.c ****       break;
1019:Drivers/STM32F3xx_HAL_Driver/Src/stm32f3xx_hal_rcc_ex.c ****     }
1020:Drivers/STM32F3xx_HAL_Driver/Src/stm32f3xx_hal_rcc_ex.c **** #if defined(RCC_CFGR3_USART2SW)
1021:Drivers/STM32F3xx_HAL_Driver/Src/stm32f3xx_hal_rcc_ex.c ****   case RCC_PERIPHCLK_USART2:
1022:Drivers/STM32F3xx_HAL_Driver/Src/stm32f3xx_hal_rcc_ex.c ****     {
1023:Drivers/STM32F3xx_HAL_Driver/Src/stm32f3xx_hal_rcc_ex.c ****       /* Get the current USART2 source */
1024:Drivers/STM32F3xx_HAL_Driver/Src/stm32f3xx_hal_rcc_ex.c ****       srcclk = __HAL_RCC_GET_USART2_SOURCE();
1025:Drivers/STM32F3xx_HAL_Driver/Src/stm32f3xx_hal_rcc_ex.c **** 
1026:Drivers/STM32F3xx_HAL_Driver/Src/stm32f3xx_hal_rcc_ex.c ****       /* Check if USART2 clock selection is PCLK1 */
1027:Drivers/STM32F3xx_HAL_Driver/Src/stm32f3xx_hal_rcc_ex.c ****       if (srcclk == RCC_USART2CLKSOURCE_PCLK1)
1028:Drivers/STM32F3xx_HAL_Driver/Src/stm32f3xx_hal_rcc_ex.c ****       {
1029:Drivers/STM32F3xx_HAL_Driver/Src/stm32f3xx_hal_rcc_ex.c ****         frequency = HAL_RCC_GetPCLK1Freq();
1030:Drivers/STM32F3xx_HAL_Driver/Src/stm32f3xx_hal_rcc_ex.c ****       }
1031:Drivers/STM32F3xx_HAL_Driver/Src/stm32f3xx_hal_rcc_ex.c ****       /* Check if HSI is ready and if USART2 clock selection is HSI */
1032:Drivers/STM32F3xx_HAL_Driver/Src/stm32f3xx_hal_rcc_ex.c ****       else if ((srcclk == RCC_USART2CLKSOURCE_HSI) && (HAL_IS_BIT_SET(RCC->CR, RCC_CR_HSIRDY)))
1033:Drivers/STM32F3xx_HAL_Driver/Src/stm32f3xx_hal_rcc_ex.c ****       {
1034:Drivers/STM32F3xx_HAL_Driver/Src/stm32f3xx_hal_rcc_ex.c ****         frequency = HSI_VALUE;
1035:Drivers/STM32F3xx_HAL_Driver/Src/stm32f3xx_hal_rcc_ex.c ****       }
1036:Drivers/STM32F3xx_HAL_Driver/Src/stm32f3xx_hal_rcc_ex.c ****       /* Check if USART2 clock selection is SYSCLK */
1037:Drivers/STM32F3xx_HAL_Driver/Src/stm32f3xx_hal_rcc_ex.c ****       else if (srcclk == RCC_USART2CLKSOURCE_SYSCLK)
1038:Drivers/STM32F3xx_HAL_Driver/Src/stm32f3xx_hal_rcc_ex.c ****       {
1039:Drivers/STM32F3xx_HAL_Driver/Src/stm32f3xx_hal_rcc_ex.c ****         frequency = HAL_RCC_GetSysClockFreq();
1040:Drivers/STM32F3xx_HAL_Driver/Src/stm32f3xx_hal_rcc_ex.c ****       }
1041:Drivers/STM32F3xx_HAL_Driver/Src/stm32f3xx_hal_rcc_ex.c ****       /* Check if LSE is ready  and if USART2 clock selection is LSE */
1042:Drivers/STM32F3xx_HAL_Driver/Src/stm32f3xx_hal_rcc_ex.c ****       else if ((srcclk == RCC_USART2CLKSOURCE_LSE) && (HAL_IS_BIT_SET(RCC->BDCR, RCC_BDCR_LSERDY)))
1043:Drivers/STM32F3xx_HAL_Driver/Src/stm32f3xx_hal_rcc_ex.c ****       {
1044:Drivers/STM32F3xx_HAL_Driver/Src/stm32f3xx_hal_rcc_ex.c ****         frequency = LSE_VALUE;
1045:Drivers/STM32F3xx_HAL_Driver/Src/stm32f3xx_hal_rcc_ex.c ****       }
1046:Drivers/STM32F3xx_HAL_Driver/Src/stm32f3xx_hal_rcc_ex.c ****       break;
1047:Drivers/STM32F3xx_HAL_Driver/Src/stm32f3xx_hal_rcc_ex.c ****     }
1048:Drivers/STM32F3xx_HAL_Driver/Src/stm32f3xx_hal_rcc_ex.c **** #endif /* RCC_CFGR3_USART2SW */
1049:Drivers/STM32F3xx_HAL_Driver/Src/stm32f3xx_hal_rcc_ex.c **** #if defined(RCC_CFGR3_USART3SW)
1050:Drivers/STM32F3xx_HAL_Driver/Src/stm32f3xx_hal_rcc_ex.c ****   case RCC_PERIPHCLK_USART3:
1051:Drivers/STM32F3xx_HAL_Driver/Src/stm32f3xx_hal_rcc_ex.c ****     {
1052:Drivers/STM32F3xx_HAL_Driver/Src/stm32f3xx_hal_rcc_ex.c ****       /* Get the current USART3 source */
1053:Drivers/STM32F3xx_HAL_Driver/Src/stm32f3xx_hal_rcc_ex.c ****       srcclk = __HAL_RCC_GET_USART3_SOURCE();
1054:Drivers/STM32F3xx_HAL_Driver/Src/stm32f3xx_hal_rcc_ex.c **** 
1055:Drivers/STM32F3xx_HAL_Driver/Src/stm32f3xx_hal_rcc_ex.c ****       /* Check if USART3 clock selection is PCLK1 */
1056:Drivers/STM32F3xx_HAL_Driver/Src/stm32f3xx_hal_rcc_ex.c ****       if (srcclk == RCC_USART3CLKSOURCE_PCLK1)
1057:Drivers/STM32F3xx_HAL_Driver/Src/stm32f3xx_hal_rcc_ex.c ****       {
1058:Drivers/STM32F3xx_HAL_Driver/Src/stm32f3xx_hal_rcc_ex.c ****         frequency = HAL_RCC_GetPCLK1Freq();
1059:Drivers/STM32F3xx_HAL_Driver/Src/stm32f3xx_hal_rcc_ex.c ****       }
1060:Drivers/STM32F3xx_HAL_Driver/Src/stm32f3xx_hal_rcc_ex.c ****       /* Check if HSI is ready and if USART3 clock selection is HSI */
1061:Drivers/STM32F3xx_HAL_Driver/Src/stm32f3xx_hal_rcc_ex.c ****       else if ((srcclk == RCC_USART3CLKSOURCE_HSI) && (HAL_IS_BIT_SET(RCC->CR, RCC_CR_HSIRDY)))
ARM GAS  /var/folders/b1/22c950295gx2kqj80tvj8wqc0000gn/T//ccYsOlQx.s 			page 49


1062:Drivers/STM32F3xx_HAL_Driver/Src/stm32f3xx_hal_rcc_ex.c ****       {
1063:Drivers/STM32F3xx_HAL_Driver/Src/stm32f3xx_hal_rcc_ex.c ****         frequency = HSI_VALUE;
1064:Drivers/STM32F3xx_HAL_Driver/Src/stm32f3xx_hal_rcc_ex.c ****       }
1065:Drivers/STM32F3xx_HAL_Driver/Src/stm32f3xx_hal_rcc_ex.c ****       /* Check if USART3 clock selection is SYSCLK */
1066:Drivers/STM32F3xx_HAL_Driver/Src/stm32f3xx_hal_rcc_ex.c ****       else if (srcclk == RCC_USART3CLKSOURCE_SYSCLK)
1067:Drivers/STM32F3xx_HAL_Driver/Src/stm32f3xx_hal_rcc_ex.c ****       {
1068:Drivers/STM32F3xx_HAL_Driver/Src/stm32f3xx_hal_rcc_ex.c ****         frequency = HAL_RCC_GetSysClockFreq();
1069:Drivers/STM32F3xx_HAL_Driver/Src/stm32f3xx_hal_rcc_ex.c ****       }
1070:Drivers/STM32F3xx_HAL_Driver/Src/stm32f3xx_hal_rcc_ex.c ****       /* Check if LSE is ready  and if USART3 clock selection is LSE */
1071:Drivers/STM32F3xx_HAL_Driver/Src/stm32f3xx_hal_rcc_ex.c ****       else if ((srcclk == RCC_USART3CLKSOURCE_LSE) && (HAL_IS_BIT_SET(RCC->BDCR, RCC_BDCR_LSERDY)))
1072:Drivers/STM32F3xx_HAL_Driver/Src/stm32f3xx_hal_rcc_ex.c ****       {
1073:Drivers/STM32F3xx_HAL_Driver/Src/stm32f3xx_hal_rcc_ex.c ****         frequency = LSE_VALUE;
1074:Drivers/STM32F3xx_HAL_Driver/Src/stm32f3xx_hal_rcc_ex.c ****       }
1075:Drivers/STM32F3xx_HAL_Driver/Src/stm32f3xx_hal_rcc_ex.c ****      break;
1076:Drivers/STM32F3xx_HAL_Driver/Src/stm32f3xx_hal_rcc_ex.c ****     }
1077:Drivers/STM32F3xx_HAL_Driver/Src/stm32f3xx_hal_rcc_ex.c **** #endif /* RCC_CFGR3_USART3SW */
1078:Drivers/STM32F3xx_HAL_Driver/Src/stm32f3xx_hal_rcc_ex.c **** #if defined(RCC_CFGR3_UART4SW)
1079:Drivers/STM32F3xx_HAL_Driver/Src/stm32f3xx_hal_rcc_ex.c ****   case RCC_PERIPHCLK_UART4:
1080:Drivers/STM32F3xx_HAL_Driver/Src/stm32f3xx_hal_rcc_ex.c ****     {
1081:Drivers/STM32F3xx_HAL_Driver/Src/stm32f3xx_hal_rcc_ex.c ****       /* Get the current UART4 source */
1082:Drivers/STM32F3xx_HAL_Driver/Src/stm32f3xx_hal_rcc_ex.c ****       srcclk = __HAL_RCC_GET_UART4_SOURCE();
1083:Drivers/STM32F3xx_HAL_Driver/Src/stm32f3xx_hal_rcc_ex.c **** 
1084:Drivers/STM32F3xx_HAL_Driver/Src/stm32f3xx_hal_rcc_ex.c ****       /* Check if UART4 clock selection is PCLK1 */
1085:Drivers/STM32F3xx_HAL_Driver/Src/stm32f3xx_hal_rcc_ex.c ****       if (srcclk == RCC_UART4CLKSOURCE_PCLK1)
1086:Drivers/STM32F3xx_HAL_Driver/Src/stm32f3xx_hal_rcc_ex.c ****       {
1087:Drivers/STM32F3xx_HAL_Driver/Src/stm32f3xx_hal_rcc_ex.c ****         frequency = HAL_RCC_GetPCLK1Freq();
1088:Drivers/STM32F3xx_HAL_Driver/Src/stm32f3xx_hal_rcc_ex.c ****       }
1089:Drivers/STM32F3xx_HAL_Driver/Src/stm32f3xx_hal_rcc_ex.c ****       /* Check if HSI is ready and if UART4 clock selection is HSI */
1090:Drivers/STM32F3xx_HAL_Driver/Src/stm32f3xx_hal_rcc_ex.c ****       else if ((srcclk == RCC_UART4CLKSOURCE_HSI) && (HAL_IS_BIT_SET(RCC->CR, RCC_CR_HSIRDY)))
1091:Drivers/STM32F3xx_HAL_Driver/Src/stm32f3xx_hal_rcc_ex.c ****       {
1092:Drivers/STM32F3xx_HAL_Driver/Src/stm32f3xx_hal_rcc_ex.c ****         frequency = HSI_VALUE;
1093:Drivers/STM32F3xx_HAL_Driver/Src/stm32f3xx_hal_rcc_ex.c ****       }
1094:Drivers/STM32F3xx_HAL_Driver/Src/stm32f3xx_hal_rcc_ex.c ****       /* Check if UART4 clock selection is SYSCLK */
1095:Drivers/STM32F3xx_HAL_Driver/Src/stm32f3xx_hal_rcc_ex.c ****       else if (srcclk == RCC_UART4CLKSOURCE_SYSCLK)
1096:Drivers/STM32F3xx_HAL_Driver/Src/stm32f3xx_hal_rcc_ex.c ****       {
1097:Drivers/STM32F3xx_HAL_Driver/Src/stm32f3xx_hal_rcc_ex.c ****         frequency = HAL_RCC_GetSysClockFreq();
1098:Drivers/STM32F3xx_HAL_Driver/Src/stm32f3xx_hal_rcc_ex.c ****       }
1099:Drivers/STM32F3xx_HAL_Driver/Src/stm32f3xx_hal_rcc_ex.c ****       /* Check if LSE is ready  and if UART4 clock selection is LSE */
1100:Drivers/STM32F3xx_HAL_Driver/Src/stm32f3xx_hal_rcc_ex.c ****       else if ((srcclk == RCC_UART4CLKSOURCE_LSE) && (HAL_IS_BIT_SET(RCC->BDCR, RCC_BDCR_LSERDY)))
1101:Drivers/STM32F3xx_HAL_Driver/Src/stm32f3xx_hal_rcc_ex.c ****       {
1102:Drivers/STM32F3xx_HAL_Driver/Src/stm32f3xx_hal_rcc_ex.c ****         frequency = LSE_VALUE;
1103:Drivers/STM32F3xx_HAL_Driver/Src/stm32f3xx_hal_rcc_ex.c ****       }
1104:Drivers/STM32F3xx_HAL_Driver/Src/stm32f3xx_hal_rcc_ex.c ****       break;
1105:Drivers/STM32F3xx_HAL_Driver/Src/stm32f3xx_hal_rcc_ex.c ****     }
1106:Drivers/STM32F3xx_HAL_Driver/Src/stm32f3xx_hal_rcc_ex.c **** #endif /* RCC_CFGR3_UART4SW */
1107:Drivers/STM32F3xx_HAL_Driver/Src/stm32f3xx_hal_rcc_ex.c **** #if defined(RCC_CFGR3_UART5SW)
1108:Drivers/STM32F3xx_HAL_Driver/Src/stm32f3xx_hal_rcc_ex.c ****   case RCC_PERIPHCLK_UART5:
1109:Drivers/STM32F3xx_HAL_Driver/Src/stm32f3xx_hal_rcc_ex.c ****     {
1110:Drivers/STM32F3xx_HAL_Driver/Src/stm32f3xx_hal_rcc_ex.c ****       /* Get the current UART5 source */
1111:Drivers/STM32F3xx_HAL_Driver/Src/stm32f3xx_hal_rcc_ex.c ****       srcclk = __HAL_RCC_GET_UART5_SOURCE();
1112:Drivers/STM32F3xx_HAL_Driver/Src/stm32f3xx_hal_rcc_ex.c **** 
1113:Drivers/STM32F3xx_HAL_Driver/Src/stm32f3xx_hal_rcc_ex.c ****       /* Check if UART5 clock selection is PCLK1 */
1114:Drivers/STM32F3xx_HAL_Driver/Src/stm32f3xx_hal_rcc_ex.c ****       if (srcclk == RCC_UART5CLKSOURCE_PCLK1)
1115:Drivers/STM32F3xx_HAL_Driver/Src/stm32f3xx_hal_rcc_ex.c ****       {
1116:Drivers/STM32F3xx_HAL_Driver/Src/stm32f3xx_hal_rcc_ex.c ****         frequency = HAL_RCC_GetPCLK1Freq();
1117:Drivers/STM32F3xx_HAL_Driver/Src/stm32f3xx_hal_rcc_ex.c ****       }
1118:Drivers/STM32F3xx_HAL_Driver/Src/stm32f3xx_hal_rcc_ex.c ****       /* Check if HSI is ready and if UART5 clock selection is HSI */
ARM GAS  /var/folders/b1/22c950295gx2kqj80tvj8wqc0000gn/T//ccYsOlQx.s 			page 50


1119:Drivers/STM32F3xx_HAL_Driver/Src/stm32f3xx_hal_rcc_ex.c ****       else if ((srcclk == RCC_UART5CLKSOURCE_HSI) && (HAL_IS_BIT_SET(RCC->CR, RCC_CR_HSIRDY)))
1120:Drivers/STM32F3xx_HAL_Driver/Src/stm32f3xx_hal_rcc_ex.c ****       {
1121:Drivers/STM32F3xx_HAL_Driver/Src/stm32f3xx_hal_rcc_ex.c ****         frequency = HSI_VALUE;
1122:Drivers/STM32F3xx_HAL_Driver/Src/stm32f3xx_hal_rcc_ex.c ****       }
1123:Drivers/STM32F3xx_HAL_Driver/Src/stm32f3xx_hal_rcc_ex.c ****       /* Check if UART5 clock selection is SYSCLK */
1124:Drivers/STM32F3xx_HAL_Driver/Src/stm32f3xx_hal_rcc_ex.c ****       else if (srcclk == RCC_UART5CLKSOURCE_SYSCLK)
1125:Drivers/STM32F3xx_HAL_Driver/Src/stm32f3xx_hal_rcc_ex.c ****       {
1126:Drivers/STM32F3xx_HAL_Driver/Src/stm32f3xx_hal_rcc_ex.c ****         frequency = HAL_RCC_GetSysClockFreq();
1127:Drivers/STM32F3xx_HAL_Driver/Src/stm32f3xx_hal_rcc_ex.c ****       }
1128:Drivers/STM32F3xx_HAL_Driver/Src/stm32f3xx_hal_rcc_ex.c ****       /* Check if LSE is ready  and if UART5 clock selection is LSE */
1129:Drivers/STM32F3xx_HAL_Driver/Src/stm32f3xx_hal_rcc_ex.c ****       else if ((srcclk == RCC_UART5CLKSOURCE_LSE) && (HAL_IS_BIT_SET(RCC->BDCR, RCC_BDCR_LSERDY)))
1130:Drivers/STM32F3xx_HAL_Driver/Src/stm32f3xx_hal_rcc_ex.c ****       {
1131:Drivers/STM32F3xx_HAL_Driver/Src/stm32f3xx_hal_rcc_ex.c ****         frequency = LSE_VALUE;
1132:Drivers/STM32F3xx_HAL_Driver/Src/stm32f3xx_hal_rcc_ex.c ****       }
1133:Drivers/STM32F3xx_HAL_Driver/Src/stm32f3xx_hal_rcc_ex.c ****       break;
1134:Drivers/STM32F3xx_HAL_Driver/Src/stm32f3xx_hal_rcc_ex.c ****     }
1135:Drivers/STM32F3xx_HAL_Driver/Src/stm32f3xx_hal_rcc_ex.c **** #endif /* RCC_CFGR3_UART5SW */
1136:Drivers/STM32F3xx_HAL_Driver/Src/stm32f3xx_hal_rcc_ex.c ****   case RCC_PERIPHCLK_I2C1:
1137:Drivers/STM32F3xx_HAL_Driver/Src/stm32f3xx_hal_rcc_ex.c ****     {
1138:Drivers/STM32F3xx_HAL_Driver/Src/stm32f3xx_hal_rcc_ex.c ****       /* Get the current I2C1 source */
1139:Drivers/STM32F3xx_HAL_Driver/Src/stm32f3xx_hal_rcc_ex.c ****       srcclk = __HAL_RCC_GET_I2C1_SOURCE();
1140:Drivers/STM32F3xx_HAL_Driver/Src/stm32f3xx_hal_rcc_ex.c **** 
1141:Drivers/STM32F3xx_HAL_Driver/Src/stm32f3xx_hal_rcc_ex.c ****       /* Check if HSI is ready and if I2C1 clock selection is HSI */
1142:Drivers/STM32F3xx_HAL_Driver/Src/stm32f3xx_hal_rcc_ex.c ****       if ((srcclk == RCC_I2C1CLKSOURCE_HSI) && (HAL_IS_BIT_SET(RCC->CR, RCC_CR_HSIRDY)))
1143:Drivers/STM32F3xx_HAL_Driver/Src/stm32f3xx_hal_rcc_ex.c ****       {
1144:Drivers/STM32F3xx_HAL_Driver/Src/stm32f3xx_hal_rcc_ex.c ****         frequency = HSI_VALUE;
1145:Drivers/STM32F3xx_HAL_Driver/Src/stm32f3xx_hal_rcc_ex.c ****       }
1146:Drivers/STM32F3xx_HAL_Driver/Src/stm32f3xx_hal_rcc_ex.c ****       /* Check if I2C1 clock selection is SYSCLK */
1147:Drivers/STM32F3xx_HAL_Driver/Src/stm32f3xx_hal_rcc_ex.c ****       else if (srcclk == RCC_I2C1CLKSOURCE_SYSCLK)
1148:Drivers/STM32F3xx_HAL_Driver/Src/stm32f3xx_hal_rcc_ex.c ****       {
1149:Drivers/STM32F3xx_HAL_Driver/Src/stm32f3xx_hal_rcc_ex.c ****         frequency = HAL_RCC_GetSysClockFreq();
1150:Drivers/STM32F3xx_HAL_Driver/Src/stm32f3xx_hal_rcc_ex.c ****       }
1151:Drivers/STM32F3xx_HAL_Driver/Src/stm32f3xx_hal_rcc_ex.c ****       break;
1152:Drivers/STM32F3xx_HAL_Driver/Src/stm32f3xx_hal_rcc_ex.c ****     }
1153:Drivers/STM32F3xx_HAL_Driver/Src/stm32f3xx_hal_rcc_ex.c **** #if defined(RCC_CFGR3_I2C2SW)
1154:Drivers/STM32F3xx_HAL_Driver/Src/stm32f3xx_hal_rcc_ex.c ****   case RCC_PERIPHCLK_I2C2:
1155:Drivers/STM32F3xx_HAL_Driver/Src/stm32f3xx_hal_rcc_ex.c ****     {
1156:Drivers/STM32F3xx_HAL_Driver/Src/stm32f3xx_hal_rcc_ex.c ****       /* Get the current I2C2 source */
1157:Drivers/STM32F3xx_HAL_Driver/Src/stm32f3xx_hal_rcc_ex.c ****       srcclk = __HAL_RCC_GET_I2C2_SOURCE();
1158:Drivers/STM32F3xx_HAL_Driver/Src/stm32f3xx_hal_rcc_ex.c **** 
1159:Drivers/STM32F3xx_HAL_Driver/Src/stm32f3xx_hal_rcc_ex.c ****       /* Check if HSI is ready and if I2C2 clock selection is HSI */
1160:Drivers/STM32F3xx_HAL_Driver/Src/stm32f3xx_hal_rcc_ex.c ****       if ((srcclk == RCC_I2C2CLKSOURCE_HSI) && (HAL_IS_BIT_SET(RCC->CR, RCC_CR_HSIRDY)))
1161:Drivers/STM32F3xx_HAL_Driver/Src/stm32f3xx_hal_rcc_ex.c ****       {
1162:Drivers/STM32F3xx_HAL_Driver/Src/stm32f3xx_hal_rcc_ex.c ****         frequency = HSI_VALUE;
1163:Drivers/STM32F3xx_HAL_Driver/Src/stm32f3xx_hal_rcc_ex.c ****       }
1164:Drivers/STM32F3xx_HAL_Driver/Src/stm32f3xx_hal_rcc_ex.c ****       /* Check if I2C2 clock selection is SYSCLK */
1165:Drivers/STM32F3xx_HAL_Driver/Src/stm32f3xx_hal_rcc_ex.c ****       else if (srcclk == RCC_I2C2CLKSOURCE_SYSCLK)
1166:Drivers/STM32F3xx_HAL_Driver/Src/stm32f3xx_hal_rcc_ex.c ****       {
1167:Drivers/STM32F3xx_HAL_Driver/Src/stm32f3xx_hal_rcc_ex.c ****         frequency = HAL_RCC_GetSysClockFreq();
1168:Drivers/STM32F3xx_HAL_Driver/Src/stm32f3xx_hal_rcc_ex.c ****       }
1169:Drivers/STM32F3xx_HAL_Driver/Src/stm32f3xx_hal_rcc_ex.c ****       break;
1170:Drivers/STM32F3xx_HAL_Driver/Src/stm32f3xx_hal_rcc_ex.c ****     }
1171:Drivers/STM32F3xx_HAL_Driver/Src/stm32f3xx_hal_rcc_ex.c **** #endif /* RCC_CFGR3_I2C2SW */
1172:Drivers/STM32F3xx_HAL_Driver/Src/stm32f3xx_hal_rcc_ex.c **** #if defined(RCC_CFGR3_I2C3SW)
1173:Drivers/STM32F3xx_HAL_Driver/Src/stm32f3xx_hal_rcc_ex.c ****   case RCC_PERIPHCLK_I2C3:
1174:Drivers/STM32F3xx_HAL_Driver/Src/stm32f3xx_hal_rcc_ex.c ****     {
1175:Drivers/STM32F3xx_HAL_Driver/Src/stm32f3xx_hal_rcc_ex.c ****       /* Get the current I2C3 source */
ARM GAS  /var/folders/b1/22c950295gx2kqj80tvj8wqc0000gn/T//ccYsOlQx.s 			page 51


1176:Drivers/STM32F3xx_HAL_Driver/Src/stm32f3xx_hal_rcc_ex.c ****       srcclk = __HAL_RCC_GET_I2C3_SOURCE();
1177:Drivers/STM32F3xx_HAL_Driver/Src/stm32f3xx_hal_rcc_ex.c **** 
1178:Drivers/STM32F3xx_HAL_Driver/Src/stm32f3xx_hal_rcc_ex.c ****       /* Check if HSI is ready and if I2C3 clock selection is HSI */
1179:Drivers/STM32F3xx_HAL_Driver/Src/stm32f3xx_hal_rcc_ex.c ****       if ((srcclk == RCC_I2C3CLKSOURCE_HSI) && (HAL_IS_BIT_SET(RCC->CR, RCC_CR_HSIRDY)))
1180:Drivers/STM32F3xx_HAL_Driver/Src/stm32f3xx_hal_rcc_ex.c ****       {
1181:Drivers/STM32F3xx_HAL_Driver/Src/stm32f3xx_hal_rcc_ex.c ****         frequency = HSI_VALUE;
1182:Drivers/STM32F3xx_HAL_Driver/Src/stm32f3xx_hal_rcc_ex.c ****       }
1183:Drivers/STM32F3xx_HAL_Driver/Src/stm32f3xx_hal_rcc_ex.c ****       /* Check if I2C3 clock selection is SYSCLK */
1184:Drivers/STM32F3xx_HAL_Driver/Src/stm32f3xx_hal_rcc_ex.c ****       else if (srcclk == RCC_I2C3CLKSOURCE_SYSCLK)
1185:Drivers/STM32F3xx_HAL_Driver/Src/stm32f3xx_hal_rcc_ex.c ****       {
1186:Drivers/STM32F3xx_HAL_Driver/Src/stm32f3xx_hal_rcc_ex.c ****         frequency = HAL_RCC_GetSysClockFreq();
1187:Drivers/STM32F3xx_HAL_Driver/Src/stm32f3xx_hal_rcc_ex.c ****       }
1188:Drivers/STM32F3xx_HAL_Driver/Src/stm32f3xx_hal_rcc_ex.c ****       break;
1189:Drivers/STM32F3xx_HAL_Driver/Src/stm32f3xx_hal_rcc_ex.c ****     }
1190:Drivers/STM32F3xx_HAL_Driver/Src/stm32f3xx_hal_rcc_ex.c **** #endif /* RCC_CFGR3_I2C3SW */
1191:Drivers/STM32F3xx_HAL_Driver/Src/stm32f3xx_hal_rcc_ex.c **** #if defined(RCC_CFGR_I2SSRC)
1192:Drivers/STM32F3xx_HAL_Driver/Src/stm32f3xx_hal_rcc_ex.c ****   case RCC_PERIPHCLK_I2S:
1193:Drivers/STM32F3xx_HAL_Driver/Src/stm32f3xx_hal_rcc_ex.c ****     {
1194:Drivers/STM32F3xx_HAL_Driver/Src/stm32f3xx_hal_rcc_ex.c ****       /* Get the current I2S source */
1195:Drivers/STM32F3xx_HAL_Driver/Src/stm32f3xx_hal_rcc_ex.c ****       srcclk = __HAL_RCC_GET_I2S_SOURCE();
1196:Drivers/STM32F3xx_HAL_Driver/Src/stm32f3xx_hal_rcc_ex.c **** 
1197:Drivers/STM32F3xx_HAL_Driver/Src/stm32f3xx_hal_rcc_ex.c ****       /* Check if I2S clock selection is External clock mapped on the I2S_CKIN pin */
1198:Drivers/STM32F3xx_HAL_Driver/Src/stm32f3xx_hal_rcc_ex.c ****       if (srcclk == RCC_I2SCLKSOURCE_EXT)
1199:Drivers/STM32F3xx_HAL_Driver/Src/stm32f3xx_hal_rcc_ex.c ****       {
1200:Drivers/STM32F3xx_HAL_Driver/Src/stm32f3xx_hal_rcc_ex.c ****         /* External clock used. Frequency cannot be returned.*/
1201:Drivers/STM32F3xx_HAL_Driver/Src/stm32f3xx_hal_rcc_ex.c ****         frequency = 0xDEADDEADU;
1202:Drivers/STM32F3xx_HAL_Driver/Src/stm32f3xx_hal_rcc_ex.c ****       }
1203:Drivers/STM32F3xx_HAL_Driver/Src/stm32f3xx_hal_rcc_ex.c ****       /* Check if I2S clock selection is SYSCLK */
1204:Drivers/STM32F3xx_HAL_Driver/Src/stm32f3xx_hal_rcc_ex.c ****       else if (srcclk == RCC_I2SCLKSOURCE_SYSCLK)
1205:Drivers/STM32F3xx_HAL_Driver/Src/stm32f3xx_hal_rcc_ex.c ****       {
1206:Drivers/STM32F3xx_HAL_Driver/Src/stm32f3xx_hal_rcc_ex.c ****         frequency = HAL_RCC_GetSysClockFreq();
1207:Drivers/STM32F3xx_HAL_Driver/Src/stm32f3xx_hal_rcc_ex.c ****       }
1208:Drivers/STM32F3xx_HAL_Driver/Src/stm32f3xx_hal_rcc_ex.c ****       break;
1209:Drivers/STM32F3xx_HAL_Driver/Src/stm32f3xx_hal_rcc_ex.c ****     }
1210:Drivers/STM32F3xx_HAL_Driver/Src/stm32f3xx_hal_rcc_ex.c **** #endif /* RCC_CFGR_I2SSRC */
1211:Drivers/STM32F3xx_HAL_Driver/Src/stm32f3xx_hal_rcc_ex.c **** #if defined(RCC_CFGR_USBPRE)
1212:Drivers/STM32F3xx_HAL_Driver/Src/stm32f3xx_hal_rcc_ex.c ****   case RCC_PERIPHCLK_USB:
1213:Drivers/STM32F3xx_HAL_Driver/Src/stm32f3xx_hal_rcc_ex.c ****     {
1214:Drivers/STM32F3xx_HAL_Driver/Src/stm32f3xx_hal_rcc_ex.c ****       /* Check if PLL is ready */
1215:Drivers/STM32F3xx_HAL_Driver/Src/stm32f3xx_hal_rcc_ex.c ****       if (HAL_IS_BIT_SET(RCC->CR, RCC_CR_PLLRDY))
1216:Drivers/STM32F3xx_HAL_Driver/Src/stm32f3xx_hal_rcc_ex.c ****       {
1217:Drivers/STM32F3xx_HAL_Driver/Src/stm32f3xx_hal_rcc_ex.c ****         /* Get the current USB source */
1218:Drivers/STM32F3xx_HAL_Driver/Src/stm32f3xx_hal_rcc_ex.c ****         srcclk = __HAL_RCC_GET_USB_SOURCE();
1219:Drivers/STM32F3xx_HAL_Driver/Src/stm32f3xx_hal_rcc_ex.c **** 
1220:Drivers/STM32F3xx_HAL_Driver/Src/stm32f3xx_hal_rcc_ex.c ****         /* Check if USB clock selection is not divided */
1221:Drivers/STM32F3xx_HAL_Driver/Src/stm32f3xx_hal_rcc_ex.c ****         if (srcclk == RCC_USBCLKSOURCE_PLL)
1222:Drivers/STM32F3xx_HAL_Driver/Src/stm32f3xx_hal_rcc_ex.c ****         {
1223:Drivers/STM32F3xx_HAL_Driver/Src/stm32f3xx_hal_rcc_ex.c ****           frequency = RCC_GetPLLCLKFreq();
1224:Drivers/STM32F3xx_HAL_Driver/Src/stm32f3xx_hal_rcc_ex.c ****         }
1225:Drivers/STM32F3xx_HAL_Driver/Src/stm32f3xx_hal_rcc_ex.c ****         /* Check if USB clock selection is divided by 1.5 */
1226:Drivers/STM32F3xx_HAL_Driver/Src/stm32f3xx_hal_rcc_ex.c ****         else /* RCC_USBCLKSOURCE_PLL_DIV1_5 */
1227:Drivers/STM32F3xx_HAL_Driver/Src/stm32f3xx_hal_rcc_ex.c ****         {
1228:Drivers/STM32F3xx_HAL_Driver/Src/stm32f3xx_hal_rcc_ex.c ****           frequency = (RCC_GetPLLCLKFreq() * 3U) / 2U;
1229:Drivers/STM32F3xx_HAL_Driver/Src/stm32f3xx_hal_rcc_ex.c ****         }
1230:Drivers/STM32F3xx_HAL_Driver/Src/stm32f3xx_hal_rcc_ex.c ****       }
1231:Drivers/STM32F3xx_HAL_Driver/Src/stm32f3xx_hal_rcc_ex.c ****       break;
1232:Drivers/STM32F3xx_HAL_Driver/Src/stm32f3xx_hal_rcc_ex.c ****     }
ARM GAS  /var/folders/b1/22c950295gx2kqj80tvj8wqc0000gn/T//ccYsOlQx.s 			page 52


1233:Drivers/STM32F3xx_HAL_Driver/Src/stm32f3xx_hal_rcc_ex.c **** #endif /* RCC_CFGR_USBPRE */
1234:Drivers/STM32F3xx_HAL_Driver/Src/stm32f3xx_hal_rcc_ex.c **** #if defined(RCC_CFGR2_ADC1PRES) || defined(RCC_CFGR_ADCPRE)
1235:Drivers/STM32F3xx_HAL_Driver/Src/stm32f3xx_hal_rcc_ex.c ****   case RCC_PERIPHCLK_ADC1:
1236:Drivers/STM32F3xx_HAL_Driver/Src/stm32f3xx_hal_rcc_ex.c ****     {
1237:Drivers/STM32F3xx_HAL_Driver/Src/stm32f3xx_hal_rcc_ex.c ****       /* Get the current ADC1 source */
1238:Drivers/STM32F3xx_HAL_Driver/Src/stm32f3xx_hal_rcc_ex.c ****       srcclk = __HAL_RCC_GET_ADC1_SOURCE();
1239:Drivers/STM32F3xx_HAL_Driver/Src/stm32f3xx_hal_rcc_ex.c **** #if defined(RCC_CFGR2_ADC1PRES)
1240:Drivers/STM32F3xx_HAL_Driver/Src/stm32f3xx_hal_rcc_ex.c ****       /* Check if ADC1 clock selection is AHB */
1241:Drivers/STM32F3xx_HAL_Driver/Src/stm32f3xx_hal_rcc_ex.c ****       if (srcclk == RCC_ADC1PLLCLK_OFF)
1242:Drivers/STM32F3xx_HAL_Driver/Src/stm32f3xx_hal_rcc_ex.c ****       {
1243:Drivers/STM32F3xx_HAL_Driver/Src/stm32f3xx_hal_rcc_ex.c ****           frequency = SystemCoreClock;
1244:Drivers/STM32F3xx_HAL_Driver/Src/stm32f3xx_hal_rcc_ex.c ****       }
1245:Drivers/STM32F3xx_HAL_Driver/Src/stm32f3xx_hal_rcc_ex.c ****       /* PLL clock has been selected */
1246:Drivers/STM32F3xx_HAL_Driver/Src/stm32f3xx_hal_rcc_ex.c ****       else
1247:Drivers/STM32F3xx_HAL_Driver/Src/stm32f3xx_hal_rcc_ex.c ****       {
1248:Drivers/STM32F3xx_HAL_Driver/Src/stm32f3xx_hal_rcc_ex.c ****         /* Check if PLL is ready */
1249:Drivers/STM32F3xx_HAL_Driver/Src/stm32f3xx_hal_rcc_ex.c ****         if (HAL_IS_BIT_SET(RCC->CR, RCC_CR_PLLRDY))
1250:Drivers/STM32F3xx_HAL_Driver/Src/stm32f3xx_hal_rcc_ex.c ****         {
1251:Drivers/STM32F3xx_HAL_Driver/Src/stm32f3xx_hal_rcc_ex.c ****           /* Frequency is the PLL frequency divided by ADC prescaler (1U/2U/4U/6U/8U/10U/12U/16U/32
1252:Drivers/STM32F3xx_HAL_Driver/Src/stm32f3xx_hal_rcc_ex.c ****           frequency = RCC_GetPLLCLKFreq() / adc_pll_prediv_table[(srcclk >> POSITION_VAL(RCC_CFGR2_
1253:Drivers/STM32F3xx_HAL_Driver/Src/stm32f3xx_hal_rcc_ex.c ****         }
1254:Drivers/STM32F3xx_HAL_Driver/Src/stm32f3xx_hal_rcc_ex.c ****       }
1255:Drivers/STM32F3xx_HAL_Driver/Src/stm32f3xx_hal_rcc_ex.c **** #else /* RCC_CFGR_ADCPRE */
1256:Drivers/STM32F3xx_HAL_Driver/Src/stm32f3xx_hal_rcc_ex.c ****       /* ADC1 is set to PLCK2 frequency divided by 2U/4U/6U/8U */
1257:Drivers/STM32F3xx_HAL_Driver/Src/stm32f3xx_hal_rcc_ex.c ****       frequency = HAL_RCC_GetPCLK2Freq() / (((srcclk  >> POSITION_VAL(RCC_CFGR_ADCPRE)) + 1U) * 2U)
1258:Drivers/STM32F3xx_HAL_Driver/Src/stm32f3xx_hal_rcc_ex.c **** #endif /* RCC_CFGR2_ADC1PRES */
1259:Drivers/STM32F3xx_HAL_Driver/Src/stm32f3xx_hal_rcc_ex.c ****       break;
1260:Drivers/STM32F3xx_HAL_Driver/Src/stm32f3xx_hal_rcc_ex.c ****     }
1261:Drivers/STM32F3xx_HAL_Driver/Src/stm32f3xx_hal_rcc_ex.c **** #endif /* RCC_CFGR2_ADC1PRES || RCC_CFGR_ADCPRE */
1262:Drivers/STM32F3xx_HAL_Driver/Src/stm32f3xx_hal_rcc_ex.c **** #if defined(RCC_CFGR2_ADCPRE12)
1263:Drivers/STM32F3xx_HAL_Driver/Src/stm32f3xx_hal_rcc_ex.c ****   case RCC_PERIPHCLK_ADC12:
1264:Drivers/STM32F3xx_HAL_Driver/Src/stm32f3xx_hal_rcc_ex.c ****     {
1265:Drivers/STM32F3xx_HAL_Driver/Src/stm32f3xx_hal_rcc_ex.c ****       /* Get the current ADC12 source */
1266:Drivers/STM32F3xx_HAL_Driver/Src/stm32f3xx_hal_rcc_ex.c ****       srcclk = __HAL_RCC_GET_ADC12_SOURCE();
 594              		.loc 1 1266 7 view .LVU182
 595              		.loc 1 1266 16 is_stmt 0 view .LVU183
 596 0030 5549     		ldr	r1, .L106+4
 597 0032 CA6A     		ldr	r2, [r1, #44]
 598              	.LVL34:
1267:Drivers/STM32F3xx_HAL_Driver/Src/stm32f3xx_hal_rcc_ex.c ****       /* Check if ADC12 clock selection is AHB */
1268:Drivers/STM32F3xx_HAL_Driver/Src/stm32f3xx_hal_rcc_ex.c ****       if (srcclk == RCC_ADC12PLLCLK_OFF)
 599              		.loc 1 1268 7 is_stmt 1 view .LVU184
 600              		.loc 1 1268 10 is_stmt 0 view .LVU185
 601 0034 12F4F872 		ands	r2, r2, #496
 602              	.LVL35:
 603              		.loc 1 1268 10 view .LVU186
 604 0038 31D1     		bne	.L65
 605              	.LVL36:
 606              	.L68:
1269:Drivers/STM32F3xx_HAL_Driver/Src/stm32f3xx_hal_rcc_ex.c ****       {
1270:Drivers/STM32F3xx_HAL_Driver/Src/stm32f3xx_hal_rcc_ex.c ****           frequency = SystemCoreClock;
 607              		.loc 1 1270 11 is_stmt 1 view .LVU187
 608              		.loc 1 1270 21 is_stmt 0 view .LVU188
 609 003a 544B     		ldr	r3, .L106+8
 610 003c 1868     		ldr	r0, [r3]
 611              	.LVL37:
1271:Drivers/STM32F3xx_HAL_Driver/Src/stm32f3xx_hal_rcc_ex.c ****       }
ARM GAS  /var/folders/b1/22c950295gx2kqj80tvj8wqc0000gn/T//ccYsOlQx.s 			page 53


1272:Drivers/STM32F3xx_HAL_Driver/Src/stm32f3xx_hal_rcc_ex.c ****       /* PLL clock has been selected */
1273:Drivers/STM32F3xx_HAL_Driver/Src/stm32f3xx_hal_rcc_ex.c ****       else
1274:Drivers/STM32F3xx_HAL_Driver/Src/stm32f3xx_hal_rcc_ex.c ****       {
1275:Drivers/STM32F3xx_HAL_Driver/Src/stm32f3xx_hal_rcc_ex.c ****         /* Check if PLL is ready */
1276:Drivers/STM32F3xx_HAL_Driver/Src/stm32f3xx_hal_rcc_ex.c ****         if (HAL_IS_BIT_SET(RCC->CR, RCC_CR_PLLRDY))
1277:Drivers/STM32F3xx_HAL_Driver/Src/stm32f3xx_hal_rcc_ex.c ****         {
1278:Drivers/STM32F3xx_HAL_Driver/Src/stm32f3xx_hal_rcc_ex.c ****           /* Frequency is the PLL frequency divided by ADC prescaler (1U/2U/4U/6/8U/10U/12U/16U/32U
1279:Drivers/STM32F3xx_HAL_Driver/Src/stm32f3xx_hal_rcc_ex.c ****           frequency = RCC_GetPLLCLKFreq() / adc_pll_prediv_table[(srcclk >> POSITION_VAL(RCC_CFGR2_
1280:Drivers/STM32F3xx_HAL_Driver/Src/stm32f3xx_hal_rcc_ex.c ****         }
1281:Drivers/STM32F3xx_HAL_Driver/Src/stm32f3xx_hal_rcc_ex.c ****       }
1282:Drivers/STM32F3xx_HAL_Driver/Src/stm32f3xx_hal_rcc_ex.c ****       break;
1283:Drivers/STM32F3xx_HAL_Driver/Src/stm32f3xx_hal_rcc_ex.c ****     }
1284:Drivers/STM32F3xx_HAL_Driver/Src/stm32f3xx_hal_rcc_ex.c **** #endif /* RCC_CFGR2_ADCPRE12 */
1285:Drivers/STM32F3xx_HAL_Driver/Src/stm32f3xx_hal_rcc_ex.c **** #if defined(RCC_CFGR2_ADCPRE34)
1286:Drivers/STM32F3xx_HAL_Driver/Src/stm32f3xx_hal_rcc_ex.c ****   case RCC_PERIPHCLK_ADC34:
1287:Drivers/STM32F3xx_HAL_Driver/Src/stm32f3xx_hal_rcc_ex.c ****     {
1288:Drivers/STM32F3xx_HAL_Driver/Src/stm32f3xx_hal_rcc_ex.c ****       /* Get the current ADC34 source */
1289:Drivers/STM32F3xx_HAL_Driver/Src/stm32f3xx_hal_rcc_ex.c ****       srcclk = __HAL_RCC_GET_ADC34_SOURCE();
1290:Drivers/STM32F3xx_HAL_Driver/Src/stm32f3xx_hal_rcc_ex.c ****       /* Check if ADC34 clock selection is AHB */
1291:Drivers/STM32F3xx_HAL_Driver/Src/stm32f3xx_hal_rcc_ex.c ****       if (srcclk == RCC_ADC34PLLCLK_OFF)
1292:Drivers/STM32F3xx_HAL_Driver/Src/stm32f3xx_hal_rcc_ex.c ****       {
1293:Drivers/STM32F3xx_HAL_Driver/Src/stm32f3xx_hal_rcc_ex.c ****           frequency = SystemCoreClock;
1294:Drivers/STM32F3xx_HAL_Driver/Src/stm32f3xx_hal_rcc_ex.c ****       }
1295:Drivers/STM32F3xx_HAL_Driver/Src/stm32f3xx_hal_rcc_ex.c ****       /* PLL clock has been selected */
1296:Drivers/STM32F3xx_HAL_Driver/Src/stm32f3xx_hal_rcc_ex.c ****       else
1297:Drivers/STM32F3xx_HAL_Driver/Src/stm32f3xx_hal_rcc_ex.c ****       {
1298:Drivers/STM32F3xx_HAL_Driver/Src/stm32f3xx_hal_rcc_ex.c ****         /* Check if PLL is ready */
1299:Drivers/STM32F3xx_HAL_Driver/Src/stm32f3xx_hal_rcc_ex.c ****         if (HAL_IS_BIT_SET(RCC->CR, RCC_CR_PLLRDY))
1300:Drivers/STM32F3xx_HAL_Driver/Src/stm32f3xx_hal_rcc_ex.c ****         {
1301:Drivers/STM32F3xx_HAL_Driver/Src/stm32f3xx_hal_rcc_ex.c ****           /* Frequency is the PLL frequency divided by ADC prescaler (1U/2U/4U/6U/8U/10U/12U/16U/32
1302:Drivers/STM32F3xx_HAL_Driver/Src/stm32f3xx_hal_rcc_ex.c ****           frequency = RCC_GetPLLCLKFreq() / adc_pll_prediv_table[(srcclk >> POSITION_VAL(RCC_CFGR2_
1303:Drivers/STM32F3xx_HAL_Driver/Src/stm32f3xx_hal_rcc_ex.c ****         }
1304:Drivers/STM32F3xx_HAL_Driver/Src/stm32f3xx_hal_rcc_ex.c ****       }
1305:Drivers/STM32F3xx_HAL_Driver/Src/stm32f3xx_hal_rcc_ex.c ****       break;
1306:Drivers/STM32F3xx_HAL_Driver/Src/stm32f3xx_hal_rcc_ex.c ****     }
1307:Drivers/STM32F3xx_HAL_Driver/Src/stm32f3xx_hal_rcc_ex.c **** #endif /* RCC_CFGR2_ADCPRE34 */
1308:Drivers/STM32F3xx_HAL_Driver/Src/stm32f3xx_hal_rcc_ex.c **** #if defined(RCC_CFGR3_TIM1SW)
