ARM GAS  /var/folders/b1/22c950295gx2kqj80tvj8wqc0000gn/T//ccYIBijp.s 			page 1


   1              		.cpu cortex-m4
   2              		.arch armv7e-m
   3              		.fpu fpv4-sp-d16
   4              		.eabi_attribute 27, 1
   5              		.eabi_attribute 28, 1
   6              		.eabi_attribute 20, 1
   7              		.eabi_attribute 21, 1
   8              		.eabi_attribute 23, 3
   9              		.eabi_attribute 24, 1
  10              		.eabi_attribute 25, 1
  11              		.eabi_attribute 26, 1
  12              		.eabi_attribute 30, 2
  13              		.eabi_attribute 34, 1
  14              		.eabi_attribute 18, 4
  15              		.file	"stm32f3xx_hal_adc.c"
  16              		.text
  17              	.Ltext0:
  18              		.cfi_sections	.debug_frame
  19              		.section	.text.HAL_ADC_Init,"ax",%progbits
  20              		.align	1
  21              		.p2align 2,,3
  22              		.weak	HAL_ADC_Init
  23              		.syntax unified
  24              		.thumb
  25              		.thumb_func
  27              	HAL_ADC_Init:
  28              	.LVL0:
  29              	.LFB123:
  30              		.file 1 "Drivers/STM32F3xx_HAL_Driver/Src/stm32f3xx_hal_adc.c"
   1:Drivers/STM32F3xx_HAL_Driver/Src/stm32f3xx_hal_adc.c **** /**
   2:Drivers/STM32F3xx_HAL_Driver/Src/stm32f3xx_hal_adc.c ****   ******************************************************************************
   3:Drivers/STM32F3xx_HAL_Driver/Src/stm32f3xx_hal_adc.c ****   * @file    stm32f3xx_hal_adc.c
   4:Drivers/STM32F3xx_HAL_Driver/Src/stm32f3xx_hal_adc.c ****   * @author  MCD Application Team
   5:Drivers/STM32F3xx_HAL_Driver/Src/stm32f3xx_hal_adc.c ****   * @brief   This file provides firmware functions to manage the following 
   6:Drivers/STM32F3xx_HAL_Driver/Src/stm32f3xx_hal_adc.c ****   *          functionalities of the Analog to Digital Convertor (ADC)
   7:Drivers/STM32F3xx_HAL_Driver/Src/stm32f3xx_hal_adc.c ****   *          peripheral:
   8:Drivers/STM32F3xx_HAL_Driver/Src/stm32f3xx_hal_adc.c ****   *           + Initialization and de-initialization functions
   9:Drivers/STM32F3xx_HAL_Driver/Src/stm32f3xx_hal_adc.c ****   *             ++ Initialization and Configuration of ADC
  10:Drivers/STM32F3xx_HAL_Driver/Src/stm32f3xx_hal_adc.c ****   *           + Operation functions
  11:Drivers/STM32F3xx_HAL_Driver/Src/stm32f3xx_hal_adc.c ****   *             ++ Start, stop, get result of conversions of regular
  12:Drivers/STM32F3xx_HAL_Driver/Src/stm32f3xx_hal_adc.c ****   *                group, using 3 possible modes: polling, interruption or DMA.
  13:Drivers/STM32F3xx_HAL_Driver/Src/stm32f3xx_hal_adc.c ****   *           + Control functions
  14:Drivers/STM32F3xx_HAL_Driver/Src/stm32f3xx_hal_adc.c ****   *             ++ Channels configuration on regular group
  15:Drivers/STM32F3xx_HAL_Driver/Src/stm32f3xx_hal_adc.c ****   *             ++ Channels configuration on injected group
  16:Drivers/STM32F3xx_HAL_Driver/Src/stm32f3xx_hal_adc.c ****   *             ++ Analog Watchdog configuration
  17:Drivers/STM32F3xx_HAL_Driver/Src/stm32f3xx_hal_adc.c ****   *           + State functions
  18:Drivers/STM32F3xx_HAL_Driver/Src/stm32f3xx_hal_adc.c ****   *             ++ ADC state machine management
  19:Drivers/STM32F3xx_HAL_Driver/Src/stm32f3xx_hal_adc.c ****   *             ++ Interrupts and flags management
  20:Drivers/STM32F3xx_HAL_Driver/Src/stm32f3xx_hal_adc.c ****   *          Other functions (extended functions) are available in file 
  21:Drivers/STM32F3xx_HAL_Driver/Src/stm32f3xx_hal_adc.c ****   *          "stm32f3xx_hal_adc_ex.c".
  22:Drivers/STM32F3xx_HAL_Driver/Src/stm32f3xx_hal_adc.c ****   *
  23:Drivers/STM32F3xx_HAL_Driver/Src/stm32f3xx_hal_adc.c ****   @verbatim
  24:Drivers/STM32F3xx_HAL_Driver/Src/stm32f3xx_hal_adc.c ****   ==============================================================================
  25:Drivers/STM32F3xx_HAL_Driver/Src/stm32f3xx_hal_adc.c ****                      ##### ADC peripheral features #####
  26:Drivers/STM32F3xx_HAL_Driver/Src/stm32f3xx_hal_adc.c ****   ==============================================================================
  27:Drivers/STM32F3xx_HAL_Driver/Src/stm32f3xx_hal_adc.c ****   [..] 
  28:Drivers/STM32F3xx_HAL_Driver/Src/stm32f3xx_hal_adc.c ****   (+) 12-bit, 10-bit, 8-bit or 6-bit configurable resolution (available only on 
ARM GAS  /var/folders/b1/22c950295gx2kqj80tvj8wqc0000gn/T//ccYIBijp.s 			page 2


  29:Drivers/STM32F3xx_HAL_Driver/Src/stm32f3xx_hal_adc.c ****       STM32F30xxC devices).
  30:Drivers/STM32F3xx_HAL_Driver/Src/stm32f3xx_hal_adc.c **** 
  31:Drivers/STM32F3xx_HAL_Driver/Src/stm32f3xx_hal_adc.c ****   (+) Interrupt generation at the end of regular conversion, end of injected
  32:Drivers/STM32F3xx_HAL_Driver/Src/stm32f3xx_hal_adc.c ****       conversion, and in case of analog watchdog or overrun events.
  33:Drivers/STM32F3xx_HAL_Driver/Src/stm32f3xx_hal_adc.c ****   
  34:Drivers/STM32F3xx_HAL_Driver/Src/stm32f3xx_hal_adc.c ****   (+) Single and continuous conversion modes.
  35:Drivers/STM32F3xx_HAL_Driver/Src/stm32f3xx_hal_adc.c ****   
  36:Drivers/STM32F3xx_HAL_Driver/Src/stm32f3xx_hal_adc.c ****   (+) Scan mode for conversion of several channels sequentially.
  37:Drivers/STM32F3xx_HAL_Driver/Src/stm32f3xx_hal_adc.c ****   
  38:Drivers/STM32F3xx_HAL_Driver/Src/stm32f3xx_hal_adc.c ****   (+) Data alignment with in-built data coherency.
  39:Drivers/STM32F3xx_HAL_Driver/Src/stm32f3xx_hal_adc.c ****   
  40:Drivers/STM32F3xx_HAL_Driver/Src/stm32f3xx_hal_adc.c ****   (+) Programmable sampling time (channel wise)
  41:Drivers/STM32F3xx_HAL_Driver/Src/stm32f3xx_hal_adc.c ****   
  42:Drivers/STM32F3xx_HAL_Driver/Src/stm32f3xx_hal_adc.c ****   (+) ADC conversion of regular group and injected group.
  43:Drivers/STM32F3xx_HAL_Driver/Src/stm32f3xx_hal_adc.c **** 
  44:Drivers/STM32F3xx_HAL_Driver/Src/stm32f3xx_hal_adc.c ****   (+) External trigger (timer or EXTI) with configurable polarity
  45:Drivers/STM32F3xx_HAL_Driver/Src/stm32f3xx_hal_adc.c ****       for both regular and injected groups.
  46:Drivers/STM32F3xx_HAL_Driver/Src/stm32f3xx_hal_adc.c **** 
  47:Drivers/STM32F3xx_HAL_Driver/Src/stm32f3xx_hal_adc.c ****   (+) DMA request generation for transfer of conversions data of regular group.
  48:Drivers/STM32F3xx_HAL_Driver/Src/stm32f3xx_hal_adc.c **** 
  49:Drivers/STM32F3xx_HAL_Driver/Src/stm32f3xx_hal_adc.c ****   (+) Multimode dual mode (available on devices with 2 ADCs or more).
  50:Drivers/STM32F3xx_HAL_Driver/Src/stm32f3xx_hal_adc.c ****   
  51:Drivers/STM32F3xx_HAL_Driver/Src/stm32f3xx_hal_adc.c ****   (+) Configurable DMA data storage in Multimode Dual mode (available on devices
  52:Drivers/STM32F3xx_HAL_Driver/Src/stm32f3xx_hal_adc.c ****       with 2 DCs or more).
  53:Drivers/STM32F3xx_HAL_Driver/Src/stm32f3xx_hal_adc.c ****   
  54:Drivers/STM32F3xx_HAL_Driver/Src/stm32f3xx_hal_adc.c ****   (+) Configurable delay between conversions in Dual interleaved mode (available 
  55:Drivers/STM32F3xx_HAL_Driver/Src/stm32f3xx_hal_adc.c ****       on devices with 2 DCs or more).
  56:Drivers/STM32F3xx_HAL_Driver/Src/stm32f3xx_hal_adc.c ****   
  57:Drivers/STM32F3xx_HAL_Driver/Src/stm32f3xx_hal_adc.c ****   (+) ADC calibration
  58:Drivers/STM32F3xx_HAL_Driver/Src/stm32f3xx_hal_adc.c **** 
  59:Drivers/STM32F3xx_HAL_Driver/Src/stm32f3xx_hal_adc.c ****   (+) ADC channels selectable single/differential input (available only on
  60:Drivers/STM32F3xx_HAL_Driver/Src/stm32f3xx_hal_adc.c ****       STM32F30xxC devices)
  61:Drivers/STM32F3xx_HAL_Driver/Src/stm32f3xx_hal_adc.c **** 
  62:Drivers/STM32F3xx_HAL_Driver/Src/stm32f3xx_hal_adc.c ****   (+) ADC Injected sequencer&channels configuration context queue (available 
  63:Drivers/STM32F3xx_HAL_Driver/Src/stm32f3xx_hal_adc.c ****       only on STM32F30xxC devices)
  64:Drivers/STM32F3xx_HAL_Driver/Src/stm32f3xx_hal_adc.c **** 
  65:Drivers/STM32F3xx_HAL_Driver/Src/stm32f3xx_hal_adc.c ****   (+) ADC offset on injected and regular groups (offset on regular group 
  66:Drivers/STM32F3xx_HAL_Driver/Src/stm32f3xx_hal_adc.c ****       available only on STM32F30xxC devices)
  67:Drivers/STM32F3xx_HAL_Driver/Src/stm32f3xx_hal_adc.c **** 
  68:Drivers/STM32F3xx_HAL_Driver/Src/stm32f3xx_hal_adc.c ****   (+) ADC supply requirements: 2.4 V to 3.6 V at full speed and down to 1.8 V at 
  69:Drivers/STM32F3xx_HAL_Driver/Src/stm32f3xx_hal_adc.c ****       slower speed.
  70:Drivers/STM32F3xx_HAL_Driver/Src/stm32f3xx_hal_adc.c ****   
  71:Drivers/STM32F3xx_HAL_Driver/Src/stm32f3xx_hal_adc.c ****   (+) ADC input range: from Vref- (connected to Vssa) to Vref+ (connected to 
  72:Drivers/STM32F3xx_HAL_Driver/Src/stm32f3xx_hal_adc.c ****       Vdda or to an external voltage reference).
  73:Drivers/STM32F3xx_HAL_Driver/Src/stm32f3xx_hal_adc.c **** 
  74:Drivers/STM32F3xx_HAL_Driver/Src/stm32f3xx_hal_adc.c **** 
  75:Drivers/STM32F3xx_HAL_Driver/Src/stm32f3xx_hal_adc.c ****                      ##### How to use this driver #####
  76:Drivers/STM32F3xx_HAL_Driver/Src/stm32f3xx_hal_adc.c ****   ==============================================================================
  77:Drivers/STM32F3xx_HAL_Driver/Src/stm32f3xx_hal_adc.c ****     [..]
  78:Drivers/STM32F3xx_HAL_Driver/Src/stm32f3xx_hal_adc.c **** 
  79:Drivers/STM32F3xx_HAL_Driver/Src/stm32f3xx_hal_adc.c ****      *** Configuration of top level parameters related to ADC ***
  80:Drivers/STM32F3xx_HAL_Driver/Src/stm32f3xx_hal_adc.c ****      ============================================================
  81:Drivers/STM32F3xx_HAL_Driver/Src/stm32f3xx_hal_adc.c ****      [..]
  82:Drivers/STM32F3xx_HAL_Driver/Src/stm32f3xx_hal_adc.c **** 
  83:Drivers/STM32F3xx_HAL_Driver/Src/stm32f3xx_hal_adc.c ****     (#) Enable the ADC interface
  84:Drivers/STM32F3xx_HAL_Driver/Src/stm32f3xx_hal_adc.c ****       (++) As prerequisite, ADC clock must be configured at RCC top level.
  85:Drivers/STM32F3xx_HAL_Driver/Src/stm32f3xx_hal_adc.c ****       
ARM GAS  /var/folders/b1/22c950295gx2kqj80tvj8wqc0000gn/T//ccYIBijp.s 			page 3


  86:Drivers/STM32F3xx_HAL_Driver/Src/stm32f3xx_hal_adc.c ****         (++) For STM32F30x/STM32F33x devices:
  87:Drivers/STM32F3xx_HAL_Driver/Src/stm32f3xx_hal_adc.c ****              Two possible clock sources: synchronous clock derived from AHB clock 
  88:Drivers/STM32F3xx_HAL_Driver/Src/stm32f3xx_hal_adc.c ****              or asynchronous clock derived from ADC dedicated PLL 72MHz.
  89:Drivers/STM32F3xx_HAL_Driver/Src/stm32f3xx_hal_adc.c ****               - Synchronous clock is mandatory since used as ADC core clock.
  90:Drivers/STM32F3xx_HAL_Driver/Src/stm32f3xx_hal_adc.c ****                 Synchronous clock can be used optionally as ADC conversion clock, depending on ADC 
  91:Drivers/STM32F3xx_HAL_Driver/Src/stm32f3xx_hal_adc.c ****                 Synchronous clock is configured using macro __ADCx_CLK_ENABLE().
  92:Drivers/STM32F3xx_HAL_Driver/Src/stm32f3xx_hal_adc.c ****               - Asynchronous can be used optionally as ADC conversion clock, depending on ADC init 
  93:Drivers/STM32F3xx_HAL_Driver/Src/stm32f3xx_hal_adc.c ****                 Asynchronous clock is configured using function HAL_RCCEx_PeriphCLKConfig().
  94:Drivers/STM32F3xx_HAL_Driver/Src/stm32f3xx_hal_adc.c ****              (+++) For example, in case of device with a single ADC:
  95:Drivers/STM32F3xx_HAL_Driver/Src/stm32f3xx_hal_adc.c ****                    Into HAL_ADC_MspInit() (recommended code location) or with
  96:Drivers/STM32F3xx_HAL_Driver/Src/stm32f3xx_hal_adc.c ****                    other device clock parameters configuration:
  97:Drivers/STM32F3xx_HAL_Driver/Src/stm32f3xx_hal_adc.c ****                (+++) __HAL_RCC_ADC1_CLK_ENABLE()                            (mandatory)
  98:Drivers/STM32F3xx_HAL_Driver/Src/stm32f3xx_hal_adc.c ****                (+++) PeriphClkInit.PeriphClockSelection = RCC_PERIPHCLK_ADC (optional, if ADC conve
  99:Drivers/STM32F3xx_HAL_Driver/Src/stm32f3xx_hal_adc.c ****                (+++) PeriphClkInit.Adc1ClockSelection = RCC_ADC1PLLCLK_DIV1 (optional, if ADC conve
 100:Drivers/STM32F3xx_HAL_Driver/Src/stm32f3xx_hal_adc.c ****                (+++) HAL_RCCEx_PeriphCLKConfig(&RCC_PeriphClkInitStructure) (optional, if ADC conve
 101:Drivers/STM32F3xx_HAL_Driver/Src/stm32f3xx_hal_adc.c **** 
 102:Drivers/STM32F3xx_HAL_Driver/Src/stm32f3xx_hal_adc.c ****              (+++) For example, in case of device with 4 ADCs:
 103:Drivers/STM32F3xx_HAL_Driver/Src/stm32f3xx_hal_adc.c **** 
 104:Drivers/STM32F3xx_HAL_Driver/Src/stm32f3xx_hal_adc.c ****                (+++) if((hadc->Instance == ADC1) || (hadc->Instance == ADC2))   
 105:Drivers/STM32F3xx_HAL_Driver/Src/stm32f3xx_hal_adc.c ****                (+++) {                                                          
 106:Drivers/STM32F3xx_HAL_Driver/Src/stm32f3xx_hal_adc.c ****                (+++)   __HAL_RCC_ADC12_CLK_ENABLE()                             (mandatory)
 107:Drivers/STM32F3xx_HAL_Driver/Src/stm32f3xx_hal_adc.c ****                (+++)   PeriphClkInit.PeriphClockSelection = RCC_PERIPHCLK_ADC   (optional, if ADC c
 108:Drivers/STM32F3xx_HAL_Driver/Src/stm32f3xx_hal_adc.c ****                (+++)   PeriphClkInit.Adc12ClockSelection = RCC_ADC12PLLCLK_DIV1 (optional, if ADC c
 109:Drivers/STM32F3xx_HAL_Driver/Src/stm32f3xx_hal_adc.c ****                (+++)   HAL_RCCEx_PeriphCLKConfig(&RCC_PeriphClkInitStructure)   (optional, if ADC c
 110:Drivers/STM32F3xx_HAL_Driver/Src/stm32f3xx_hal_adc.c ****                (+++) }                                                          
 111:Drivers/STM32F3xx_HAL_Driver/Src/stm32f3xx_hal_adc.c ****                (+++) else                                                       
 112:Drivers/STM32F3xx_HAL_Driver/Src/stm32f3xx_hal_adc.c ****                (+++) {                                                          
 113:Drivers/STM32F3xx_HAL_Driver/Src/stm32f3xx_hal_adc.c ****                (+++)   __HAL_RCC_ADC34_CLK_ENABLE()                              (mandatory)
 114:Drivers/STM32F3xx_HAL_Driver/Src/stm32f3xx_hal_adc.c ****                (+++)   PeriphClkInit.Adc34ClockSelection = RCC_ADC34PLLCLK_DIV1; (optional, if ADC 
 115:Drivers/STM32F3xx_HAL_Driver/Src/stm32f3xx_hal_adc.c ****                (+++)   HAL_RCCEx_PeriphCLKConfig(&RCC_PeriphClkInitStructure);   (optional, if ADC 
 116:Drivers/STM32F3xx_HAL_Driver/Src/stm32f3xx_hal_adc.c ****                (+++) }                                                          
 117:Drivers/STM32F3xx_HAL_Driver/Src/stm32f3xx_hal_adc.c ****       
 118:Drivers/STM32F3xx_HAL_Driver/Src/stm32f3xx_hal_adc.c ****         (++) For STM32F37x devices:
 119:Drivers/STM32F3xx_HAL_Driver/Src/stm32f3xx_hal_adc.c ****              One clock setting is mandatory: 
 120:Drivers/STM32F3xx_HAL_Driver/Src/stm32f3xx_hal_adc.c ****              ADC clock (core and conversion clock) from APB2 clock.
 121:Drivers/STM32F3xx_HAL_Driver/Src/stm32f3xx_hal_adc.c ****              (+++) Example:
 122:Drivers/STM32F3xx_HAL_Driver/Src/stm32f3xx_hal_adc.c ****                    Into HAL_ADC_MspInit() (recommended code location) or with
 123:Drivers/STM32F3xx_HAL_Driver/Src/stm32f3xx_hal_adc.c ****                    other device clock parameters configuration:
 124:Drivers/STM32F3xx_HAL_Driver/Src/stm32f3xx_hal_adc.c ****                (+++) PeriphClkInit.PeriphClockSelection = RCC_PERIPHCLK_ADC
 125:Drivers/STM32F3xx_HAL_Driver/Src/stm32f3xx_hal_adc.c ****                (+++) PeriphClkInit.AdcClockSelection = RCC_ADCPLLCLK_DIV2
 126:Drivers/STM32F3xx_HAL_Driver/Src/stm32f3xx_hal_adc.c ****                (+++) HAL_RCCEx_PeriphCLKConfig(&PeriphClkInit)
 127:Drivers/STM32F3xx_HAL_Driver/Src/stm32f3xx_hal_adc.c **** 
 128:Drivers/STM32F3xx_HAL_Driver/Src/stm32f3xx_hal_adc.c ****     (#) ADC pins configuration
 129:Drivers/STM32F3xx_HAL_Driver/Src/stm32f3xx_hal_adc.c ****          (++) Enable the clock for the ADC GPIOs
 130:Drivers/STM32F3xx_HAL_Driver/Src/stm32f3xx_hal_adc.c ****               using macro __HAL_RCC_GPIOx_CLK_ENABLE()
 131:Drivers/STM32F3xx_HAL_Driver/Src/stm32f3xx_hal_adc.c ****          (++) Configure these ADC pins in analog mode
 132:Drivers/STM32F3xx_HAL_Driver/Src/stm32f3xx_hal_adc.c ****               using function HAL_GPIO_Init()
 133:Drivers/STM32F3xx_HAL_Driver/Src/stm32f3xx_hal_adc.c **** 
 134:Drivers/STM32F3xx_HAL_Driver/Src/stm32f3xx_hal_adc.c ****     (#) Optionally, in case of usage of ADC with interruptions:
 135:Drivers/STM32F3xx_HAL_Driver/Src/stm32f3xx_hal_adc.c ****          (++) Configure the NVIC for ADC
 136:Drivers/STM32F3xx_HAL_Driver/Src/stm32f3xx_hal_adc.c ****               using function HAL_NVIC_EnableIRQ(ADCx_IRQn)
 137:Drivers/STM32F3xx_HAL_Driver/Src/stm32f3xx_hal_adc.c ****          (++) Insert the ADC interruption handler function HAL_ADC_IRQHandler() 
 138:Drivers/STM32F3xx_HAL_Driver/Src/stm32f3xx_hal_adc.c ****               into the function of corresponding ADC interruption vector 
 139:Drivers/STM32F3xx_HAL_Driver/Src/stm32f3xx_hal_adc.c ****               ADCx_IRQHandler().
 140:Drivers/STM32F3xx_HAL_Driver/Src/stm32f3xx_hal_adc.c **** 
 141:Drivers/STM32F3xx_HAL_Driver/Src/stm32f3xx_hal_adc.c ****     (#) Optionally, in case of usage of DMA:
 142:Drivers/STM32F3xx_HAL_Driver/Src/stm32f3xx_hal_adc.c ****          (++) Configure the DMA (DMA channel, mode normal or circular, ...)
ARM GAS  /var/folders/b1/22c950295gx2kqj80tvj8wqc0000gn/T//ccYIBijp.s 			page 4


 143:Drivers/STM32F3xx_HAL_Driver/Src/stm32f3xx_hal_adc.c ****               using function HAL_DMA_Init().
 144:Drivers/STM32F3xx_HAL_Driver/Src/stm32f3xx_hal_adc.c ****          (++) Configure the NVIC for DMA
 145:Drivers/STM32F3xx_HAL_Driver/Src/stm32f3xx_hal_adc.c ****               using function HAL_NVIC_EnableIRQ(DMAx_Channelx_IRQn)
 146:Drivers/STM32F3xx_HAL_Driver/Src/stm32f3xx_hal_adc.c ****          (++) Insert the ADC interruption handler function HAL_ADC_IRQHandler() 
 147:Drivers/STM32F3xx_HAL_Driver/Src/stm32f3xx_hal_adc.c ****               into the function of corresponding DMA interruption vector 
 148:Drivers/STM32F3xx_HAL_Driver/Src/stm32f3xx_hal_adc.c ****               DMAx_Channelx_IRQHandler().
 149:Drivers/STM32F3xx_HAL_Driver/Src/stm32f3xx_hal_adc.c **** 
 150:Drivers/STM32F3xx_HAL_Driver/Src/stm32f3xx_hal_adc.c ****      *** Configuration of ADC, groups regular/injected, channels parameters ***
 151:Drivers/STM32F3xx_HAL_Driver/Src/stm32f3xx_hal_adc.c ****      ==========================================================================
 152:Drivers/STM32F3xx_HAL_Driver/Src/stm32f3xx_hal_adc.c ****      [..]
 153:Drivers/STM32F3xx_HAL_Driver/Src/stm32f3xx_hal_adc.c **** 
 154:Drivers/STM32F3xx_HAL_Driver/Src/stm32f3xx_hal_adc.c ****     (#) Configure the ADC parameters (resolution, data alignment, ...)
 155:Drivers/STM32F3xx_HAL_Driver/Src/stm32f3xx_hal_adc.c ****         and regular group parameters (conversion trigger, sequencer, ...)
 156:Drivers/STM32F3xx_HAL_Driver/Src/stm32f3xx_hal_adc.c ****         using function HAL_ADC_Init().
 157:Drivers/STM32F3xx_HAL_Driver/Src/stm32f3xx_hal_adc.c **** 
 158:Drivers/STM32F3xx_HAL_Driver/Src/stm32f3xx_hal_adc.c ****     (#) Configure the channels for regular group parameters (channel number, 
 159:Drivers/STM32F3xx_HAL_Driver/Src/stm32f3xx_hal_adc.c ****         channel rank into sequencer, ..., into regular group)
 160:Drivers/STM32F3xx_HAL_Driver/Src/stm32f3xx_hal_adc.c ****         using function HAL_ADC_ConfigChannel().
 161:Drivers/STM32F3xx_HAL_Driver/Src/stm32f3xx_hal_adc.c **** 
 162:Drivers/STM32F3xx_HAL_Driver/Src/stm32f3xx_hal_adc.c ****     (#) Optionally, configure the injected group parameters (conversion trigger, 
 163:Drivers/STM32F3xx_HAL_Driver/Src/stm32f3xx_hal_adc.c ****         sequencer, ..., of injected group)
 164:Drivers/STM32F3xx_HAL_Driver/Src/stm32f3xx_hal_adc.c ****         and the channels for injected group parameters (channel number, 
 165:Drivers/STM32F3xx_HAL_Driver/Src/stm32f3xx_hal_adc.c ****         channel rank into sequencer, ..., into injected group)
 166:Drivers/STM32F3xx_HAL_Driver/Src/stm32f3xx_hal_adc.c ****         using function HAL_ADCEx_InjectedConfigChannel().
 167:Drivers/STM32F3xx_HAL_Driver/Src/stm32f3xx_hal_adc.c **** 
 168:Drivers/STM32F3xx_HAL_Driver/Src/stm32f3xx_hal_adc.c ****     (#) Optionally, configure the analog watchdog parameters (channels
 169:Drivers/STM32F3xx_HAL_Driver/Src/stm32f3xx_hal_adc.c ****         monitored, thresholds, ...)
 170:Drivers/STM32F3xx_HAL_Driver/Src/stm32f3xx_hal_adc.c ****         using function HAL_ADC_AnalogWDGConfig().
 171:Drivers/STM32F3xx_HAL_Driver/Src/stm32f3xx_hal_adc.c **** 
 172:Drivers/STM32F3xx_HAL_Driver/Src/stm32f3xx_hal_adc.c ****     (#) Optionally, for devices with several ADC instances: configure the 
 173:Drivers/STM32F3xx_HAL_Driver/Src/stm32f3xx_hal_adc.c ****         multimode parameters
 174:Drivers/STM32F3xx_HAL_Driver/Src/stm32f3xx_hal_adc.c ****         using function HAL_ADCEx_MultiModeConfigChannel().
 175:Drivers/STM32F3xx_HAL_Driver/Src/stm32f3xx_hal_adc.c **** 
 176:Drivers/STM32F3xx_HAL_Driver/Src/stm32f3xx_hal_adc.c ****      *** Execution of ADC conversions ***
 177:Drivers/STM32F3xx_HAL_Driver/Src/stm32f3xx_hal_adc.c ****      ====================================
 178:Drivers/STM32F3xx_HAL_Driver/Src/stm32f3xx_hal_adc.c ****      [..]
 179:Drivers/STM32F3xx_HAL_Driver/Src/stm32f3xx_hal_adc.c **** 
 180:Drivers/STM32F3xx_HAL_Driver/Src/stm32f3xx_hal_adc.c ****     (#) Optionally, perform an automatic ADC calibration to improve the
 181:Drivers/STM32F3xx_HAL_Driver/Src/stm32f3xx_hal_adc.c ****         conversion accuracy
 182:Drivers/STM32F3xx_HAL_Driver/Src/stm32f3xx_hal_adc.c ****         using function HAL_ADCEx_Calibration_Start().
 183:Drivers/STM32F3xx_HAL_Driver/Src/stm32f3xx_hal_adc.c **** 
 184:Drivers/STM32F3xx_HAL_Driver/Src/stm32f3xx_hal_adc.c ****     (#) ADC driver can be used among three modes: polling, interruption,
 185:Drivers/STM32F3xx_HAL_Driver/Src/stm32f3xx_hal_adc.c ****         transfer by DMA.
 186:Drivers/STM32F3xx_HAL_Driver/Src/stm32f3xx_hal_adc.c **** 
 187:Drivers/STM32F3xx_HAL_Driver/Src/stm32f3xx_hal_adc.c ****         (++) ADC conversion by polling:
 188:Drivers/STM32F3xx_HAL_Driver/Src/stm32f3xx_hal_adc.c ****           (+++) Activate the ADC peripheral and start conversions
 189:Drivers/STM32F3xx_HAL_Driver/Src/stm32f3xx_hal_adc.c ****                 using function HAL_ADC_Start()
 190:Drivers/STM32F3xx_HAL_Driver/Src/stm32f3xx_hal_adc.c ****           (+++) Wait for ADC conversion completion 
 191:Drivers/STM32F3xx_HAL_Driver/Src/stm32f3xx_hal_adc.c ****                 using function HAL_ADC_PollForConversion()
 192:Drivers/STM32F3xx_HAL_Driver/Src/stm32f3xx_hal_adc.c ****                 (or for injected group: HAL_ADCEx_InjectedPollForConversion() )
 193:Drivers/STM32F3xx_HAL_Driver/Src/stm32f3xx_hal_adc.c ****           (+++) Retrieve conversion results 
 194:Drivers/STM32F3xx_HAL_Driver/Src/stm32f3xx_hal_adc.c ****                 using function HAL_ADC_GetValue()
 195:Drivers/STM32F3xx_HAL_Driver/Src/stm32f3xx_hal_adc.c ****                 (or for injected group: HAL_ADCEx_InjectedGetValue() )
 196:Drivers/STM32F3xx_HAL_Driver/Src/stm32f3xx_hal_adc.c ****           (+++) Stop conversion and disable the ADC peripheral 
 197:Drivers/STM32F3xx_HAL_Driver/Src/stm32f3xx_hal_adc.c ****                 using function HAL_ADC_Stop()
 198:Drivers/STM32F3xx_HAL_Driver/Src/stm32f3xx_hal_adc.c **** 
 199:Drivers/STM32F3xx_HAL_Driver/Src/stm32f3xx_hal_adc.c ****         (++) ADC conversion by interruption: 
ARM GAS  /var/folders/b1/22c950295gx2kqj80tvj8wqc0000gn/T//ccYIBijp.s 			page 5


 200:Drivers/STM32F3xx_HAL_Driver/Src/stm32f3xx_hal_adc.c ****           (+++) Activate the ADC peripheral and start conversions
 201:Drivers/STM32F3xx_HAL_Driver/Src/stm32f3xx_hal_adc.c ****                 using function HAL_ADC_Start_IT()
 202:Drivers/STM32F3xx_HAL_Driver/Src/stm32f3xx_hal_adc.c ****           (+++) Wait for ADC conversion completion by call of function
 203:Drivers/STM32F3xx_HAL_Driver/Src/stm32f3xx_hal_adc.c ****                 HAL_ADC_ConvCpltCallback()
 204:Drivers/STM32F3xx_HAL_Driver/Src/stm32f3xx_hal_adc.c ****                 (this function must be implemented in user program)
 205:Drivers/STM32F3xx_HAL_Driver/Src/stm32f3xx_hal_adc.c ****                 (or for injected group: HAL_ADCEx_InjectedConvCpltCallback() )
 206:Drivers/STM32F3xx_HAL_Driver/Src/stm32f3xx_hal_adc.c ****           (+++) Retrieve conversion results 
 207:Drivers/STM32F3xx_HAL_Driver/Src/stm32f3xx_hal_adc.c ****                 using function HAL_ADC_GetValue()
 208:Drivers/STM32F3xx_HAL_Driver/Src/stm32f3xx_hal_adc.c ****                 (or for injected group: HAL_ADCEx_InjectedGetValue() )
 209:Drivers/STM32F3xx_HAL_Driver/Src/stm32f3xx_hal_adc.c ****           (+++) Stop conversion and disable the ADC peripheral 
 210:Drivers/STM32F3xx_HAL_Driver/Src/stm32f3xx_hal_adc.c ****                 using function HAL_ADC_Stop_IT()
 211:Drivers/STM32F3xx_HAL_Driver/Src/stm32f3xx_hal_adc.c **** 
 212:Drivers/STM32F3xx_HAL_Driver/Src/stm32f3xx_hal_adc.c ****         (++) ADC conversion with transfer by DMA:
 213:Drivers/STM32F3xx_HAL_Driver/Src/stm32f3xx_hal_adc.c ****           (+++) Activate the ADC peripheral and start conversions
 214:Drivers/STM32F3xx_HAL_Driver/Src/stm32f3xx_hal_adc.c ****                 using function HAL_ADC_Start_DMA()
 215:Drivers/STM32F3xx_HAL_Driver/Src/stm32f3xx_hal_adc.c ****           (+++) Wait for ADC conversion completion by call of function
 216:Drivers/STM32F3xx_HAL_Driver/Src/stm32f3xx_hal_adc.c ****                 HAL_ADC_ConvCpltCallback() or HAL_ADC_ConvHalfCpltCallback()
 217:Drivers/STM32F3xx_HAL_Driver/Src/stm32f3xx_hal_adc.c ****                 (these functions must be implemented in user program)
 218:Drivers/STM32F3xx_HAL_Driver/Src/stm32f3xx_hal_adc.c ****           (+++) Conversion results are automatically transferred by DMA into
 219:Drivers/STM32F3xx_HAL_Driver/Src/stm32f3xx_hal_adc.c ****                 destination variable address.
 220:Drivers/STM32F3xx_HAL_Driver/Src/stm32f3xx_hal_adc.c ****           (+++) Stop conversion and disable the ADC peripheral 
 221:Drivers/STM32F3xx_HAL_Driver/Src/stm32f3xx_hal_adc.c ****                 using function HAL_ADC_Stop_DMA()
 222:Drivers/STM32F3xx_HAL_Driver/Src/stm32f3xx_hal_adc.c **** 
 223:Drivers/STM32F3xx_HAL_Driver/Src/stm32f3xx_hal_adc.c ****         (++) For devices with several ADCs: ADC multimode conversion 
 224:Drivers/STM32F3xx_HAL_Driver/Src/stm32f3xx_hal_adc.c ****              with transfer by DMA:
 225:Drivers/STM32F3xx_HAL_Driver/Src/stm32f3xx_hal_adc.c ****           (+++) Activate the ADC peripheral (slave)
 226:Drivers/STM32F3xx_HAL_Driver/Src/stm32f3xx_hal_adc.c ****                 using function HAL_ADC_Start()
 227:Drivers/STM32F3xx_HAL_Driver/Src/stm32f3xx_hal_adc.c ****                 (conversion start pending ADC master)
 228:Drivers/STM32F3xx_HAL_Driver/Src/stm32f3xx_hal_adc.c ****           (+++) Activate the ADC peripheral (master) and start conversions
 229:Drivers/STM32F3xx_HAL_Driver/Src/stm32f3xx_hal_adc.c ****                 using function HAL_ADCEx_MultiModeStart_DMA()
 230:Drivers/STM32F3xx_HAL_Driver/Src/stm32f3xx_hal_adc.c ****           (+++) Wait for ADC conversion completion by call of function
 231:Drivers/STM32F3xx_HAL_Driver/Src/stm32f3xx_hal_adc.c ****                 HAL_ADC_ConvCpltCallback() or HAL_ADC_ConvHalfCpltCallback()
 232:Drivers/STM32F3xx_HAL_Driver/Src/stm32f3xx_hal_adc.c ****                 (these functions must be implemented in user program)
 233:Drivers/STM32F3xx_HAL_Driver/Src/stm32f3xx_hal_adc.c ****           (+++) Conversion results are automatically transferred by DMA into
 234:Drivers/STM32F3xx_HAL_Driver/Src/stm32f3xx_hal_adc.c ****                 destination variable address.
 235:Drivers/STM32F3xx_HAL_Driver/Src/stm32f3xx_hal_adc.c ****           (+++) Stop conversion and disable the ADC peripheral (master)
 236:Drivers/STM32F3xx_HAL_Driver/Src/stm32f3xx_hal_adc.c ****                 using function HAL_ADCEx_MultiModeStop_DMA()
 237:Drivers/STM32F3xx_HAL_Driver/Src/stm32f3xx_hal_adc.c ****           (+++) Stop conversion and disable the ADC peripheral (slave)
 238:Drivers/STM32F3xx_HAL_Driver/Src/stm32f3xx_hal_adc.c ****                 using function HAL_ADC_Stop_IT()
 239:Drivers/STM32F3xx_HAL_Driver/Src/stm32f3xx_hal_adc.c **** 
 240:Drivers/STM32F3xx_HAL_Driver/Src/stm32f3xx_hal_adc.c ****      [..]
 241:Drivers/STM32F3xx_HAL_Driver/Src/stm32f3xx_hal_adc.c **** 
 242:Drivers/STM32F3xx_HAL_Driver/Src/stm32f3xx_hal_adc.c ****     (@) Callback functions must be implemented in user program:
 243:Drivers/STM32F3xx_HAL_Driver/Src/stm32f3xx_hal_adc.c ****       (+@) HAL_ADC_ErrorCallback()
 244:Drivers/STM32F3xx_HAL_Driver/Src/stm32f3xx_hal_adc.c ****       (+@) HAL_ADC_LevelOutOfWindowCallback() (callback of analog watchdog)
 245:Drivers/STM32F3xx_HAL_Driver/Src/stm32f3xx_hal_adc.c ****       (+@) HAL_ADC_ConvCpltCallback()
 246:Drivers/STM32F3xx_HAL_Driver/Src/stm32f3xx_hal_adc.c ****       (+@) HAL_ADC_ConvHalfCpltCallback
 247:Drivers/STM32F3xx_HAL_Driver/Src/stm32f3xx_hal_adc.c ****       (+@) HAL_ADCEx_InjectedConvCpltCallback()
 248:Drivers/STM32F3xx_HAL_Driver/Src/stm32f3xx_hal_adc.c ****       (+@) HAL_ADCEx_InjectedQueueOverflowCallback() (for STM32F30x/STM32F33x devices)
 249:Drivers/STM32F3xx_HAL_Driver/Src/stm32f3xx_hal_adc.c **** 
 250:Drivers/STM32F3xx_HAL_Driver/Src/stm32f3xx_hal_adc.c ****      *** Deinitialization of ADC ***
 251:Drivers/STM32F3xx_HAL_Driver/Src/stm32f3xx_hal_adc.c ****      ============================================================
 252:Drivers/STM32F3xx_HAL_Driver/Src/stm32f3xx_hal_adc.c ****      [..]
 253:Drivers/STM32F3xx_HAL_Driver/Src/stm32f3xx_hal_adc.c **** 
 254:Drivers/STM32F3xx_HAL_Driver/Src/stm32f3xx_hal_adc.c ****     (#) Disable the ADC interface
 255:Drivers/STM32F3xx_HAL_Driver/Src/stm32f3xx_hal_adc.c ****       (++) ADC clock can be hard reset and disabled at RCC top level.
 256:Drivers/STM32F3xx_HAL_Driver/Src/stm32f3xx_hal_adc.c ****         (++) Hard reset of ADC peripherals
ARM GAS  /var/folders/b1/22c950295gx2kqj80tvj8wqc0000gn/T//ccYIBijp.s 			page 6


 257:Drivers/STM32F3xx_HAL_Driver/Src/stm32f3xx_hal_adc.c ****              using macro __ADCx_FORCE_RESET(), __ADCx_RELEASE_RESET().
 258:Drivers/STM32F3xx_HAL_Driver/Src/stm32f3xx_hal_adc.c ****         (++) ADC clock disable
 259:Drivers/STM32F3xx_HAL_Driver/Src/stm32f3xx_hal_adc.c ****              using the equivalent macro/functions as configuration step.
 260:Drivers/STM32F3xx_HAL_Driver/Src/stm32f3xx_hal_adc.c **** 
 261:Drivers/STM32F3xx_HAL_Driver/Src/stm32f3xx_hal_adc.c ****         (++) For STM32F30x/STM32F33x devices:
 262:Drivers/STM32F3xx_HAL_Driver/Src/stm32f3xx_hal_adc.c ****            Caution: For devices with several ADCs:
 263:Drivers/STM32F3xx_HAL_Driver/Src/stm32f3xx_hal_adc.c ****            These settings impact both ADC of common group: ADC1&ADC2, ADC3&ADC4
 264:Drivers/STM32F3xx_HAL_Driver/Src/stm32f3xx_hal_adc.c ****            if available (ADC2, ADC3, ADC4 availability depends on STM32 product)
 265:Drivers/STM32F3xx_HAL_Driver/Src/stm32f3xx_hal_adc.c **** 
 266:Drivers/STM32F3xx_HAL_Driver/Src/stm32f3xx_hal_adc.c ****              (+++) For example, in case of device with a single ADC:
 267:Drivers/STM32F3xx_HAL_Driver/Src/stm32f3xx_hal_adc.c ****                    Into HAL_ADC_MspDeInit() (recommended code location) or with
 268:Drivers/STM32F3xx_HAL_Driver/Src/stm32f3xx_hal_adc.c ****                    other device clock parameters configuration:
 269:Drivers/STM32F3xx_HAL_Driver/Src/stm32f3xx_hal_adc.c ****                (+++) __HAL_RCC_ADC1_FORCE_RESET()                           (optional)
 270:Drivers/STM32F3xx_HAL_Driver/Src/stm32f3xx_hal_adc.c ****                (+++) __HAL_RCC_ADC1_RELEASE_RESET()                         (optional)
 271:Drivers/STM32F3xx_HAL_Driver/Src/stm32f3xx_hal_adc.c ****                (+++) __HAL_RCC_ADC1_CLK_DISABLE()                           (mandatory)
 272:Drivers/STM32F3xx_HAL_Driver/Src/stm32f3xx_hal_adc.c ****                (+++) PeriphClkInit.PeriphClockSelection = RCC_PERIPHCLK_ADC (optional, if configure
 273:Drivers/STM32F3xx_HAL_Driver/Src/stm32f3xx_hal_adc.c ****                (+++) PeriphClkInit.Adc1ClockSelection = RCC_ADC1PLLCLK_OFF  (optional, if configure
 274:Drivers/STM32F3xx_HAL_Driver/Src/stm32f3xx_hal_adc.c ****                (+++) HAL_RCCEx_PeriphCLKConfig(&RCC_PeriphClkInitStructure) (optional, if configure
 275:Drivers/STM32F3xx_HAL_Driver/Src/stm32f3xx_hal_adc.c **** 
 276:Drivers/STM32F3xx_HAL_Driver/Src/stm32f3xx_hal_adc.c ****              (+++) For example, in case of device with 4 ADCs:
 277:Drivers/STM32F3xx_HAL_Driver/Src/stm32f3xx_hal_adc.c ****                (+++) if((hadc->Instance == ADC1) || (hadc->Instance == ADC2))   
 278:Drivers/STM32F3xx_HAL_Driver/Src/stm32f3xx_hal_adc.c ****                (+++) {                                                          
 279:Drivers/STM32F3xx_HAL_Driver/Src/stm32f3xx_hal_adc.c ****                (+++)   __HAL_RCC_ADC12_FORCE_RESET()                            (optional)
 280:Drivers/STM32F3xx_HAL_Driver/Src/stm32f3xx_hal_adc.c ****                (+++)   __HAL_RCC_ADC12_RELEASE_RESET()                          (optional)
 281:Drivers/STM32F3xx_HAL_Driver/Src/stm32f3xx_hal_adc.c ****                (+++)   __HAL_RCC_ADC12_CLK_DISABLE()                            (mandatory)
 282:Drivers/STM32F3xx_HAL_Driver/Src/stm32f3xx_hal_adc.c ****                (+++)   PeriphClkInit.PeriphClockSelection = RCC_PERIPHCLK_ADC   (optional, if confi
 283:Drivers/STM32F3xx_HAL_Driver/Src/stm32f3xx_hal_adc.c ****                (+++)   PeriphClkInit.Adc12ClockSelection = RCC_ADC12PLLCLK_OFF  (optional, if confi
 284:Drivers/STM32F3xx_HAL_Driver/Src/stm32f3xx_hal_adc.c ****                (+++)   HAL_RCCEx_PeriphCLKConfig(&RCC_PeriphClkInitStructure)   (optional, if confi
 285:Drivers/STM32F3xx_HAL_Driver/Src/stm32f3xx_hal_adc.c ****                (+++) }                                                          
 286:Drivers/STM32F3xx_HAL_Driver/Src/stm32f3xx_hal_adc.c ****                (+++) else                                                       
 287:Drivers/STM32F3xx_HAL_Driver/Src/stm32f3xx_hal_adc.c ****                (+++) {                                                          
 288:Drivers/STM32F3xx_HAL_Driver/Src/stm32f3xx_hal_adc.c ****                (+++)   __HAL_RCC_ADC32_FORCE_RESET()                            (optional)
 289:Drivers/STM32F3xx_HAL_Driver/Src/stm32f3xx_hal_adc.c ****                (+++)   __HAL_RCC_ADC32_RELEASE_RESET()                          (optional)
 290:Drivers/STM32F3xx_HAL_Driver/Src/stm32f3xx_hal_adc.c ****                (+++)   __HAL_RCC_ADC34_CLK_DISABLE()                            (mandatory)
 291:Drivers/STM32F3xx_HAL_Driver/Src/stm32f3xx_hal_adc.c ****                (+++)   PeriphClkInit.Adc34ClockSelection = RCC_ADC34PLLCLK_OFF  (optional, if confi
 292:Drivers/STM32F3xx_HAL_Driver/Src/stm32f3xx_hal_adc.c ****                (+++)   HAL_RCCEx_PeriphCLKConfig(&RCC_PeriphClkInitStructure)   (optional, if confi
 293:Drivers/STM32F3xx_HAL_Driver/Src/stm32f3xx_hal_adc.c ****                (+++) }                                                          
 294:Drivers/STM32F3xx_HAL_Driver/Src/stm32f3xx_hal_adc.c ****       
 295:Drivers/STM32F3xx_HAL_Driver/Src/stm32f3xx_hal_adc.c ****         (++) For STM32F37x devices:
 296:Drivers/STM32F3xx_HAL_Driver/Src/stm32f3xx_hal_adc.c ****              (+++) Example:
 297:Drivers/STM32F3xx_HAL_Driver/Src/stm32f3xx_hal_adc.c ****                    Into HAL_ADC_MspDeInit() (recommended code location) or with
 298:Drivers/STM32F3xx_HAL_Driver/Src/stm32f3xx_hal_adc.c ****                    other device clock parameters configuration:
 299:Drivers/STM32F3xx_HAL_Driver/Src/stm32f3xx_hal_adc.c ****                (+++) PeriphClkInit.PeriphClockSelection = RCC_PERIPHCLK_ADC
 300:Drivers/STM32F3xx_HAL_Driver/Src/stm32f3xx_hal_adc.c ****                (+++) PeriphClkInit.AdcClockSelection = RCC_ADCPLLCLK_OFF
 301:Drivers/STM32F3xx_HAL_Driver/Src/stm32f3xx_hal_adc.c ****                (+++) HAL_RCCEx_PeriphCLKConfig(&PeriphClkInit)
 302:Drivers/STM32F3xx_HAL_Driver/Src/stm32f3xx_hal_adc.c **** 
 303:Drivers/STM32F3xx_HAL_Driver/Src/stm32f3xx_hal_adc.c ****     (#) ADC pins configuration
 304:Drivers/STM32F3xx_HAL_Driver/Src/stm32f3xx_hal_adc.c ****          (++) Disable the clock for the ADC GPIOs
 305:Drivers/STM32F3xx_HAL_Driver/Src/stm32f3xx_hal_adc.c ****               using macro __HAL_RCC_GPIOx_CLK_DISABLE()
 306:Drivers/STM32F3xx_HAL_Driver/Src/stm32f3xx_hal_adc.c **** 
 307:Drivers/STM32F3xx_HAL_Driver/Src/stm32f3xx_hal_adc.c ****     (#) Optionally, in case of usage of ADC with interruptions:
 308:Drivers/STM32F3xx_HAL_Driver/Src/stm32f3xx_hal_adc.c ****          (++) Disable the NVIC for ADC
 309:Drivers/STM32F3xx_HAL_Driver/Src/stm32f3xx_hal_adc.c ****               using function HAL_NVIC_DisableIRQ(ADCx_IRQn)
 310:Drivers/STM32F3xx_HAL_Driver/Src/stm32f3xx_hal_adc.c **** 
 311:Drivers/STM32F3xx_HAL_Driver/Src/stm32f3xx_hal_adc.c ****     (#) Optionally, in case of usage of DMA:
 312:Drivers/STM32F3xx_HAL_Driver/Src/stm32f3xx_hal_adc.c ****          (++) Deinitialize the DMA
 313:Drivers/STM32F3xx_HAL_Driver/Src/stm32f3xx_hal_adc.c ****               using function HAL_DMA_DeInit().
ARM GAS  /var/folders/b1/22c950295gx2kqj80tvj8wqc0000gn/T//ccYIBijp.s 			page 7


 314:Drivers/STM32F3xx_HAL_Driver/Src/stm32f3xx_hal_adc.c ****          (++) Disable the NVIC for DMA
 315:Drivers/STM32F3xx_HAL_Driver/Src/stm32f3xx_hal_adc.c ****               using function HAL_NVIC_DisableIRQ(DMAx_Channelx_IRQn)
 316:Drivers/STM32F3xx_HAL_Driver/Src/stm32f3xx_hal_adc.c **** 
 317:Drivers/STM32F3xx_HAL_Driver/Src/stm32f3xx_hal_adc.c ****     [..]
 318:Drivers/STM32F3xx_HAL_Driver/Src/stm32f3xx_hal_adc.c ****     
 319:Drivers/STM32F3xx_HAL_Driver/Src/stm32f3xx_hal_adc.c ****     *** Callback registration ***
 320:Drivers/STM32F3xx_HAL_Driver/Src/stm32f3xx_hal_adc.c ****     =============================================
 321:Drivers/STM32F3xx_HAL_Driver/Src/stm32f3xx_hal_adc.c ****     [..]
 322:Drivers/STM32F3xx_HAL_Driver/Src/stm32f3xx_hal_adc.c **** 
 323:Drivers/STM32F3xx_HAL_Driver/Src/stm32f3xx_hal_adc.c ****      The compilation flag USE_HAL_ADC_REGISTER_CALLBACKS, when set to 1,
 324:Drivers/STM32F3xx_HAL_Driver/Src/stm32f3xx_hal_adc.c ****      allows the user to configure dynamically the driver callbacks.
 325:Drivers/STM32F3xx_HAL_Driver/Src/stm32f3xx_hal_adc.c ****      Use Functions HAL_ADC_RegisterCallback()
 326:Drivers/STM32F3xx_HAL_Driver/Src/stm32f3xx_hal_adc.c ****      to register an interrupt callback.
 327:Drivers/STM32F3xx_HAL_Driver/Src/stm32f3xx_hal_adc.c ****     [..]
 328:Drivers/STM32F3xx_HAL_Driver/Src/stm32f3xx_hal_adc.c **** 
 329:Drivers/STM32F3xx_HAL_Driver/Src/stm32f3xx_hal_adc.c ****      Function HAL_ADC_RegisterCallback() allows to register following callbacks:
 330:Drivers/STM32F3xx_HAL_Driver/Src/stm32f3xx_hal_adc.c ****        (+) ConvCpltCallback               : ADC conversion complete callback
 331:Drivers/STM32F3xx_HAL_Driver/Src/stm32f3xx_hal_adc.c ****        (+) ConvHalfCpltCallback           : ADC conversion DMA half-transfer callback
 332:Drivers/STM32F3xx_HAL_Driver/Src/stm32f3xx_hal_adc.c ****        (+) LevelOutOfWindowCallback       : ADC analog watchdog 1 callback
 333:Drivers/STM32F3xx_HAL_Driver/Src/stm32f3xx_hal_adc.c ****        (+) ErrorCallback                  : ADC error callback
 334:Drivers/STM32F3xx_HAL_Driver/Src/stm32f3xx_hal_adc.c ****        (+) InjectedConvCpltCallback       : ADC group injected conversion complete callback
 335:Drivers/STM32F3xx_HAL_Driver/Src/stm32f3xx_hal_adc.c ****        (+) MspInitCallback                : ADC Msp Init callback
 336:Drivers/STM32F3xx_HAL_Driver/Src/stm32f3xx_hal_adc.c ****        (+) MspDeInitCallback              : ADC Msp DeInit callback
 337:Drivers/STM32F3xx_HAL_Driver/Src/stm32f3xx_hal_adc.c ****      This function takes as parameters the HAL peripheral handle, the Callback ID
 338:Drivers/STM32F3xx_HAL_Driver/Src/stm32f3xx_hal_adc.c ****      and a pointer to the user callback function.
 339:Drivers/STM32F3xx_HAL_Driver/Src/stm32f3xx_hal_adc.c ****     [..]
 340:Drivers/STM32F3xx_HAL_Driver/Src/stm32f3xx_hal_adc.c **** 
 341:Drivers/STM32F3xx_HAL_Driver/Src/stm32f3xx_hal_adc.c ****      Use function HAL_ADC_UnRegisterCallback to reset a callback to the default
 342:Drivers/STM32F3xx_HAL_Driver/Src/stm32f3xx_hal_adc.c ****      weak function.
 343:Drivers/STM32F3xx_HAL_Driver/Src/stm32f3xx_hal_adc.c ****     [..]
 344:Drivers/STM32F3xx_HAL_Driver/Src/stm32f3xx_hal_adc.c **** 
 345:Drivers/STM32F3xx_HAL_Driver/Src/stm32f3xx_hal_adc.c ****      HAL_ADC_UnRegisterCallback takes as parameters the HAL peripheral handle,
 346:Drivers/STM32F3xx_HAL_Driver/Src/stm32f3xx_hal_adc.c ****      and the Callback ID.
 347:Drivers/STM32F3xx_HAL_Driver/Src/stm32f3xx_hal_adc.c ****      This function allows to reset following callbacks:
 348:Drivers/STM32F3xx_HAL_Driver/Src/stm32f3xx_hal_adc.c ****        (+) ConvCpltCallback               : ADC conversion complete callback
 349:Drivers/STM32F3xx_HAL_Driver/Src/stm32f3xx_hal_adc.c ****        (+) ConvHalfCpltCallback           : ADC conversion DMA half-transfer callback
 350:Drivers/STM32F3xx_HAL_Driver/Src/stm32f3xx_hal_adc.c ****        (+) LevelOutOfWindowCallback       : ADC analog watchdog 1 callback
 351:Drivers/STM32F3xx_HAL_Driver/Src/stm32f3xx_hal_adc.c ****        (+) ErrorCallback                  : ADC error callback
 352:Drivers/STM32F3xx_HAL_Driver/Src/stm32f3xx_hal_adc.c ****        (+) InjectedConvCpltCallback       : ADC group injected conversion complete callback
 353:Drivers/STM32F3xx_HAL_Driver/Src/stm32f3xx_hal_adc.c ****        (+) MspInitCallback                : ADC Msp Init callback
 354:Drivers/STM32F3xx_HAL_Driver/Src/stm32f3xx_hal_adc.c ****        (+) MspDeInitCallback              : ADC Msp DeInit callback
 355:Drivers/STM32F3xx_HAL_Driver/Src/stm32f3xx_hal_adc.c ****      [..]
 356:Drivers/STM32F3xx_HAL_Driver/Src/stm32f3xx_hal_adc.c **** 
 357:Drivers/STM32F3xx_HAL_Driver/Src/stm32f3xx_hal_adc.c ****      By default, after the HAL_ADC_Init() and when the state is HAL_ADC_STATE_RESET
 358:Drivers/STM32F3xx_HAL_Driver/Src/stm32f3xx_hal_adc.c ****      all callbacks are set to the corresponding weak functions:
 359:Drivers/STM32F3xx_HAL_Driver/Src/stm32f3xx_hal_adc.c ****      examples HAL_ADC_ConvCpltCallback(), HAL_ADC_ErrorCallback().
 360:Drivers/STM32F3xx_HAL_Driver/Src/stm32f3xx_hal_adc.c ****      Exception done for MspInit and MspDeInit functions that are
 361:Drivers/STM32F3xx_HAL_Driver/Src/stm32f3xx_hal_adc.c ****      reset to the legacy weak functions in the HAL_ADC_Init()/ HAL_ADC_DeInit() only when
 362:Drivers/STM32F3xx_HAL_Driver/Src/stm32f3xx_hal_adc.c ****      these callbacks are null (not registered beforehand).
 363:Drivers/STM32F3xx_HAL_Driver/Src/stm32f3xx_hal_adc.c ****     [..]
 364:Drivers/STM32F3xx_HAL_Driver/Src/stm32f3xx_hal_adc.c **** 
 365:Drivers/STM32F3xx_HAL_Driver/Src/stm32f3xx_hal_adc.c ****      If MspInit or MspDeInit are not null, the HAL_ADC_Init()/ HAL_ADC_DeInit()
 366:Drivers/STM32F3xx_HAL_Driver/Src/stm32f3xx_hal_adc.c ****      keep and use the user MspInit/MspDeInit callbacks (registered beforehand) whatever the state.
 367:Drivers/STM32F3xx_HAL_Driver/Src/stm32f3xx_hal_adc.c ****      [..]
 368:Drivers/STM32F3xx_HAL_Driver/Src/stm32f3xx_hal_adc.c **** 
 369:Drivers/STM32F3xx_HAL_Driver/Src/stm32f3xx_hal_adc.c ****      Callbacks can be registered/unregistered in HAL_ADC_STATE_READY state only.
 370:Drivers/STM32F3xx_HAL_Driver/Src/stm32f3xx_hal_adc.c ****      Exception done MspInit/MspDeInit functions that can be registered/unregistered
ARM GAS  /var/folders/b1/22c950295gx2kqj80tvj8wqc0000gn/T//ccYIBijp.s 			page 8


 371:Drivers/STM32F3xx_HAL_Driver/Src/stm32f3xx_hal_adc.c ****      in HAL_ADC_STATE_READY or HAL_ADC_STATE_RESET state,
 372:Drivers/STM32F3xx_HAL_Driver/Src/stm32f3xx_hal_adc.c ****      thus registered (user) MspInit/DeInit callbacks can be used during the Init/DeInit.
 373:Drivers/STM32F3xx_HAL_Driver/Src/stm32f3xx_hal_adc.c ****     [..]
 374:Drivers/STM32F3xx_HAL_Driver/Src/stm32f3xx_hal_adc.c **** 
 375:Drivers/STM32F3xx_HAL_Driver/Src/stm32f3xx_hal_adc.c ****      Then, the user first registers the MspInit/MspDeInit user callbacks
 376:Drivers/STM32F3xx_HAL_Driver/Src/stm32f3xx_hal_adc.c ****      using HAL_ADC_RegisterCallback() before calling HAL_ADC_DeInit()
 377:Drivers/STM32F3xx_HAL_Driver/Src/stm32f3xx_hal_adc.c ****      or HAL_ADC_Init() function.
 378:Drivers/STM32F3xx_HAL_Driver/Src/stm32f3xx_hal_adc.c ****      [..]
 379:Drivers/STM32F3xx_HAL_Driver/Src/stm32f3xx_hal_adc.c **** 
 380:Drivers/STM32F3xx_HAL_Driver/Src/stm32f3xx_hal_adc.c ****      When the compilation flag USE_HAL_ADC_REGISTER_CALLBACKS is set to 0 or
 381:Drivers/STM32F3xx_HAL_Driver/Src/stm32f3xx_hal_adc.c ****      not defined, the callback registration feature is not available and all callbacks
 382:Drivers/STM32F3xx_HAL_Driver/Src/stm32f3xx_hal_adc.c ****      are set to the corresponding weak functions.
 383:Drivers/STM32F3xx_HAL_Driver/Src/stm32f3xx_hal_adc.c ****   
 384:Drivers/STM32F3xx_HAL_Driver/Src/stm32f3xx_hal_adc.c ****     @endverbatim
 385:Drivers/STM32F3xx_HAL_Driver/Src/stm32f3xx_hal_adc.c ****   ******************************************************************************
 386:Drivers/STM32F3xx_HAL_Driver/Src/stm32f3xx_hal_adc.c ****   * @attention
 387:Drivers/STM32F3xx_HAL_Driver/Src/stm32f3xx_hal_adc.c ****   *
 388:Drivers/STM32F3xx_HAL_Driver/Src/stm32f3xx_hal_adc.c ****   * <h2><center>&copy; Copyright (c) 2016 STMicroelectronics.
 389:Drivers/STM32F3xx_HAL_Driver/Src/stm32f3xx_hal_adc.c ****   * All rights reserved.</center></h2>
 390:Drivers/STM32F3xx_HAL_Driver/Src/stm32f3xx_hal_adc.c ****   *
 391:Drivers/STM32F3xx_HAL_Driver/Src/stm32f3xx_hal_adc.c ****   * This software component is licensed by ST under BSD 3-Clause license,
 392:Drivers/STM32F3xx_HAL_Driver/Src/stm32f3xx_hal_adc.c ****   * the "License"; You may not use this file except in compliance with the
 393:Drivers/STM32F3xx_HAL_Driver/Src/stm32f3xx_hal_adc.c ****   * License. You may obtain a copy of the License at:
 394:Drivers/STM32F3xx_HAL_Driver/Src/stm32f3xx_hal_adc.c ****   *                        opensource.org/licenses/BSD-3-Clause
 395:Drivers/STM32F3xx_HAL_Driver/Src/stm32f3xx_hal_adc.c ****   *
 396:Drivers/STM32F3xx_HAL_Driver/Src/stm32f3xx_hal_adc.c ****   ******************************************************************************
 397:Drivers/STM32F3xx_HAL_Driver/Src/stm32f3xx_hal_adc.c ****   */
 398:Drivers/STM32F3xx_HAL_Driver/Src/stm32f3xx_hal_adc.c **** 
 399:Drivers/STM32F3xx_HAL_Driver/Src/stm32f3xx_hal_adc.c **** /* Includes ------------------------------------------------------------------*/
 400:Drivers/STM32F3xx_HAL_Driver/Src/stm32f3xx_hal_adc.c **** #include "stm32f3xx_hal.h"
 401:Drivers/STM32F3xx_HAL_Driver/Src/stm32f3xx_hal_adc.c **** 
 402:Drivers/STM32F3xx_HAL_Driver/Src/stm32f3xx_hal_adc.c **** /** @addtogroup STM32F3xx_HAL_Driver
 403:Drivers/STM32F3xx_HAL_Driver/Src/stm32f3xx_hal_adc.c ****   * @{
 404:Drivers/STM32F3xx_HAL_Driver/Src/stm32f3xx_hal_adc.c ****   */
 405:Drivers/STM32F3xx_HAL_Driver/Src/stm32f3xx_hal_adc.c **** 
 406:Drivers/STM32F3xx_HAL_Driver/Src/stm32f3xx_hal_adc.c **** /** @defgroup ADC ADC
 407:Drivers/STM32F3xx_HAL_Driver/Src/stm32f3xx_hal_adc.c ****   * @brief ADC HAL module driver
 408:Drivers/STM32F3xx_HAL_Driver/Src/stm32f3xx_hal_adc.c ****   * @{
 409:Drivers/STM32F3xx_HAL_Driver/Src/stm32f3xx_hal_adc.c ****   */
 410:Drivers/STM32F3xx_HAL_Driver/Src/stm32f3xx_hal_adc.c **** 
 411:Drivers/STM32F3xx_HAL_Driver/Src/stm32f3xx_hal_adc.c **** #ifdef HAL_ADC_MODULE_ENABLED
 412:Drivers/STM32F3xx_HAL_Driver/Src/stm32f3xx_hal_adc.c ****     
 413:Drivers/STM32F3xx_HAL_Driver/Src/stm32f3xx_hal_adc.c **** /* Private typedef -----------------------------------------------------------*/
 414:Drivers/STM32F3xx_HAL_Driver/Src/stm32f3xx_hal_adc.c **** /* Private define ------------------------------------------------------------*/
 415:Drivers/STM32F3xx_HAL_Driver/Src/stm32f3xx_hal_adc.c **** /* Private macro -------------------------------------------------------------*/
 416:Drivers/STM32F3xx_HAL_Driver/Src/stm32f3xx_hal_adc.c **** /* Private variables ---------------------------------------------------------*/
 417:Drivers/STM32F3xx_HAL_Driver/Src/stm32f3xx_hal_adc.c **** /* Private function prototypes -----------------------------------------------*/
 418:Drivers/STM32F3xx_HAL_Driver/Src/stm32f3xx_hal_adc.c **** /* Exported functions --------------------------------------------------------*/
 419:Drivers/STM32F3xx_HAL_Driver/Src/stm32f3xx_hal_adc.c **** 
 420:Drivers/STM32F3xx_HAL_Driver/Src/stm32f3xx_hal_adc.c **** /** @defgroup ADC_Exported_Functions ADC Exported Functions
 421:Drivers/STM32F3xx_HAL_Driver/Src/stm32f3xx_hal_adc.c ****   * @{
 422:Drivers/STM32F3xx_HAL_Driver/Src/stm32f3xx_hal_adc.c ****   */ 
 423:Drivers/STM32F3xx_HAL_Driver/Src/stm32f3xx_hal_adc.c **** 
 424:Drivers/STM32F3xx_HAL_Driver/Src/stm32f3xx_hal_adc.c **** /** @defgroup ADC_Exported_Functions_Group1 Initialization and de-initialization functions
 425:Drivers/STM32F3xx_HAL_Driver/Src/stm32f3xx_hal_adc.c ****  *  @brief    Initialization and Configuration functions 
 426:Drivers/STM32F3xx_HAL_Driver/Src/stm32f3xx_hal_adc.c ****  *
 427:Drivers/STM32F3xx_HAL_Driver/Src/stm32f3xx_hal_adc.c **** @verbatim    
ARM GAS  /var/folders/b1/22c950295gx2kqj80tvj8wqc0000gn/T//ccYIBijp.s 			page 9


 428:Drivers/STM32F3xx_HAL_Driver/Src/stm32f3xx_hal_adc.c ****  ===============================================================================
 429:Drivers/STM32F3xx_HAL_Driver/Src/stm32f3xx_hal_adc.c ****               ##### Initialization and de-initialization functions #####
 430:Drivers/STM32F3xx_HAL_Driver/Src/stm32f3xx_hal_adc.c ****  ===============================================================================
 431:Drivers/STM32F3xx_HAL_Driver/Src/stm32f3xx_hal_adc.c ****     [..]  This section provides functions allowing to:
 432:Drivers/STM32F3xx_HAL_Driver/Src/stm32f3xx_hal_adc.c ****       (+) Initialize and configure the ADC. 
 433:Drivers/STM32F3xx_HAL_Driver/Src/stm32f3xx_hal_adc.c ****       (+) De-initialize the ADC. 
 434:Drivers/STM32F3xx_HAL_Driver/Src/stm32f3xx_hal_adc.c ****          
 435:Drivers/STM32F3xx_HAL_Driver/Src/stm32f3xx_hal_adc.c **** @endverbatim
 436:Drivers/STM32F3xx_HAL_Driver/Src/stm32f3xx_hal_adc.c ****   * @{
 437:Drivers/STM32F3xx_HAL_Driver/Src/stm32f3xx_hal_adc.c ****   */
 438:Drivers/STM32F3xx_HAL_Driver/Src/stm32f3xx_hal_adc.c **** 
 439:Drivers/STM32F3xx_HAL_Driver/Src/stm32f3xx_hal_adc.c **** /**
 440:Drivers/STM32F3xx_HAL_Driver/Src/stm32f3xx_hal_adc.c ****   * @brief  Initializes the ADC peripheral and regular group according to  
 441:Drivers/STM32F3xx_HAL_Driver/Src/stm32f3xx_hal_adc.c ****   *         parameters specified in structure "ADC_InitTypeDef".
 442:Drivers/STM32F3xx_HAL_Driver/Src/stm32f3xx_hal_adc.c ****   * @note   As prerequisite, ADC clock must be configured at RCC top level
 443:Drivers/STM32F3xx_HAL_Driver/Src/stm32f3xx_hal_adc.c ****   *         depending on both possible clock sources: PLL clock or AHB clock.
 444:Drivers/STM32F3xx_HAL_Driver/Src/stm32f3xx_hal_adc.c ****   *         See commented example code below that can be copied and uncommented 
 445:Drivers/STM32F3xx_HAL_Driver/Src/stm32f3xx_hal_adc.c ****   *         into HAL_ADC_MspInit().
 446:Drivers/STM32F3xx_HAL_Driver/Src/stm32f3xx_hal_adc.c ****   * @note   Possibility to update parameters on the fly:
 447:Drivers/STM32F3xx_HAL_Driver/Src/stm32f3xx_hal_adc.c ****   *         This function initializes the ADC MSP (HAL_ADC_MspInit()) only when
 448:Drivers/STM32F3xx_HAL_Driver/Src/stm32f3xx_hal_adc.c ****   *         coming from ADC state reset. Following calls to this function can
 449:Drivers/STM32F3xx_HAL_Driver/Src/stm32f3xx_hal_adc.c ****   *         be used to reconfigure some parameters of ADC_InitTypeDef  
 450:Drivers/STM32F3xx_HAL_Driver/Src/stm32f3xx_hal_adc.c ****   *         structure on the fly, without modifying MSP configuration. If ADC  
 451:Drivers/STM32F3xx_HAL_Driver/Src/stm32f3xx_hal_adc.c ****   *         MSP has to be modified again, HAL_ADC_DeInit() must be called
 452:Drivers/STM32F3xx_HAL_Driver/Src/stm32f3xx_hal_adc.c ****   *         before HAL_ADC_Init().
 453:Drivers/STM32F3xx_HAL_Driver/Src/stm32f3xx_hal_adc.c ****   *         The setting of these parameters is conditioned to ADC state.
 454:Drivers/STM32F3xx_HAL_Driver/Src/stm32f3xx_hal_adc.c ****   *         For parameters constraints, see comments of structure 
 455:Drivers/STM32F3xx_HAL_Driver/Src/stm32f3xx_hal_adc.c ****   *         "ADC_InitTypeDef".
 456:Drivers/STM32F3xx_HAL_Driver/Src/stm32f3xx_hal_adc.c ****   * @note   This function configures the ADC within 2 scopes: scope of entire 
 457:Drivers/STM32F3xx_HAL_Driver/Src/stm32f3xx_hal_adc.c ****   *         ADC and scope of regular group. For parameters details, see comments 
 458:Drivers/STM32F3xx_HAL_Driver/Src/stm32f3xx_hal_adc.c ****   *         of structure "ADC_InitTypeDef".
 459:Drivers/STM32F3xx_HAL_Driver/Src/stm32f3xx_hal_adc.c ****   * @note   For devices with several ADCs: parameters related to common ADC 
 460:Drivers/STM32F3xx_HAL_Driver/Src/stm32f3xx_hal_adc.c ****   *         registers (ADC clock mode) are set only if all ADCs sharing the
 461:Drivers/STM32F3xx_HAL_Driver/Src/stm32f3xx_hal_adc.c ****   *         same common group are disabled.
 462:Drivers/STM32F3xx_HAL_Driver/Src/stm32f3xx_hal_adc.c ****   *         If this is not the case, these common parameters setting are  
 463:Drivers/STM32F3xx_HAL_Driver/Src/stm32f3xx_hal_adc.c ****   *         bypassed without error reporting: it can be the intended behaviour in
 464:Drivers/STM32F3xx_HAL_Driver/Src/stm32f3xx_hal_adc.c ****   *         case of update of a parameter of ADC_InitTypeDef on the fly,
 465:Drivers/STM32F3xx_HAL_Driver/Src/stm32f3xx_hal_adc.c ****   *         without  disabling the other ADCs sharing the same common group.
 466:Drivers/STM32F3xx_HAL_Driver/Src/stm32f3xx_hal_adc.c ****   * @param  hadc ADC handle
 467:Drivers/STM32F3xx_HAL_Driver/Src/stm32f3xx_hal_adc.c ****   * @retval HAL status
 468:Drivers/STM32F3xx_HAL_Driver/Src/stm32f3xx_hal_adc.c ****   */
 469:Drivers/STM32F3xx_HAL_Driver/Src/stm32f3xx_hal_adc.c **** __weak HAL_StatusTypeDef HAL_ADC_Init(ADC_HandleTypeDef* hadc)
 470:Drivers/STM32F3xx_HAL_Driver/Src/stm32f3xx_hal_adc.c **** {
  31              		.loc 1 470 1 view -0
  32              		.cfi_startproc
  33              		@ args = 0, pretend = 0, frame = 0
  34              		@ frame_needed = 0, uses_anonymous_args = 0
  35              		@ link register save eliminated.
 471:Drivers/STM32F3xx_HAL_Driver/Src/stm32f3xx_hal_adc.c ****   /* Prevent unused argument(s) compilation warning */
 472:Drivers/STM32F3xx_HAL_Driver/Src/stm32f3xx_hal_adc.c ****   UNUSED(hadc);
  36              		.loc 1 472 3 view .LVU1
 473:Drivers/STM32F3xx_HAL_Driver/Src/stm32f3xx_hal_adc.c **** 
 474:Drivers/STM32F3xx_HAL_Driver/Src/stm32f3xx_hal_adc.c ****   /* Note : This function is defined into this file for library reference. */
 475:Drivers/STM32F3xx_HAL_Driver/Src/stm32f3xx_hal_adc.c ****   /*        Function content is located into file stm32f3xx_hal_adc_ex.c   */
 476:Drivers/STM32F3xx_HAL_Driver/Src/stm32f3xx_hal_adc.c ****   
 477:Drivers/STM32F3xx_HAL_Driver/Src/stm32f3xx_hal_adc.c ****   /* Return function status */
 478:Drivers/STM32F3xx_HAL_Driver/Src/stm32f3xx_hal_adc.c ****   return HAL_ERROR;
ARM GAS  /var/folders/b1/22c950295gx2kqj80tvj8wqc0000gn/T//ccYIBijp.s 			page 10


  37              		.loc 1 478 3 view .LVU2
 479:Drivers/STM32F3xx_HAL_Driver/Src/stm32f3xx_hal_adc.c **** }
  38              		.loc 1 479 1 is_stmt 0 view .LVU3
  39 0000 0120     		movs	r0, #1
  40              	.LVL1:
  41              		.loc 1 479 1 view .LVU4
  42 0002 7047     		bx	lr
  43              		.cfi_endproc
  44              	.LFE123:
  46              		.section	.text.HAL_ADC_DeInit,"ax",%progbits
  47              		.align	1
  48              		.p2align 2,,3
  49              		.weak	HAL_ADC_DeInit
  50              		.syntax unified
  51              		.thumb
  52              		.thumb_func
  54              	HAL_ADC_DeInit:
  55              	.LFB146:
  56              		.cfi_startproc
  57              		@ args = 0, pretend = 0, frame = 0
  58              		@ frame_needed = 0, uses_anonymous_args = 0
  59              		@ link register save eliminated.
  60 0000 0120     		movs	r0, #1
  61 0002 7047     		bx	lr
  62              		.cfi_endproc
  63              	.LFE146:
  65              		.section	.text.HAL_ADC_MspInit,"ax",%progbits
  66              		.align	1
  67              		.p2align 2,,3
  68              		.weak	HAL_ADC_MspInit
  69              		.syntax unified
  70              		.thumb
  71              		.thumb_func
  73              	HAL_ADC_MspInit:
  74              	.LVL2:
  75              	.LFB125:
 480:Drivers/STM32F3xx_HAL_Driver/Src/stm32f3xx_hal_adc.c **** 
 481:Drivers/STM32F3xx_HAL_Driver/Src/stm32f3xx_hal_adc.c **** /**
 482:Drivers/STM32F3xx_HAL_Driver/Src/stm32f3xx_hal_adc.c ****   * @brief  Deinitialize the ADC peripheral registers to their default reset
 483:Drivers/STM32F3xx_HAL_Driver/Src/stm32f3xx_hal_adc.c ****   *         values, with deinitialization of the ADC MSP.
 484:Drivers/STM32F3xx_HAL_Driver/Src/stm32f3xx_hal_adc.c ****   * @note   For devices with several ADCs: reset of ADC common registers is done 
 485:Drivers/STM32F3xx_HAL_Driver/Src/stm32f3xx_hal_adc.c ****   *         only if all ADCs sharing the same common group are disabled.
 486:Drivers/STM32F3xx_HAL_Driver/Src/stm32f3xx_hal_adc.c ****   *         If this is not the case, reset of these common parameters reset is  
 487:Drivers/STM32F3xx_HAL_Driver/Src/stm32f3xx_hal_adc.c ****   *         bypassed without error reporting: it can be the intended behaviour in
 488:Drivers/STM32F3xx_HAL_Driver/Src/stm32f3xx_hal_adc.c ****   *         case of reset of a single ADC while the other ADCs sharing the same 
 489:Drivers/STM32F3xx_HAL_Driver/Src/stm32f3xx_hal_adc.c ****   *         common group is still running.
 490:Drivers/STM32F3xx_HAL_Driver/Src/stm32f3xx_hal_adc.c ****   * @note   For devices with several ADCs: Global reset of all ADCs sharing a
 491:Drivers/STM32F3xx_HAL_Driver/Src/stm32f3xx_hal_adc.c ****   *         common group is possible.
 492:Drivers/STM32F3xx_HAL_Driver/Src/stm32f3xx_hal_adc.c ****   *         As this function is intended to reset a single ADC, to not impact 
 493:Drivers/STM32F3xx_HAL_Driver/Src/stm32f3xx_hal_adc.c ****   *         other ADCs, instructions for global reset of multiple ADCs have been
 494:Drivers/STM32F3xx_HAL_Driver/Src/stm32f3xx_hal_adc.c ****   *         let commented below.
 495:Drivers/STM32F3xx_HAL_Driver/Src/stm32f3xx_hal_adc.c ****   *         If needed, the example code can be copied and uncommented into
 496:Drivers/STM32F3xx_HAL_Driver/Src/stm32f3xx_hal_adc.c ****   *         function HAL_ADC_MspDeInit().
 497:Drivers/STM32F3xx_HAL_Driver/Src/stm32f3xx_hal_adc.c ****   * @param  hadc ADC handle
 498:Drivers/STM32F3xx_HAL_Driver/Src/stm32f3xx_hal_adc.c ****   * @retval HAL status
 499:Drivers/STM32F3xx_HAL_Driver/Src/stm32f3xx_hal_adc.c ****   */
 500:Drivers/STM32F3xx_HAL_Driver/Src/stm32f3xx_hal_adc.c **** __weak HAL_StatusTypeDef HAL_ADC_DeInit(ADC_HandleTypeDef* hadc)
ARM GAS  /var/folders/b1/22c950295gx2kqj80tvj8wqc0000gn/T//ccYIBijp.s 			page 11


 501:Drivers/STM32F3xx_HAL_Driver/Src/stm32f3xx_hal_adc.c **** {
 502:Drivers/STM32F3xx_HAL_Driver/Src/stm32f3xx_hal_adc.c ****   /* Prevent unused argument(s) compilation warning */
 503:Drivers/STM32F3xx_HAL_Driver/Src/stm32f3xx_hal_adc.c ****   UNUSED(hadc);
 504:Drivers/STM32F3xx_HAL_Driver/Src/stm32f3xx_hal_adc.c **** 
 505:Drivers/STM32F3xx_HAL_Driver/Src/stm32f3xx_hal_adc.c ****   /* Note : This function is defined into this file for library reference. */
 506:Drivers/STM32F3xx_HAL_Driver/Src/stm32f3xx_hal_adc.c ****   /*        Function content is located into file stm32f3xx_hal_adc_ex.c   */
 507:Drivers/STM32F3xx_HAL_Driver/Src/stm32f3xx_hal_adc.c ****   
 508:Drivers/STM32F3xx_HAL_Driver/Src/stm32f3xx_hal_adc.c ****   /* Return function status */
 509:Drivers/STM32F3xx_HAL_Driver/Src/stm32f3xx_hal_adc.c ****   return HAL_ERROR;
 510:Drivers/STM32F3xx_HAL_Driver/Src/stm32f3xx_hal_adc.c **** }
 511:Drivers/STM32F3xx_HAL_Driver/Src/stm32f3xx_hal_adc.c ****     
 512:Drivers/STM32F3xx_HAL_Driver/Src/stm32f3xx_hal_adc.c **** /**
 513:Drivers/STM32F3xx_HAL_Driver/Src/stm32f3xx_hal_adc.c ****   * @brief  Initializes the ADC MSP.
 514:Drivers/STM32F3xx_HAL_Driver/Src/stm32f3xx_hal_adc.c ****   * @param  hadc ADC handle
 515:Drivers/STM32F3xx_HAL_Driver/Src/stm32f3xx_hal_adc.c ****   * @retval None
 516:Drivers/STM32F3xx_HAL_Driver/Src/stm32f3xx_hal_adc.c ****   */
 517:Drivers/STM32F3xx_HAL_Driver/Src/stm32f3xx_hal_adc.c **** __weak void HAL_ADC_MspInit(ADC_HandleTypeDef* hadc)
 518:Drivers/STM32F3xx_HAL_Driver/Src/stm32f3xx_hal_adc.c **** {
  76              		.loc 1 518 1 is_stmt 1 view -0
  77              		.cfi_startproc
  78              		@ args = 0, pretend = 0, frame = 0
  79              		@ frame_needed = 0, uses_anonymous_args = 0
  80              		@ link register save eliminated.
 519:Drivers/STM32F3xx_HAL_Driver/Src/stm32f3xx_hal_adc.c ****   /* Prevent unused argument(s) compilation warning */
 520:Drivers/STM32F3xx_HAL_Driver/Src/stm32f3xx_hal_adc.c ****   UNUSED(hadc);
  81              		.loc 1 520 3 view .LVU6
 521:Drivers/STM32F3xx_HAL_Driver/Src/stm32f3xx_hal_adc.c **** 
 522:Drivers/STM32F3xx_HAL_Driver/Src/stm32f3xx_hal_adc.c ****   /* NOTE : This function should not be modified. When the callback is needed,
 523:Drivers/STM32F3xx_HAL_Driver/Src/stm32f3xx_hal_adc.c ****             function HAL_ADC_MspInit must be implemented in the user file.
 524:Drivers/STM32F3xx_HAL_Driver/Src/stm32f3xx_hal_adc.c ****    */ 
 525:Drivers/STM32F3xx_HAL_Driver/Src/stm32f3xx_hal_adc.c **** }
  82              		.loc 1 525 1 is_stmt 0 view .LVU7
  83 0000 7047     		bx	lr
  84              		.cfi_endproc
  85              	.LFE125:
  87 0002 00BF     		.section	.text.HAL_ADC_MspDeInit,"ax",%progbits
  88              		.align	1
  89              		.p2align 2,,3
  90              		.weak	HAL_ADC_MspDeInit
  91              		.syntax unified
  92              		.thumb
  93              		.thumb_func
  95              	HAL_ADC_MspDeInit:
  96              	.LFB158:
  97              		.cfi_startproc
  98              		@ args = 0, pretend = 0, frame = 0
  99              		@ frame_needed = 0, uses_anonymous_args = 0
 100              		@ link register save eliminated.
 101 0000 7047     		bx	lr
 102              		.cfi_endproc
 103              	.LFE158:
 105 0002 00BF     		.section	.text.HAL_ADC_Start,"ax",%progbits
 106              		.align	1
 107              		.p2align 2,,3
 108              		.weak	HAL_ADC_Start
 109              		.syntax unified
 110              		.thumb
ARM GAS  /var/folders/b1/22c950295gx2kqj80tvj8wqc0000gn/T//ccYIBijp.s 			page 12


 111              		.thumb_func
 113              	HAL_ADC_Start:
 114              	.LFB148:
 115              		.cfi_startproc
 116              		@ args = 0, pretend = 0, frame = 0
 117              		@ frame_needed = 0, uses_anonymous_args = 0
 118              		@ link register save eliminated.
 119 0000 0120     		movs	r0, #1
 120 0002 7047     		bx	lr
 121              		.cfi_endproc
 122              	.LFE148:
 124              		.section	.text.HAL_ADC_Stop,"ax",%progbits
 125              		.align	1
 126              		.p2align 2,,3
 127              		.weak	HAL_ADC_Stop
 128              		.syntax unified
 129              		.thumb
 130              		.thumb_func
 132              	HAL_ADC_Stop:
 133              	.LFB150:
 134              		.cfi_startproc
 135              		@ args = 0, pretend = 0, frame = 0
 136              		@ frame_needed = 0, uses_anonymous_args = 0
 137              		@ link register save eliminated.
 138 0000 0120     		movs	r0, #1
 139 0002 7047     		bx	lr
 140              		.cfi_endproc
 141              	.LFE150:
 143              		.section	.text.HAL_ADC_PollForConversion,"ax",%progbits
 144              		.align	1
 145              		.p2align 2,,3
 146              		.weak	HAL_ADC_PollForConversion
 147              		.syntax unified
 148              		.thumb
 149              		.thumb_func
 151              	HAL_ADC_PollForConversion:
 152              	.LVL3:
 153              	.LFB129:
 526:Drivers/STM32F3xx_HAL_Driver/Src/stm32f3xx_hal_adc.c **** 
 527:Drivers/STM32F3xx_HAL_Driver/Src/stm32f3xx_hal_adc.c **** /**
 528:Drivers/STM32F3xx_HAL_Driver/Src/stm32f3xx_hal_adc.c ****   * @brief  DeInitializes the ADC MSP.
 529:Drivers/STM32F3xx_HAL_Driver/Src/stm32f3xx_hal_adc.c ****   * @param  hadc ADC handle
 530:Drivers/STM32F3xx_HAL_Driver/Src/stm32f3xx_hal_adc.c ****   * @retval None
 531:Drivers/STM32F3xx_HAL_Driver/Src/stm32f3xx_hal_adc.c ****   */
 532:Drivers/STM32F3xx_HAL_Driver/Src/stm32f3xx_hal_adc.c **** __weak void HAL_ADC_MspDeInit(ADC_HandleTypeDef* hadc)
 533:Drivers/STM32F3xx_HAL_Driver/Src/stm32f3xx_hal_adc.c **** {
 534:Drivers/STM32F3xx_HAL_Driver/Src/stm32f3xx_hal_adc.c ****   /* Prevent unused argument(s) compilation warning */
 535:Drivers/STM32F3xx_HAL_Driver/Src/stm32f3xx_hal_adc.c ****   UNUSED(hadc);
 536:Drivers/STM32F3xx_HAL_Driver/Src/stm32f3xx_hal_adc.c **** 
 537:Drivers/STM32F3xx_HAL_Driver/Src/stm32f3xx_hal_adc.c ****   /* NOTE : This function should not be modified. When the callback is needed,
 538:Drivers/STM32F3xx_HAL_Driver/Src/stm32f3xx_hal_adc.c ****             function HAL_ADC_MspDeInit must be implemented in the user file.
 539:Drivers/STM32F3xx_HAL_Driver/Src/stm32f3xx_hal_adc.c ****    */ 
 540:Drivers/STM32F3xx_HAL_Driver/Src/stm32f3xx_hal_adc.c **** }
 541:Drivers/STM32F3xx_HAL_Driver/Src/stm32f3xx_hal_adc.c **** 
 542:Drivers/STM32F3xx_HAL_Driver/Src/stm32f3xx_hal_adc.c **** #if (USE_HAL_ADC_REGISTER_CALLBACKS == 1)
 543:Drivers/STM32F3xx_HAL_Driver/Src/stm32f3xx_hal_adc.c **** /**
 544:Drivers/STM32F3xx_HAL_Driver/Src/stm32f3xx_hal_adc.c ****   * @brief  Register a User ADC Callback
ARM GAS  /var/folders/b1/22c950295gx2kqj80tvj8wqc0000gn/T//ccYIBijp.s 			page 13


 545:Drivers/STM32F3xx_HAL_Driver/Src/stm32f3xx_hal_adc.c ****   *         To be used instead of the weak predefined callback
 546:Drivers/STM32F3xx_HAL_Driver/Src/stm32f3xx_hal_adc.c ****   * @param  hadc Pointer to a ADC_HandleTypeDef structure that contains
 547:Drivers/STM32F3xx_HAL_Driver/Src/stm32f3xx_hal_adc.c ****   *                the configuration information for the specified ADC.
 548:Drivers/STM32F3xx_HAL_Driver/Src/stm32f3xx_hal_adc.c ****   * @param  CallbackID ID of the callback to be registered
 549:Drivers/STM32F3xx_HAL_Driver/Src/stm32f3xx_hal_adc.c ****   *         This parameter can be one of the following values:
 550:Drivers/STM32F3xx_HAL_Driver/Src/stm32f3xx_hal_adc.c ****   *          @arg @ref HAL_ADC_CONVERSION_COMPLETE_CB_ID      ADC conversion complete callback ID
 551:Drivers/STM32F3xx_HAL_Driver/Src/stm32f3xx_hal_adc.c ****   *          @arg @ref HAL_ADC_CONVERSION_HALF_CB_ID          ADC conversion complete callback ID
 552:Drivers/STM32F3xx_HAL_Driver/Src/stm32f3xx_hal_adc.c ****   *          @arg @ref HAL_ADC_LEVEL_OUT_OF_WINDOW_1_CB_ID    ADC analog watchdog 1 callback ID
 553:Drivers/STM32F3xx_HAL_Driver/Src/stm32f3xx_hal_adc.c ****   *          @arg @ref HAL_ADC_ERROR_CB_ID                    ADC error callback ID
 554:Drivers/STM32F3xx_HAL_Driver/Src/stm32f3xx_hal_adc.c ****   *          @arg @ref HAL_ADC_INJ_CONVERSION_COMPLETE_CB_ID  ADC group injected conversion complet
 555:Drivers/STM32F3xx_HAL_Driver/Src/stm32f3xx_hal_adc.c ****   *          @arg @ref HAL_ADC_MSPINIT_CB_ID                  ADC Msp Init callback ID
 556:Drivers/STM32F3xx_HAL_Driver/Src/stm32f3xx_hal_adc.c ****   *          @arg @ref HAL_ADC_MSPDEINIT_CB_ID                ADC Msp DeInit callback ID
 557:Drivers/STM32F3xx_HAL_Driver/Src/stm32f3xx_hal_adc.c ****   *          @arg @ref HAL_ADC_MSPINIT_CB_ID MspInit callback ID
 558:Drivers/STM32F3xx_HAL_Driver/Src/stm32f3xx_hal_adc.c ****   *          @arg @ref HAL_ADC_MSPDEINIT_CB_ID MspDeInit callback ID
 559:Drivers/STM32F3xx_HAL_Driver/Src/stm32f3xx_hal_adc.c ****   * @param  pCallback pointer to the Callback function
 560:Drivers/STM32F3xx_HAL_Driver/Src/stm32f3xx_hal_adc.c ****   * @retval HAL status
 561:Drivers/STM32F3xx_HAL_Driver/Src/stm32f3xx_hal_adc.c ****   */
 562:Drivers/STM32F3xx_HAL_Driver/Src/stm32f3xx_hal_adc.c **** HAL_StatusTypeDef HAL_ADC_RegisterCallback(ADC_HandleTypeDef *hadc, HAL_ADC_CallbackIDTypeDef Callb
 563:Drivers/STM32F3xx_HAL_Driver/Src/stm32f3xx_hal_adc.c **** {
 564:Drivers/STM32F3xx_HAL_Driver/Src/stm32f3xx_hal_adc.c ****   HAL_StatusTypeDef status = HAL_OK;
 565:Drivers/STM32F3xx_HAL_Driver/Src/stm32f3xx_hal_adc.c ****   
 566:Drivers/STM32F3xx_HAL_Driver/Src/stm32f3xx_hal_adc.c ****   if (pCallback == NULL)
 567:Drivers/STM32F3xx_HAL_Driver/Src/stm32f3xx_hal_adc.c ****   {
 568:Drivers/STM32F3xx_HAL_Driver/Src/stm32f3xx_hal_adc.c ****     /* Update the error code */
 569:Drivers/STM32F3xx_HAL_Driver/Src/stm32f3xx_hal_adc.c ****     hadc->ErrorCode |= HAL_ADC_ERROR_INVALID_CALLBACK;
 570:Drivers/STM32F3xx_HAL_Driver/Src/stm32f3xx_hal_adc.c **** 
 571:Drivers/STM32F3xx_HAL_Driver/Src/stm32f3xx_hal_adc.c ****     return HAL_ERROR;
 572:Drivers/STM32F3xx_HAL_Driver/Src/stm32f3xx_hal_adc.c ****   }
 573:Drivers/STM32F3xx_HAL_Driver/Src/stm32f3xx_hal_adc.c ****   
 574:Drivers/STM32F3xx_HAL_Driver/Src/stm32f3xx_hal_adc.c ****   if ((hadc->State & HAL_ADC_STATE_READY) != 0)
 575:Drivers/STM32F3xx_HAL_Driver/Src/stm32f3xx_hal_adc.c ****   {
 576:Drivers/STM32F3xx_HAL_Driver/Src/stm32f3xx_hal_adc.c ****     switch (CallbackID)
 577:Drivers/STM32F3xx_HAL_Driver/Src/stm32f3xx_hal_adc.c ****     {
 578:Drivers/STM32F3xx_HAL_Driver/Src/stm32f3xx_hal_adc.c ****       case HAL_ADC_CONVERSION_COMPLETE_CB_ID :
 579:Drivers/STM32F3xx_HAL_Driver/Src/stm32f3xx_hal_adc.c ****         hadc->ConvCpltCallback = pCallback;
 580:Drivers/STM32F3xx_HAL_Driver/Src/stm32f3xx_hal_adc.c ****         break;
 581:Drivers/STM32F3xx_HAL_Driver/Src/stm32f3xx_hal_adc.c ****       
 582:Drivers/STM32F3xx_HAL_Driver/Src/stm32f3xx_hal_adc.c ****       case HAL_ADC_CONVERSION_HALF_CB_ID :
 583:Drivers/STM32F3xx_HAL_Driver/Src/stm32f3xx_hal_adc.c ****         hadc->ConvHalfCpltCallback = pCallback;
 584:Drivers/STM32F3xx_HAL_Driver/Src/stm32f3xx_hal_adc.c ****         break;
 585:Drivers/STM32F3xx_HAL_Driver/Src/stm32f3xx_hal_adc.c ****       
 586:Drivers/STM32F3xx_HAL_Driver/Src/stm32f3xx_hal_adc.c ****       case HAL_ADC_LEVEL_OUT_OF_WINDOW_1_CB_ID :
 587:Drivers/STM32F3xx_HAL_Driver/Src/stm32f3xx_hal_adc.c ****         hadc->LevelOutOfWindowCallback = pCallback;
 588:Drivers/STM32F3xx_HAL_Driver/Src/stm32f3xx_hal_adc.c ****         break;
 589:Drivers/STM32F3xx_HAL_Driver/Src/stm32f3xx_hal_adc.c ****       
 590:Drivers/STM32F3xx_HAL_Driver/Src/stm32f3xx_hal_adc.c ****       case HAL_ADC_ERROR_CB_ID :
 591:Drivers/STM32F3xx_HAL_Driver/Src/stm32f3xx_hal_adc.c ****         hadc->ErrorCallback = pCallback;
 592:Drivers/STM32F3xx_HAL_Driver/Src/stm32f3xx_hal_adc.c ****         break;
 593:Drivers/STM32F3xx_HAL_Driver/Src/stm32f3xx_hal_adc.c ****       
 594:Drivers/STM32F3xx_HAL_Driver/Src/stm32f3xx_hal_adc.c ****       case HAL_ADC_INJ_CONVERSION_COMPLETE_CB_ID :
 595:Drivers/STM32F3xx_HAL_Driver/Src/stm32f3xx_hal_adc.c ****         hadc->InjectedConvCpltCallback = pCallback;
 596:Drivers/STM32F3xx_HAL_Driver/Src/stm32f3xx_hal_adc.c ****         break;
 597:Drivers/STM32F3xx_HAL_Driver/Src/stm32f3xx_hal_adc.c ****       
 598:Drivers/STM32F3xx_HAL_Driver/Src/stm32f3xx_hal_adc.c ****       case HAL_ADC_MSPINIT_CB_ID :
 599:Drivers/STM32F3xx_HAL_Driver/Src/stm32f3xx_hal_adc.c ****         hadc->MspInitCallback = pCallback;
 600:Drivers/STM32F3xx_HAL_Driver/Src/stm32f3xx_hal_adc.c ****         break;
 601:Drivers/STM32F3xx_HAL_Driver/Src/stm32f3xx_hal_adc.c ****       
ARM GAS  /var/folders/b1/22c950295gx2kqj80tvj8wqc0000gn/T//ccYIBijp.s 			page 14


 602:Drivers/STM32F3xx_HAL_Driver/Src/stm32f3xx_hal_adc.c ****       case HAL_ADC_MSPDEINIT_CB_ID :
 603:Drivers/STM32F3xx_HAL_Driver/Src/stm32f3xx_hal_adc.c ****         hadc->MspDeInitCallback = pCallback;
 604:Drivers/STM32F3xx_HAL_Driver/Src/stm32f3xx_hal_adc.c ****         break;
 605:Drivers/STM32F3xx_HAL_Driver/Src/stm32f3xx_hal_adc.c ****       
 606:Drivers/STM32F3xx_HAL_Driver/Src/stm32f3xx_hal_adc.c ****       default :
 607:Drivers/STM32F3xx_HAL_Driver/Src/stm32f3xx_hal_adc.c ****         /* Update the error code */
 608:Drivers/STM32F3xx_HAL_Driver/Src/stm32f3xx_hal_adc.c ****         hadc->ErrorCode |= HAL_ADC_ERROR_INVALID_CALLBACK;
 609:Drivers/STM32F3xx_HAL_Driver/Src/stm32f3xx_hal_adc.c **** 
 610:Drivers/STM32F3xx_HAL_Driver/Src/stm32f3xx_hal_adc.c ****         /* Return error status */
 611:Drivers/STM32F3xx_HAL_Driver/Src/stm32f3xx_hal_adc.c ****         status = HAL_ERROR;
 612:Drivers/STM32F3xx_HAL_Driver/Src/stm32f3xx_hal_adc.c ****         break;
 613:Drivers/STM32F3xx_HAL_Driver/Src/stm32f3xx_hal_adc.c ****     }
 614:Drivers/STM32F3xx_HAL_Driver/Src/stm32f3xx_hal_adc.c ****   }
 615:Drivers/STM32F3xx_HAL_Driver/Src/stm32f3xx_hal_adc.c ****   else if (HAL_ADC_STATE_RESET == hadc->State)
 616:Drivers/STM32F3xx_HAL_Driver/Src/stm32f3xx_hal_adc.c ****   {
 617:Drivers/STM32F3xx_HAL_Driver/Src/stm32f3xx_hal_adc.c ****     switch (CallbackID)
 618:Drivers/STM32F3xx_HAL_Driver/Src/stm32f3xx_hal_adc.c ****     {
 619:Drivers/STM32F3xx_HAL_Driver/Src/stm32f3xx_hal_adc.c ****       case HAL_ADC_MSPINIT_CB_ID :
 620:Drivers/STM32F3xx_HAL_Driver/Src/stm32f3xx_hal_adc.c ****         hadc->MspInitCallback = pCallback;
 621:Drivers/STM32F3xx_HAL_Driver/Src/stm32f3xx_hal_adc.c ****         break;
 622:Drivers/STM32F3xx_HAL_Driver/Src/stm32f3xx_hal_adc.c ****       
 623:Drivers/STM32F3xx_HAL_Driver/Src/stm32f3xx_hal_adc.c ****       case HAL_ADC_MSPDEINIT_CB_ID :
 624:Drivers/STM32F3xx_HAL_Driver/Src/stm32f3xx_hal_adc.c ****         hadc->MspDeInitCallback = pCallback;
 625:Drivers/STM32F3xx_HAL_Driver/Src/stm32f3xx_hal_adc.c ****         break;
 626:Drivers/STM32F3xx_HAL_Driver/Src/stm32f3xx_hal_adc.c ****       
 627:Drivers/STM32F3xx_HAL_Driver/Src/stm32f3xx_hal_adc.c ****       default :
 628:Drivers/STM32F3xx_HAL_Driver/Src/stm32f3xx_hal_adc.c ****         /* Update the error code */
 629:Drivers/STM32F3xx_HAL_Driver/Src/stm32f3xx_hal_adc.c ****         hadc->ErrorCode |= HAL_ADC_ERROR_INVALID_CALLBACK;
 630:Drivers/STM32F3xx_HAL_Driver/Src/stm32f3xx_hal_adc.c ****       
 631:Drivers/STM32F3xx_HAL_Driver/Src/stm32f3xx_hal_adc.c ****         /* Return error status */
 632:Drivers/STM32F3xx_HAL_Driver/Src/stm32f3xx_hal_adc.c ****         status = HAL_ERROR;
 633:Drivers/STM32F3xx_HAL_Driver/Src/stm32f3xx_hal_adc.c ****         break;
 634:Drivers/STM32F3xx_HAL_Driver/Src/stm32f3xx_hal_adc.c ****     }
 635:Drivers/STM32F3xx_HAL_Driver/Src/stm32f3xx_hal_adc.c ****   }
 636:Drivers/STM32F3xx_HAL_Driver/Src/stm32f3xx_hal_adc.c ****   else
 637:Drivers/STM32F3xx_HAL_Driver/Src/stm32f3xx_hal_adc.c ****   {
 638:Drivers/STM32F3xx_HAL_Driver/Src/stm32f3xx_hal_adc.c ****     /* Update the error code */
 639:Drivers/STM32F3xx_HAL_Driver/Src/stm32f3xx_hal_adc.c ****     hadc->ErrorCode |= HAL_ADC_ERROR_INVALID_CALLBACK;
 640:Drivers/STM32F3xx_HAL_Driver/Src/stm32f3xx_hal_adc.c ****     
 641:Drivers/STM32F3xx_HAL_Driver/Src/stm32f3xx_hal_adc.c ****     /* Return error status */
 642:Drivers/STM32F3xx_HAL_Driver/Src/stm32f3xx_hal_adc.c ****     status =  HAL_ERROR;
 643:Drivers/STM32F3xx_HAL_Driver/Src/stm32f3xx_hal_adc.c ****   }
 644:Drivers/STM32F3xx_HAL_Driver/Src/stm32f3xx_hal_adc.c ****   
 645:Drivers/STM32F3xx_HAL_Driver/Src/stm32f3xx_hal_adc.c ****   return status;
 646:Drivers/STM32F3xx_HAL_Driver/Src/stm32f3xx_hal_adc.c **** }
 647:Drivers/STM32F3xx_HAL_Driver/Src/stm32f3xx_hal_adc.c **** 
 648:Drivers/STM32F3xx_HAL_Driver/Src/stm32f3xx_hal_adc.c **** /**
 649:Drivers/STM32F3xx_HAL_Driver/Src/stm32f3xx_hal_adc.c ****   * @brief  Unregister a ADC Callback
 650:Drivers/STM32F3xx_HAL_Driver/Src/stm32f3xx_hal_adc.c ****   *         ADC callback is redirected to the weak predefined callback
 651:Drivers/STM32F3xx_HAL_Driver/Src/stm32f3xx_hal_adc.c ****   * @param  hadc Pointer to a ADC_HandleTypeDef structure that contains
 652:Drivers/STM32F3xx_HAL_Driver/Src/stm32f3xx_hal_adc.c ****   *                the configuration information for the specified ADC.
 653:Drivers/STM32F3xx_HAL_Driver/Src/stm32f3xx_hal_adc.c ****   * @param  CallbackID ID of the callback to be unregistered
 654:Drivers/STM32F3xx_HAL_Driver/Src/stm32f3xx_hal_adc.c ****   *         This parameter can be one of the following values:
 655:Drivers/STM32F3xx_HAL_Driver/Src/stm32f3xx_hal_adc.c ****   *          @arg @ref HAL_ADC_CONVERSION_COMPLETE_CB_ID      ADC conversion complete callback ID
 656:Drivers/STM32F3xx_HAL_Driver/Src/stm32f3xx_hal_adc.c ****   *          @arg @ref HAL_ADC_CONVERSION_HALF_CB_ID          ADC conversion complete callback ID
 657:Drivers/STM32F3xx_HAL_Driver/Src/stm32f3xx_hal_adc.c ****   *          @arg @ref HAL_ADC_LEVEL_OUT_OF_WINDOW_1_CB_ID    ADC analog watchdog 1 callback ID
 658:Drivers/STM32F3xx_HAL_Driver/Src/stm32f3xx_hal_adc.c ****   *          @arg @ref HAL_ADC_ERROR_CB_ID                    ADC error callback ID
ARM GAS  /var/folders/b1/22c950295gx2kqj80tvj8wqc0000gn/T//ccYIBijp.s 			page 15


 659:Drivers/STM32F3xx_HAL_Driver/Src/stm32f3xx_hal_adc.c ****   *          @arg @ref HAL_ADC_INJ_CONVERSION_COMPLETE_CB_ID  ADC group injected conversion complet
 660:Drivers/STM32F3xx_HAL_Driver/Src/stm32f3xx_hal_adc.c ****   *          @arg @ref HAL_ADC_MSPINIT_CB_ID                  ADC Msp Init callback ID
 661:Drivers/STM32F3xx_HAL_Driver/Src/stm32f3xx_hal_adc.c ****   *          @arg @ref HAL_ADC_MSPDEINIT_CB_ID                ADC Msp DeInit callback ID
 662:Drivers/STM32F3xx_HAL_Driver/Src/stm32f3xx_hal_adc.c ****   *          @arg @ref HAL_ADC_MSPINIT_CB_ID MspInit callback ID
 663:Drivers/STM32F3xx_HAL_Driver/Src/stm32f3xx_hal_adc.c ****   *          @arg @ref HAL_ADC_MSPDEINIT_CB_ID MspDeInit callback ID
 664:Drivers/STM32F3xx_HAL_Driver/Src/stm32f3xx_hal_adc.c ****   * @retval HAL status
 665:Drivers/STM32F3xx_HAL_Driver/Src/stm32f3xx_hal_adc.c ****   */
 666:Drivers/STM32F3xx_HAL_Driver/Src/stm32f3xx_hal_adc.c **** HAL_StatusTypeDef HAL_ADC_UnRegisterCallback(ADC_HandleTypeDef *hadc, HAL_ADC_CallbackIDTypeDef Cal
 667:Drivers/STM32F3xx_HAL_Driver/Src/stm32f3xx_hal_adc.c **** {
 668:Drivers/STM32F3xx_HAL_Driver/Src/stm32f3xx_hal_adc.c ****   HAL_StatusTypeDef status = HAL_OK;
 669:Drivers/STM32F3xx_HAL_Driver/Src/stm32f3xx_hal_adc.c ****   
 670:Drivers/STM32F3xx_HAL_Driver/Src/stm32f3xx_hal_adc.c ****   if ((hadc->State & HAL_ADC_STATE_READY) != 0)
 671:Drivers/STM32F3xx_HAL_Driver/Src/stm32f3xx_hal_adc.c ****   {
 672:Drivers/STM32F3xx_HAL_Driver/Src/stm32f3xx_hal_adc.c ****     switch (CallbackID)
 673:Drivers/STM32F3xx_HAL_Driver/Src/stm32f3xx_hal_adc.c ****     {
 674:Drivers/STM32F3xx_HAL_Driver/Src/stm32f3xx_hal_adc.c ****       case HAL_ADC_CONVERSION_COMPLETE_CB_ID :
 675:Drivers/STM32F3xx_HAL_Driver/Src/stm32f3xx_hal_adc.c ****         hadc->ConvCpltCallback = HAL_ADC_ConvCpltCallback;
 676:Drivers/STM32F3xx_HAL_Driver/Src/stm32f3xx_hal_adc.c ****         break;
 677:Drivers/STM32F3xx_HAL_Driver/Src/stm32f3xx_hal_adc.c ****       
 678:Drivers/STM32F3xx_HAL_Driver/Src/stm32f3xx_hal_adc.c ****       case HAL_ADC_CONVERSION_HALF_CB_ID :
 679:Drivers/STM32F3xx_HAL_Driver/Src/stm32f3xx_hal_adc.c ****         hadc->ConvHalfCpltCallback = HAL_ADC_ConvHalfCpltCallback;
 680:Drivers/STM32F3xx_HAL_Driver/Src/stm32f3xx_hal_adc.c ****         break;
 681:Drivers/STM32F3xx_HAL_Driver/Src/stm32f3xx_hal_adc.c ****       
 682:Drivers/STM32F3xx_HAL_Driver/Src/stm32f3xx_hal_adc.c ****       case HAL_ADC_LEVEL_OUT_OF_WINDOW_1_CB_ID :
 683:Drivers/STM32F3xx_HAL_Driver/Src/stm32f3xx_hal_adc.c ****         hadc->LevelOutOfWindowCallback = HAL_ADC_LevelOutOfWindowCallback;
 684:Drivers/STM32F3xx_HAL_Driver/Src/stm32f3xx_hal_adc.c ****         break;
 685:Drivers/STM32F3xx_HAL_Driver/Src/stm32f3xx_hal_adc.c ****       
 686:Drivers/STM32F3xx_HAL_Driver/Src/stm32f3xx_hal_adc.c ****       case HAL_ADC_ERROR_CB_ID :
 687:Drivers/STM32F3xx_HAL_Driver/Src/stm32f3xx_hal_adc.c ****         hadc->ErrorCallback = HAL_ADC_ErrorCallback;
 688:Drivers/STM32F3xx_HAL_Driver/Src/stm32f3xx_hal_adc.c ****         break;
 689:Drivers/STM32F3xx_HAL_Driver/Src/stm32f3xx_hal_adc.c ****       
 690:Drivers/STM32F3xx_HAL_Driver/Src/stm32f3xx_hal_adc.c ****       case HAL_ADC_INJ_CONVERSION_COMPLETE_CB_ID :
 691:Drivers/STM32F3xx_HAL_Driver/Src/stm32f3xx_hal_adc.c ****         hadc->InjectedConvCpltCallback = HAL_ADCEx_InjectedConvCpltCallback;
 692:Drivers/STM32F3xx_HAL_Driver/Src/stm32f3xx_hal_adc.c ****         break;
 693:Drivers/STM32F3xx_HAL_Driver/Src/stm32f3xx_hal_adc.c ****       
 694:Drivers/STM32F3xx_HAL_Driver/Src/stm32f3xx_hal_adc.c ****       case HAL_ADC_MSPINIT_CB_ID :
 695:Drivers/STM32F3xx_HAL_Driver/Src/stm32f3xx_hal_adc.c ****         hadc->MspInitCallback = HAL_ADC_MspInit; /* Legacy weak MspInit              */
 696:Drivers/STM32F3xx_HAL_Driver/Src/stm32f3xx_hal_adc.c ****         break;
 697:Drivers/STM32F3xx_HAL_Driver/Src/stm32f3xx_hal_adc.c ****       
 698:Drivers/STM32F3xx_HAL_Driver/Src/stm32f3xx_hal_adc.c ****       case HAL_ADC_MSPDEINIT_CB_ID :
 699:Drivers/STM32F3xx_HAL_Driver/Src/stm32f3xx_hal_adc.c ****         hadc->MspDeInitCallback = HAL_ADC_MspDeInit; /* Legacy weak MspDeInit            */
 700:Drivers/STM32F3xx_HAL_Driver/Src/stm32f3xx_hal_adc.c ****         break;
 701:Drivers/STM32F3xx_HAL_Driver/Src/stm32f3xx_hal_adc.c ****       
 702:Drivers/STM32F3xx_HAL_Driver/Src/stm32f3xx_hal_adc.c ****       default :
 703:Drivers/STM32F3xx_HAL_Driver/Src/stm32f3xx_hal_adc.c ****         /* Update the error code */
 704:Drivers/STM32F3xx_HAL_Driver/Src/stm32f3xx_hal_adc.c ****         hadc->ErrorCode |= HAL_ADC_ERROR_INVALID_CALLBACK;
 705:Drivers/STM32F3xx_HAL_Driver/Src/stm32f3xx_hal_adc.c ****         
 706:Drivers/STM32F3xx_HAL_Driver/Src/stm32f3xx_hal_adc.c ****         /* Return error status */
 707:Drivers/STM32F3xx_HAL_Driver/Src/stm32f3xx_hal_adc.c ****         status =  HAL_ERROR;
 708:Drivers/STM32F3xx_HAL_Driver/Src/stm32f3xx_hal_adc.c ****         break;
 709:Drivers/STM32F3xx_HAL_Driver/Src/stm32f3xx_hal_adc.c ****     }
 710:Drivers/STM32F3xx_HAL_Driver/Src/stm32f3xx_hal_adc.c ****   }
 711:Drivers/STM32F3xx_HAL_Driver/Src/stm32f3xx_hal_adc.c ****   else if (HAL_ADC_STATE_RESET == hadc->State)
 712:Drivers/STM32F3xx_HAL_Driver/Src/stm32f3xx_hal_adc.c ****   {
 713:Drivers/STM32F3xx_HAL_Driver/Src/stm32f3xx_hal_adc.c ****     switch (CallbackID)
 714:Drivers/STM32F3xx_HAL_Driver/Src/stm32f3xx_hal_adc.c ****     {
 715:Drivers/STM32F3xx_HAL_Driver/Src/stm32f3xx_hal_adc.c ****       case HAL_ADC_MSPINIT_CB_ID :
ARM GAS  /var/folders/b1/22c950295gx2kqj80tvj8wqc0000gn/T//ccYIBijp.s 			page 16


 716:Drivers/STM32F3xx_HAL_Driver/Src/stm32f3xx_hal_adc.c ****         hadc->MspInitCallback = HAL_ADC_MspInit;                   /* Legacy weak MspInit          
 717:Drivers/STM32F3xx_HAL_Driver/Src/stm32f3xx_hal_adc.c ****         break;
 718:Drivers/STM32F3xx_HAL_Driver/Src/stm32f3xx_hal_adc.c ****         
 719:Drivers/STM32F3xx_HAL_Driver/Src/stm32f3xx_hal_adc.c ****       case HAL_ADC_MSPDEINIT_CB_ID :
 720:Drivers/STM32F3xx_HAL_Driver/Src/stm32f3xx_hal_adc.c ****         hadc->MspDeInitCallback = HAL_ADC_MspDeInit;               /* Legacy weak MspDeInit        
 721:Drivers/STM32F3xx_HAL_Driver/Src/stm32f3xx_hal_adc.c ****         break;
 722:Drivers/STM32F3xx_HAL_Driver/Src/stm32f3xx_hal_adc.c ****         
 723:Drivers/STM32F3xx_HAL_Driver/Src/stm32f3xx_hal_adc.c ****       default :
 724:Drivers/STM32F3xx_HAL_Driver/Src/stm32f3xx_hal_adc.c ****         /* Update the error code */
 725:Drivers/STM32F3xx_HAL_Driver/Src/stm32f3xx_hal_adc.c ****         hadc->ErrorCode |= HAL_ADC_ERROR_INVALID_CALLBACK;
 726:Drivers/STM32F3xx_HAL_Driver/Src/stm32f3xx_hal_adc.c ****         
 727:Drivers/STM32F3xx_HAL_Driver/Src/stm32f3xx_hal_adc.c ****         /* Return error status */
 728:Drivers/STM32F3xx_HAL_Driver/Src/stm32f3xx_hal_adc.c ****         status =  HAL_ERROR;
 729:Drivers/STM32F3xx_HAL_Driver/Src/stm32f3xx_hal_adc.c ****         break;
 730:Drivers/STM32F3xx_HAL_Driver/Src/stm32f3xx_hal_adc.c ****     }
 731:Drivers/STM32F3xx_HAL_Driver/Src/stm32f3xx_hal_adc.c ****   }
 732:Drivers/STM32F3xx_HAL_Driver/Src/stm32f3xx_hal_adc.c ****   else
 733:Drivers/STM32F3xx_HAL_Driver/Src/stm32f3xx_hal_adc.c ****   {
 734:Drivers/STM32F3xx_HAL_Driver/Src/stm32f3xx_hal_adc.c ****     /* Update the error code */
 735:Drivers/STM32F3xx_HAL_Driver/Src/stm32f3xx_hal_adc.c ****     hadc->ErrorCode |= HAL_ADC_ERROR_INVALID_CALLBACK;
 736:Drivers/STM32F3xx_HAL_Driver/Src/stm32f3xx_hal_adc.c ****     
 737:Drivers/STM32F3xx_HAL_Driver/Src/stm32f3xx_hal_adc.c ****     /* Return error status */
 738:Drivers/STM32F3xx_HAL_Driver/Src/stm32f3xx_hal_adc.c ****     status =  HAL_ERROR;
 739:Drivers/STM32F3xx_HAL_Driver/Src/stm32f3xx_hal_adc.c ****   }
 740:Drivers/STM32F3xx_HAL_Driver/Src/stm32f3xx_hal_adc.c ****   
 741:Drivers/STM32F3xx_HAL_Driver/Src/stm32f3xx_hal_adc.c ****   return status;
 742:Drivers/STM32F3xx_HAL_Driver/Src/stm32f3xx_hal_adc.c **** }
 743:Drivers/STM32F3xx_HAL_Driver/Src/stm32f3xx_hal_adc.c **** 
 744:Drivers/STM32F3xx_HAL_Driver/Src/stm32f3xx_hal_adc.c **** #endif /* USE_HAL_ADC_REGISTER_CALLBACKS */
 745:Drivers/STM32F3xx_HAL_Driver/Src/stm32f3xx_hal_adc.c **** 
 746:Drivers/STM32F3xx_HAL_Driver/Src/stm32f3xx_hal_adc.c **** /**
 747:Drivers/STM32F3xx_HAL_Driver/Src/stm32f3xx_hal_adc.c ****   * @}
 748:Drivers/STM32F3xx_HAL_Driver/Src/stm32f3xx_hal_adc.c ****   */
 749:Drivers/STM32F3xx_HAL_Driver/Src/stm32f3xx_hal_adc.c **** 
 750:Drivers/STM32F3xx_HAL_Driver/Src/stm32f3xx_hal_adc.c **** /** @defgroup ADC_Exported_Functions_Group2 Input and Output operation functions
 751:Drivers/STM32F3xx_HAL_Driver/Src/stm32f3xx_hal_adc.c ****  *  @brief    IO operation functions 
 752:Drivers/STM32F3xx_HAL_Driver/Src/stm32f3xx_hal_adc.c ****  *
 753:Drivers/STM32F3xx_HAL_Driver/Src/stm32f3xx_hal_adc.c **** @verbatim   
 754:Drivers/STM32F3xx_HAL_Driver/Src/stm32f3xx_hal_adc.c ****  ===============================================================================
 755:Drivers/STM32F3xx_HAL_Driver/Src/stm32f3xx_hal_adc.c ****              ##### IO operation functions #####
 756:Drivers/STM32F3xx_HAL_Driver/Src/stm32f3xx_hal_adc.c ****  ===============================================================================  
 757:Drivers/STM32F3xx_HAL_Driver/Src/stm32f3xx_hal_adc.c ****     [..]  This section provides functions allowing to:
 758:Drivers/STM32F3xx_HAL_Driver/Src/stm32f3xx_hal_adc.c ****       (+) Start conversion of regular group.
 759:Drivers/STM32F3xx_HAL_Driver/Src/stm32f3xx_hal_adc.c ****       (+) Stop conversion of regular group.
 760:Drivers/STM32F3xx_HAL_Driver/Src/stm32f3xx_hal_adc.c ****       (+) Poll for conversion complete on regular group.
 761:Drivers/STM32F3xx_HAL_Driver/Src/stm32f3xx_hal_adc.c ****       (+) Poll for conversion event.
 762:Drivers/STM32F3xx_HAL_Driver/Src/stm32f3xx_hal_adc.c ****       (+) Get result of regular channel conversion.
 763:Drivers/STM32F3xx_HAL_Driver/Src/stm32f3xx_hal_adc.c ****       (+) Start conversion of regular group and enable interruptions.
 764:Drivers/STM32F3xx_HAL_Driver/Src/stm32f3xx_hal_adc.c ****       (+) Stop conversion of regular group and disable interruptions.
 765:Drivers/STM32F3xx_HAL_Driver/Src/stm32f3xx_hal_adc.c ****       (+) Handle ADC interrupt request
 766:Drivers/STM32F3xx_HAL_Driver/Src/stm32f3xx_hal_adc.c ****       (+) Start conversion of regular group and enable DMA transfer.
 767:Drivers/STM32F3xx_HAL_Driver/Src/stm32f3xx_hal_adc.c ****       (+) Stop conversion of regular group and disable ADC DMA transfer.
 768:Drivers/STM32F3xx_HAL_Driver/Src/stm32f3xx_hal_adc.c ****                
 769:Drivers/STM32F3xx_HAL_Driver/Src/stm32f3xx_hal_adc.c **** @endverbatim
 770:Drivers/STM32F3xx_HAL_Driver/Src/stm32f3xx_hal_adc.c ****   * @{
 771:Drivers/STM32F3xx_HAL_Driver/Src/stm32f3xx_hal_adc.c ****   */
 772:Drivers/STM32F3xx_HAL_Driver/Src/stm32f3xx_hal_adc.c **** /**
ARM GAS  /var/folders/b1/22c950295gx2kqj80tvj8wqc0000gn/T//ccYIBijp.s 			page 17


 773:Drivers/STM32F3xx_HAL_Driver/Src/stm32f3xx_hal_adc.c ****   * @brief  Enables ADC, starts conversion of regular group.
 774:Drivers/STM32F3xx_HAL_Driver/Src/stm32f3xx_hal_adc.c ****   *         Interruptions enabled in this function: None.
 775:Drivers/STM32F3xx_HAL_Driver/Src/stm32f3xx_hal_adc.c ****   * @note:  Case of multimode enabled (for devices with several ADCs): This 
 776:Drivers/STM32F3xx_HAL_Driver/Src/stm32f3xx_hal_adc.c ****   *         function must be called for ADC slave first, then ADC master. 
 777:Drivers/STM32F3xx_HAL_Driver/Src/stm32f3xx_hal_adc.c ****   *         For ADC slave, ADC is enabled only (conversion is not started).  
 778:Drivers/STM32F3xx_HAL_Driver/Src/stm32f3xx_hal_adc.c ****   *         For ADC master, ADC is enabled and multimode conversion is started.
 779:Drivers/STM32F3xx_HAL_Driver/Src/stm32f3xx_hal_adc.c ****   * @param  hadc ADC handle
 780:Drivers/STM32F3xx_HAL_Driver/Src/stm32f3xx_hal_adc.c ****   * @retval HAL status
 781:Drivers/STM32F3xx_HAL_Driver/Src/stm32f3xx_hal_adc.c ****   */
 782:Drivers/STM32F3xx_HAL_Driver/Src/stm32f3xx_hal_adc.c **** __weak HAL_StatusTypeDef HAL_ADC_Start(ADC_HandleTypeDef* hadc)
 783:Drivers/STM32F3xx_HAL_Driver/Src/stm32f3xx_hal_adc.c **** {
 784:Drivers/STM32F3xx_HAL_Driver/Src/stm32f3xx_hal_adc.c ****   /* Prevent unused argument(s) compilation warning */
 785:Drivers/STM32F3xx_HAL_Driver/Src/stm32f3xx_hal_adc.c ****   UNUSED(hadc);
 786:Drivers/STM32F3xx_HAL_Driver/Src/stm32f3xx_hal_adc.c **** 
 787:Drivers/STM32F3xx_HAL_Driver/Src/stm32f3xx_hal_adc.c ****   /* Return function status */
 788:Drivers/STM32F3xx_HAL_Driver/Src/stm32f3xx_hal_adc.c ****   return HAL_ERROR;
 789:Drivers/STM32F3xx_HAL_Driver/Src/stm32f3xx_hal_adc.c **** }
 790:Drivers/STM32F3xx_HAL_Driver/Src/stm32f3xx_hal_adc.c **** 
 791:Drivers/STM32F3xx_HAL_Driver/Src/stm32f3xx_hal_adc.c **** /**
 792:Drivers/STM32F3xx_HAL_Driver/Src/stm32f3xx_hal_adc.c ****   * @brief  Stop ADC conversion of regular group (and injected group in 
 793:Drivers/STM32F3xx_HAL_Driver/Src/stm32f3xx_hal_adc.c ****   *         case of auto_injection mode), disable ADC peripheral.
 794:Drivers/STM32F3xx_HAL_Driver/Src/stm32f3xx_hal_adc.c ****   * @note:  ADC peripheral disable is forcing stop of potential 
 795:Drivers/STM32F3xx_HAL_Driver/Src/stm32f3xx_hal_adc.c ****   *         conversion on injected group. If injected group is under use, it
 796:Drivers/STM32F3xx_HAL_Driver/Src/stm32f3xx_hal_adc.c ****   *         should be preliminarily stopped using HAL_ADCEx_InjectedStop function.
 797:Drivers/STM32F3xx_HAL_Driver/Src/stm32f3xx_hal_adc.c ****   * @note:  Case of multimode enabled (for devices with several ADCs): This 
 798:Drivers/STM32F3xx_HAL_Driver/Src/stm32f3xx_hal_adc.c ****   *         function must be called for ADC master first, then ADC slave.
 799:Drivers/STM32F3xx_HAL_Driver/Src/stm32f3xx_hal_adc.c ****   *         For ADC master, converson is stopped and ADC is disabled. 
 800:Drivers/STM32F3xx_HAL_Driver/Src/stm32f3xx_hal_adc.c ****   *         For ADC slave, ADC is disabled only (conversion stop of ADC master
 801:Drivers/STM32F3xx_HAL_Driver/Src/stm32f3xx_hal_adc.c ****   *         has already stopped conversion of ADC slave).
 802:Drivers/STM32F3xx_HAL_Driver/Src/stm32f3xx_hal_adc.c ****   * @param  hadc ADC handle
 803:Drivers/STM32F3xx_HAL_Driver/Src/stm32f3xx_hal_adc.c ****   * @retval HAL status.
 804:Drivers/STM32F3xx_HAL_Driver/Src/stm32f3xx_hal_adc.c ****   */
 805:Drivers/STM32F3xx_HAL_Driver/Src/stm32f3xx_hal_adc.c **** __weak HAL_StatusTypeDef HAL_ADC_Stop(ADC_HandleTypeDef* hadc)
 806:Drivers/STM32F3xx_HAL_Driver/Src/stm32f3xx_hal_adc.c **** {
 807:Drivers/STM32F3xx_HAL_Driver/Src/stm32f3xx_hal_adc.c ****   /* Prevent unused argument(s) compilation warning */
 808:Drivers/STM32F3xx_HAL_Driver/Src/stm32f3xx_hal_adc.c ****   UNUSED(hadc);
 809:Drivers/STM32F3xx_HAL_Driver/Src/stm32f3xx_hal_adc.c **** 
 810:Drivers/STM32F3xx_HAL_Driver/Src/stm32f3xx_hal_adc.c ****   /* Note : This function is defined into this file for library reference. */
 811:Drivers/STM32F3xx_HAL_Driver/Src/stm32f3xx_hal_adc.c ****   /*        Function content is located into file stm32f3xx_hal_adc_ex.c   */
 812:Drivers/STM32F3xx_HAL_Driver/Src/stm32f3xx_hal_adc.c ****   
 813:Drivers/STM32F3xx_HAL_Driver/Src/stm32f3xx_hal_adc.c ****   /* Return function status */
 814:Drivers/STM32F3xx_HAL_Driver/Src/stm32f3xx_hal_adc.c ****   return HAL_ERROR;
 815:Drivers/STM32F3xx_HAL_Driver/Src/stm32f3xx_hal_adc.c **** }
 816:Drivers/STM32F3xx_HAL_Driver/Src/stm32f3xx_hal_adc.c **** 
 817:Drivers/STM32F3xx_HAL_Driver/Src/stm32f3xx_hal_adc.c **** /**
 818:Drivers/STM32F3xx_HAL_Driver/Src/stm32f3xx_hal_adc.c ****   * @brief  Wait for regular group conversion to be completed.
 819:Drivers/STM32F3xx_HAL_Driver/Src/stm32f3xx_hal_adc.c ****   * @param  hadc ADC handle
 820:Drivers/STM32F3xx_HAL_Driver/Src/stm32f3xx_hal_adc.c ****   * @param  Timeout Timeout value in millisecond.
 821:Drivers/STM32F3xx_HAL_Driver/Src/stm32f3xx_hal_adc.c ****   * @retval HAL status
 822:Drivers/STM32F3xx_HAL_Driver/Src/stm32f3xx_hal_adc.c ****   */
 823:Drivers/STM32F3xx_HAL_Driver/Src/stm32f3xx_hal_adc.c **** __weak HAL_StatusTypeDef HAL_ADC_PollForConversion(ADC_HandleTypeDef* hadc, uint32_t Timeout)
 824:Drivers/STM32F3xx_HAL_Driver/Src/stm32f3xx_hal_adc.c **** {
 154              		.loc 1 824 1 is_stmt 1 view -0
 155              		.cfi_startproc
 156              		@ args = 0, pretend = 0, frame = 0
 157              		@ frame_needed = 0, uses_anonymous_args = 0
 158              		@ link register save eliminated.
ARM GAS  /var/folders/b1/22c950295gx2kqj80tvj8wqc0000gn/T//ccYIBijp.s 			page 18


 825:Drivers/STM32F3xx_HAL_Driver/Src/stm32f3xx_hal_adc.c ****   /* Prevent unused argument(s) compilation warning */
 826:Drivers/STM32F3xx_HAL_Driver/Src/stm32f3xx_hal_adc.c ****   UNUSED(hadc);
 159              		.loc 1 826 3 view .LVU9
 827:Drivers/STM32F3xx_HAL_Driver/Src/stm32f3xx_hal_adc.c ****   UNUSED(Timeout);
 160              		.loc 1 827 3 view .LVU10
 828:Drivers/STM32F3xx_HAL_Driver/Src/stm32f3xx_hal_adc.c **** 
 829:Drivers/STM32F3xx_HAL_Driver/Src/stm32f3xx_hal_adc.c ****   /* Note : This function is defined into this file for library reference. */
 830:Drivers/STM32F3xx_HAL_Driver/Src/stm32f3xx_hal_adc.c ****   /*        Function content is located into file stm32f3xx_hal_adc_ex.c   */
 831:Drivers/STM32F3xx_HAL_Driver/Src/stm32f3xx_hal_adc.c ****   
 832:Drivers/STM32F3xx_HAL_Driver/Src/stm32f3xx_hal_adc.c ****   /* Return function status */
 833:Drivers/STM32F3xx_HAL_Driver/Src/stm32f3xx_hal_adc.c ****   return HAL_ERROR;
 161              		.loc 1 833 3 view .LVU11
 834:Drivers/STM32F3xx_HAL_Driver/Src/stm32f3xx_hal_adc.c **** }
 162              		.loc 1 834 1 is_stmt 0 view .LVU12
 163 0000 0120     		movs	r0, #1
 164              	.LVL4:
 165              		.loc 1 834 1 view .LVU13
 166 0002 7047     		bx	lr
 167              		.cfi_endproc
 168              	.LFE129:
 170              		.section	.text.HAL_ADC_PollForEvent,"ax",%progbits
 171              		.align	1
 172              		.p2align 2,,3
 173              		.weak	HAL_ADC_PollForEvent
 174              		.syntax unified
 175              		.thumb
 176              		.thumb_func
 178              	HAL_ADC_PollForEvent:
 179              	.LVL5:
 180              	.LFB130:
 835:Drivers/STM32F3xx_HAL_Driver/Src/stm32f3xx_hal_adc.c **** 
 836:Drivers/STM32F3xx_HAL_Driver/Src/stm32f3xx_hal_adc.c **** /**
 837:Drivers/STM32F3xx_HAL_Driver/Src/stm32f3xx_hal_adc.c ****   * @brief  Poll for conversion event.
 838:Drivers/STM32F3xx_HAL_Driver/Src/stm32f3xx_hal_adc.c ****   * @param  hadc ADC handle
 839:Drivers/STM32F3xx_HAL_Driver/Src/stm32f3xx_hal_adc.c ****   * @param  EventType the ADC event type.
 840:Drivers/STM32F3xx_HAL_Driver/Src/stm32f3xx_hal_adc.c ****   *          This parameter can be one of the following values:
 841:Drivers/STM32F3xx_HAL_Driver/Src/stm32f3xx_hal_adc.c ****   *            @arg ADC_AWD_EVENT: ADC Analog watchdog 1 event (main analog watchdog, present on al
 842:Drivers/STM32F3xx_HAL_Driver/Src/stm32f3xx_hal_adc.c ****   *            @arg ADC_AWD2_EVENT: ADC Analog watchdog 2 event (additional analog watchdog, presen
 843:Drivers/STM32F3xx_HAL_Driver/Src/stm32f3xx_hal_adc.c ****   *            @arg ADC_AWD3_EVENT: ADC Analog watchdog 3 event (additional analog watchdog, presen
 844:Drivers/STM32F3xx_HAL_Driver/Src/stm32f3xx_hal_adc.c ****   *            @arg ADC_OVR_EVENT: ADC Overrun event
 845:Drivers/STM32F3xx_HAL_Driver/Src/stm32f3xx_hal_adc.c ****   *            @arg ADC_JQOVF_EVENT: ADC Injected context queue overflow event
 846:Drivers/STM32F3xx_HAL_Driver/Src/stm32f3xx_hal_adc.c ****   * @param  Timeout Timeout value in millisecond.
 847:Drivers/STM32F3xx_HAL_Driver/Src/stm32f3xx_hal_adc.c ****   * @retval HAL status
 848:Drivers/STM32F3xx_HAL_Driver/Src/stm32f3xx_hal_adc.c ****   */
 849:Drivers/STM32F3xx_HAL_Driver/Src/stm32f3xx_hal_adc.c **** __weak HAL_StatusTypeDef HAL_ADC_PollForEvent(ADC_HandleTypeDef* hadc, uint32_t EventType, uint32_t
 850:Drivers/STM32F3xx_HAL_Driver/Src/stm32f3xx_hal_adc.c **** {
 181              		.loc 1 850 1 is_stmt 1 view -0
 182              		.cfi_startproc
 183              		@ args = 0, pretend = 0, frame = 0
 184              		@ frame_needed = 0, uses_anonymous_args = 0
 185              		@ link register save eliminated.
 851:Drivers/STM32F3xx_HAL_Driver/Src/stm32f3xx_hal_adc.c ****   /* Prevent unused argument(s) compilation warning */
 852:Drivers/STM32F3xx_HAL_Driver/Src/stm32f3xx_hal_adc.c ****   UNUSED(hadc);
 186              		.loc 1 852 3 view .LVU15
 853:Drivers/STM32F3xx_HAL_Driver/Src/stm32f3xx_hal_adc.c ****   UNUSED(EventType);
 187              		.loc 1 853 3 view .LVU16
 854:Drivers/STM32F3xx_HAL_Driver/Src/stm32f3xx_hal_adc.c ****   UNUSED(Timeout);
ARM GAS  /var/folders/b1/22c950295gx2kqj80tvj8wqc0000gn/T//ccYIBijp.s 			page 19


 188              		.loc 1 854 3 view .LVU17
 855:Drivers/STM32F3xx_HAL_Driver/Src/stm32f3xx_hal_adc.c **** 
 856:Drivers/STM32F3xx_HAL_Driver/Src/stm32f3xx_hal_adc.c ****   /* Note : This function is defined into this file for library reference. */
 857:Drivers/STM32F3xx_HAL_Driver/Src/stm32f3xx_hal_adc.c ****   /*        Function content is located into file stm32f3xx_hal_adc_ex.c   */
 858:Drivers/STM32F3xx_HAL_Driver/Src/stm32f3xx_hal_adc.c ****   
 859:Drivers/STM32F3xx_HAL_Driver/Src/stm32f3xx_hal_adc.c ****   /* Return function status */
 860:Drivers/STM32F3xx_HAL_Driver/Src/stm32f3xx_hal_adc.c ****   return HAL_ERROR;
 189              		.loc 1 860 3 view .LVU18
 861:Drivers/STM32F3xx_HAL_Driver/Src/stm32f3xx_hal_adc.c **** }
 190              		.loc 1 861 1 is_stmt 0 view .LVU19
 191 0000 0120     		movs	r0, #1
 192              	.LVL6:
 193              		.loc 1 861 1 view .LVU20
 194 0002 7047     		bx	lr
 195              		.cfi_endproc
 196              	.LFE130:
 198              		.section	.text.HAL_ADC_Start_IT,"ax",%progbits
 199              		.align	1
 200              		.p2align 2,,3
 201              		.weak	HAL_ADC_Start_IT
 202              		.syntax unified
 203              		.thumb
 204              		.thumb_func
 206              	HAL_ADC_Start_IT:
 207              	.LFB152:
 208              		.cfi_startproc
 209              		@ args = 0, pretend = 0, frame = 0
 210              		@ frame_needed = 0, uses_anonymous_args = 0
 211              		@ link register save eliminated.
 212 0000 0120     		movs	r0, #1
 213 0002 7047     		bx	lr
 214              		.cfi_endproc
 215              	.LFE152:
 217              		.section	.text.HAL_ADC_Stop_IT,"ax",%progbits
 218              		.align	1
 219              		.p2align 2,,3
 220              		.weak	HAL_ADC_Stop_IT
 221              		.syntax unified
 222              		.thumb
 223              		.thumb_func
 225              	HAL_ADC_Stop_IT:
 226              	.LFB154:
 227              		.cfi_startproc
 228              		@ args = 0, pretend = 0, frame = 0
 229              		@ frame_needed = 0, uses_anonymous_args = 0
 230              		@ link register save eliminated.
 231 0000 0120     		movs	r0, #1
 232 0002 7047     		bx	lr
 233              		.cfi_endproc
 234              	.LFE154:
 236              		.section	.text.HAL_ADC_Start_DMA,"ax",%progbits
 237              		.align	1
 238              		.p2align 2,,3
 239              		.weak	HAL_ADC_Start_DMA
 240              		.syntax unified
 241              		.thumb
 242              		.thumb_func
ARM GAS  /var/folders/b1/22c950295gx2kqj80tvj8wqc0000gn/T//ccYIBijp.s 			page 20


 244              	HAL_ADC_Start_DMA:
 245              	.LVL7:
 246              	.LFB133:
 862:Drivers/STM32F3xx_HAL_Driver/Src/stm32f3xx_hal_adc.c **** 
 863:Drivers/STM32F3xx_HAL_Driver/Src/stm32f3xx_hal_adc.c **** /**
 864:Drivers/STM32F3xx_HAL_Driver/Src/stm32f3xx_hal_adc.c ****   * @brief  Enables ADC, starts conversion of regular group with interruption.
 865:Drivers/STM32F3xx_HAL_Driver/Src/stm32f3xx_hal_adc.c ****   *         Interruptions enabled in this function:
 866:Drivers/STM32F3xx_HAL_Driver/Src/stm32f3xx_hal_adc.c ****   *          - EOC (end of conversion of regular group) or EOS (end of 
 867:Drivers/STM32F3xx_HAL_Driver/Src/stm32f3xx_hal_adc.c ****   *            sequence of regular group) depending on ADC initialization 
 868:Drivers/STM32F3xx_HAL_Driver/Src/stm32f3xx_hal_adc.c ****   *            parameter "EOCSelection" (if available)
 869:Drivers/STM32F3xx_HAL_Driver/Src/stm32f3xx_hal_adc.c ****   *          - overrun (if available)
 870:Drivers/STM32F3xx_HAL_Driver/Src/stm32f3xx_hal_adc.c ****   *         Each of these interruptions has its dedicated callback function.
 871:Drivers/STM32F3xx_HAL_Driver/Src/stm32f3xx_hal_adc.c ****   * @note:  Case of multimode enabled (for devices with several ADCs): This 
 872:Drivers/STM32F3xx_HAL_Driver/Src/stm32f3xx_hal_adc.c ****   *         function must be called for ADC slave first, then ADC master. 
 873:Drivers/STM32F3xx_HAL_Driver/Src/stm32f3xx_hal_adc.c ****   *         For ADC slave, ADC is enabled only (conversion is not started).  
 874:Drivers/STM32F3xx_HAL_Driver/Src/stm32f3xx_hal_adc.c ****   *         For ADC master, ADC is enabled and multimode conversion is started.
 875:Drivers/STM32F3xx_HAL_Driver/Src/stm32f3xx_hal_adc.c ****   * @param  hadc ADC handle
 876:Drivers/STM32F3xx_HAL_Driver/Src/stm32f3xx_hal_adc.c ****   * @retval HAL status
 877:Drivers/STM32F3xx_HAL_Driver/Src/stm32f3xx_hal_adc.c ****   */
 878:Drivers/STM32F3xx_HAL_Driver/Src/stm32f3xx_hal_adc.c **** __weak HAL_StatusTypeDef HAL_ADC_Start_IT(ADC_HandleTypeDef* hadc)
 879:Drivers/STM32F3xx_HAL_Driver/Src/stm32f3xx_hal_adc.c **** {
 880:Drivers/STM32F3xx_HAL_Driver/Src/stm32f3xx_hal_adc.c ****   /* Prevent unused argument(s) compilation warning */
 881:Drivers/STM32F3xx_HAL_Driver/Src/stm32f3xx_hal_adc.c ****   UNUSED(hadc);
 882:Drivers/STM32F3xx_HAL_Driver/Src/stm32f3xx_hal_adc.c **** 
 883:Drivers/STM32F3xx_HAL_Driver/Src/stm32f3xx_hal_adc.c ****   /* Note : This function is defined into this file for library reference. */
 884:Drivers/STM32F3xx_HAL_Driver/Src/stm32f3xx_hal_adc.c ****   /*        Function content is located into file stm32f3xx_hal_adc_ex.c   */
 885:Drivers/STM32F3xx_HAL_Driver/Src/stm32f3xx_hal_adc.c ****   
 886:Drivers/STM32F3xx_HAL_Driver/Src/stm32f3xx_hal_adc.c ****   /* Return function status */
 887:Drivers/STM32F3xx_HAL_Driver/Src/stm32f3xx_hal_adc.c ****   return HAL_ERROR;
 888:Drivers/STM32F3xx_HAL_Driver/Src/stm32f3xx_hal_adc.c **** }
 889:Drivers/STM32F3xx_HAL_Driver/Src/stm32f3xx_hal_adc.c **** 
 890:Drivers/STM32F3xx_HAL_Driver/Src/stm32f3xx_hal_adc.c **** /**
 891:Drivers/STM32F3xx_HAL_Driver/Src/stm32f3xx_hal_adc.c ****   * @brief  Stop ADC conversion of regular group (and injected group in 
 892:Drivers/STM32F3xx_HAL_Driver/Src/stm32f3xx_hal_adc.c ****   *         case of auto_injection mode), disable interruption of 
 893:Drivers/STM32F3xx_HAL_Driver/Src/stm32f3xx_hal_adc.c ****   *         end-of-conversion, disable ADC peripheral.
 894:Drivers/STM32F3xx_HAL_Driver/Src/stm32f3xx_hal_adc.c ****   * @note:  ADC peripheral disable is forcing stop of potential 
 895:Drivers/STM32F3xx_HAL_Driver/Src/stm32f3xx_hal_adc.c ****   *         conversion on injected group. If injected group is under use, it
 896:Drivers/STM32F3xx_HAL_Driver/Src/stm32f3xx_hal_adc.c ****   *         should be preliminarily stopped using HAL_ADCEx_InjectedStop function.
 897:Drivers/STM32F3xx_HAL_Driver/Src/stm32f3xx_hal_adc.c ****   * @note:  Case of multimode enabled (for devices with several ADCs): This 
 898:Drivers/STM32F3xx_HAL_Driver/Src/stm32f3xx_hal_adc.c ****   *         function must be called for ADC master first, then ADC slave.
 899:Drivers/STM32F3xx_HAL_Driver/Src/stm32f3xx_hal_adc.c ****   *         For ADC master, conversion is stopped and ADC is disabled. 
 900:Drivers/STM32F3xx_HAL_Driver/Src/stm32f3xx_hal_adc.c ****   *         For ADC slave, ADC is disabled only (conversion stop of ADC master
 901:Drivers/STM32F3xx_HAL_Driver/Src/stm32f3xx_hal_adc.c ****   *         has already stopped conversion of ADC slave).
 902:Drivers/STM32F3xx_HAL_Driver/Src/stm32f3xx_hal_adc.c ****   * @param  hadc ADC handle
 903:Drivers/STM32F3xx_HAL_Driver/Src/stm32f3xx_hal_adc.c ****   * @retval HAL status.
 904:Drivers/STM32F3xx_HAL_Driver/Src/stm32f3xx_hal_adc.c ****   */
 905:Drivers/STM32F3xx_HAL_Driver/Src/stm32f3xx_hal_adc.c **** __weak HAL_StatusTypeDef HAL_ADC_Stop_IT(ADC_HandleTypeDef* hadc)
 906:Drivers/STM32F3xx_HAL_Driver/Src/stm32f3xx_hal_adc.c **** {
 907:Drivers/STM32F3xx_HAL_Driver/Src/stm32f3xx_hal_adc.c ****   /* Prevent unused argument(s) compilation warning */
 908:Drivers/STM32F3xx_HAL_Driver/Src/stm32f3xx_hal_adc.c ****   UNUSED(hadc);
 909:Drivers/STM32F3xx_HAL_Driver/Src/stm32f3xx_hal_adc.c **** 
 910:Drivers/STM32F3xx_HAL_Driver/Src/stm32f3xx_hal_adc.c ****   /* Note : This function is defined into this file for library reference. */
 911:Drivers/STM32F3xx_HAL_Driver/Src/stm32f3xx_hal_adc.c ****   /*        Function content is located into file stm32f3xx_hal_adc_ex.c   */
 912:Drivers/STM32F3xx_HAL_Driver/Src/stm32f3xx_hal_adc.c ****   
 913:Drivers/STM32F3xx_HAL_Driver/Src/stm32f3xx_hal_adc.c ****   /* Return function status */
 914:Drivers/STM32F3xx_HAL_Driver/Src/stm32f3xx_hal_adc.c ****   return HAL_ERROR;
 915:Drivers/STM32F3xx_HAL_Driver/Src/stm32f3xx_hal_adc.c **** }
ARM GAS  /var/folders/b1/22c950295gx2kqj80tvj8wqc0000gn/T//ccYIBijp.s 			page 21


 916:Drivers/STM32F3xx_HAL_Driver/Src/stm32f3xx_hal_adc.c **** 
 917:Drivers/STM32F3xx_HAL_Driver/Src/stm32f3xx_hal_adc.c **** /**
 918:Drivers/STM32F3xx_HAL_Driver/Src/stm32f3xx_hal_adc.c ****   * @brief  Enables ADC, starts conversion of regular group and transfers result
 919:Drivers/STM32F3xx_HAL_Driver/Src/stm32f3xx_hal_adc.c ****   *         through DMA.
 920:Drivers/STM32F3xx_HAL_Driver/Src/stm32f3xx_hal_adc.c ****   *         Interruptions enabled in this function:
 921:Drivers/STM32F3xx_HAL_Driver/Src/stm32f3xx_hal_adc.c ****   *          - DMA transfer complete
 922:Drivers/STM32F3xx_HAL_Driver/Src/stm32f3xx_hal_adc.c ****   *          - DMA half transfer
 923:Drivers/STM32F3xx_HAL_Driver/Src/stm32f3xx_hal_adc.c ****   *          - overrun (if available)
 924:Drivers/STM32F3xx_HAL_Driver/Src/stm32f3xx_hal_adc.c ****   *         Each of these interruptions has its dedicated callback function.
 925:Drivers/STM32F3xx_HAL_Driver/Src/stm32f3xx_hal_adc.c ****   * @note:  Case of multimode enabled (for devices with several ADCs): This 
 926:Drivers/STM32F3xx_HAL_Driver/Src/stm32f3xx_hal_adc.c ****   *         function is for single-ADC mode only. For multimode, use the 
 927:Drivers/STM32F3xx_HAL_Driver/Src/stm32f3xx_hal_adc.c ****   *         dedicated MultimodeStart function.
 928:Drivers/STM32F3xx_HAL_Driver/Src/stm32f3xx_hal_adc.c ****   * @param  hadc ADC handle
 929:Drivers/STM32F3xx_HAL_Driver/Src/stm32f3xx_hal_adc.c ****   * @param  pData The destination Buffer address.
 930:Drivers/STM32F3xx_HAL_Driver/Src/stm32f3xx_hal_adc.c ****   * @param  Length The length of data to be transferred from ADC peripheral to memory.
 931:Drivers/STM32F3xx_HAL_Driver/Src/stm32f3xx_hal_adc.c ****   * @retval None
 932:Drivers/STM32F3xx_HAL_Driver/Src/stm32f3xx_hal_adc.c ****   */
 933:Drivers/STM32F3xx_HAL_Driver/Src/stm32f3xx_hal_adc.c **** __weak HAL_StatusTypeDef HAL_ADC_Start_DMA(ADC_HandleTypeDef* hadc, uint32_t* pData, uint32_t Lengt
 934:Drivers/STM32F3xx_HAL_Driver/Src/stm32f3xx_hal_adc.c **** {
 247              		.loc 1 934 1 is_stmt 1 view -0
 248              		.cfi_startproc
 249              		@ args = 0, pretend = 0, frame = 0
 250              		@ frame_needed = 0, uses_anonymous_args = 0
 251              		@ link register save eliminated.
 935:Drivers/STM32F3xx_HAL_Driver/Src/stm32f3xx_hal_adc.c ****   /* Prevent unused argument(s) compilation warning */
 936:Drivers/STM32F3xx_HAL_Driver/Src/stm32f3xx_hal_adc.c ****   UNUSED(hadc);
 252              		.loc 1 936 3 view .LVU22
 937:Drivers/STM32F3xx_HAL_Driver/Src/stm32f3xx_hal_adc.c ****   UNUSED(pData);
 253              		.loc 1 937 3 view .LVU23
 938:Drivers/STM32F3xx_HAL_Driver/Src/stm32f3xx_hal_adc.c ****   UNUSED(Length);
 254              		.loc 1 938 3 view .LVU24
 939:Drivers/STM32F3xx_HAL_Driver/Src/stm32f3xx_hal_adc.c **** 
 940:Drivers/STM32F3xx_HAL_Driver/Src/stm32f3xx_hal_adc.c ****   /* Note : This function is defined into this file for library reference. */
 941:Drivers/STM32F3xx_HAL_Driver/Src/stm32f3xx_hal_adc.c ****   /*        Function content is located into file stm32f3xx_hal_adc_ex.c   */
 942:Drivers/STM32F3xx_HAL_Driver/Src/stm32f3xx_hal_adc.c ****   
 943:Drivers/STM32F3xx_HAL_Driver/Src/stm32f3xx_hal_adc.c ****   /* Return function status */
 944:Drivers/STM32F3xx_HAL_Driver/Src/stm32f3xx_hal_adc.c ****   return HAL_ERROR;
 255              		.loc 1 944 3 view .LVU25
 945:Drivers/STM32F3xx_HAL_Driver/Src/stm32f3xx_hal_adc.c **** }
 256              		.loc 1 945 1 is_stmt 0 view .LVU26
 257 0000 0120     		movs	r0, #1
 258              	.LVL8:
 259              		.loc 1 945 1 view .LVU27
 260 0002 7047     		bx	lr
 261              		.cfi_endproc
 262              	.LFE133:
 264              		.section	.text.HAL_ADC_Stop_DMA,"ax",%progbits
 265              		.align	1
 266              		.p2align 2,,3
 267              		.weak	HAL_ADC_Stop_DMA
 268              		.syntax unified
 269              		.thumb
 270              		.thumb_func
 272              	HAL_ADC_Stop_DMA:
 273              	.LFB156:
 274              		.cfi_startproc
 275              		@ args = 0, pretend = 0, frame = 0
ARM GAS  /var/folders/b1/22c950295gx2kqj80tvj8wqc0000gn/T//ccYIBijp.s 			page 22


 276              		@ frame_needed = 0, uses_anonymous_args = 0
 277              		@ link register save eliminated.
 278 0000 0120     		movs	r0, #1
 279 0002 7047     		bx	lr
 280              		.cfi_endproc
 281              	.LFE156:
 283              		.section	.text.HAL_ADC_GetValue,"ax",%progbits
 284              		.align	1
 285              		.p2align 2,,3
 286              		.weak	HAL_ADC_GetValue
 287              		.syntax unified
 288              		.thumb
 289              		.thumb_func
 291              	HAL_ADC_GetValue:
 292              	.LVL9:
 293              	.LFB135:
 946:Drivers/STM32F3xx_HAL_Driver/Src/stm32f3xx_hal_adc.c **** 
 947:Drivers/STM32F3xx_HAL_Driver/Src/stm32f3xx_hal_adc.c **** /**
 948:Drivers/STM32F3xx_HAL_Driver/Src/stm32f3xx_hal_adc.c ****   * @brief  Stop ADC conversion of regular group (and injected group in 
 949:Drivers/STM32F3xx_HAL_Driver/Src/stm32f3xx_hal_adc.c ****   *         case of auto_injection mode), disable ADC DMA transfer, disable 
 950:Drivers/STM32F3xx_HAL_Driver/Src/stm32f3xx_hal_adc.c ****   *         ADC peripheral.
 951:Drivers/STM32F3xx_HAL_Driver/Src/stm32f3xx_hal_adc.c ****   * @note:  ADC peripheral disable is forcing stop of potential 
 952:Drivers/STM32F3xx_HAL_Driver/Src/stm32f3xx_hal_adc.c ****   *         conversion on injected group. If injected group is under use, it
 953:Drivers/STM32F3xx_HAL_Driver/Src/stm32f3xx_hal_adc.c ****   *         should be preliminarily stopped using HAL_ADCEx_InjectedStop function.
 954:Drivers/STM32F3xx_HAL_Driver/Src/stm32f3xx_hal_adc.c ****   * @note:  Case of multimode enabled (for devices with several ADCs): This 
 955:Drivers/STM32F3xx_HAL_Driver/Src/stm32f3xx_hal_adc.c ****   *         function is for single-ADC mode only. For multimode, use the 
 956:Drivers/STM32F3xx_HAL_Driver/Src/stm32f3xx_hal_adc.c ****   *         dedicated MultimodeStop function.
 957:Drivers/STM32F3xx_HAL_Driver/Src/stm32f3xx_hal_adc.c ****   * @param  hadc ADC handle
 958:Drivers/STM32F3xx_HAL_Driver/Src/stm32f3xx_hal_adc.c ****   * @retval HAL status.
 959:Drivers/STM32F3xx_HAL_Driver/Src/stm32f3xx_hal_adc.c ****   */
 960:Drivers/STM32F3xx_HAL_Driver/Src/stm32f3xx_hal_adc.c **** __weak HAL_StatusTypeDef HAL_ADC_Stop_DMA(ADC_HandleTypeDef* hadc)
 961:Drivers/STM32F3xx_HAL_Driver/Src/stm32f3xx_hal_adc.c **** {
 962:Drivers/STM32F3xx_HAL_Driver/Src/stm32f3xx_hal_adc.c ****   /* Prevent unused argument(s) compilation warning */
 963:Drivers/STM32F3xx_HAL_Driver/Src/stm32f3xx_hal_adc.c ****   UNUSED(hadc);
 964:Drivers/STM32F3xx_HAL_Driver/Src/stm32f3xx_hal_adc.c **** 
 965:Drivers/STM32F3xx_HAL_Driver/Src/stm32f3xx_hal_adc.c ****   /* Note : This function is defined into this file for library reference. */
 966:Drivers/STM32F3xx_HAL_Driver/Src/stm32f3xx_hal_adc.c ****   /*        Function content is located into file stm32f3xx_hal_adc_ex.c   */
 967:Drivers/STM32F3xx_HAL_Driver/Src/stm32f3xx_hal_adc.c ****   
 968:Drivers/STM32F3xx_HAL_Driver/Src/stm32f3xx_hal_adc.c ****   /* Return function status */
 969:Drivers/STM32F3xx_HAL_Driver/Src/stm32f3xx_hal_adc.c ****   return HAL_ERROR;
 970:Drivers/STM32F3xx_HAL_Driver/Src/stm32f3xx_hal_adc.c **** }
 971:Drivers/STM32F3xx_HAL_Driver/Src/stm32f3xx_hal_adc.c **** 
 972:Drivers/STM32F3xx_HAL_Driver/Src/stm32f3xx_hal_adc.c **** /**
 973:Drivers/STM32F3xx_HAL_Driver/Src/stm32f3xx_hal_adc.c ****   * @brief  Get ADC regular group conversion result.
 974:Drivers/STM32F3xx_HAL_Driver/Src/stm32f3xx_hal_adc.c ****   * @note   Reading DR register automatically clears EOC (end of conversion of
 975:Drivers/STM32F3xx_HAL_Driver/Src/stm32f3xx_hal_adc.c ****   *         regular group) flag.
 976:Drivers/STM32F3xx_HAL_Driver/Src/stm32f3xx_hal_adc.c ****   *         Additionally, this functions clears EOS (end of sequence of
 977:Drivers/STM32F3xx_HAL_Driver/Src/stm32f3xx_hal_adc.c ****   *         regular group) flag, in case of the end of the sequence is reached.
 978:Drivers/STM32F3xx_HAL_Driver/Src/stm32f3xx_hal_adc.c ****   * @param  hadc ADC handle
 979:Drivers/STM32F3xx_HAL_Driver/Src/stm32f3xx_hal_adc.c ****   * @retval Converted value
 980:Drivers/STM32F3xx_HAL_Driver/Src/stm32f3xx_hal_adc.c ****   */
 981:Drivers/STM32F3xx_HAL_Driver/Src/stm32f3xx_hal_adc.c **** __weak uint32_t HAL_ADC_GetValue(ADC_HandleTypeDef* hadc)
 982:Drivers/STM32F3xx_HAL_Driver/Src/stm32f3xx_hal_adc.c **** {
 294              		.loc 1 982 1 is_stmt 1 view -0
 295              		.cfi_startproc
 296              		@ args = 0, pretend = 0, frame = 0
 297              		@ frame_needed = 0, uses_anonymous_args = 0
ARM GAS  /var/folders/b1/22c950295gx2kqj80tvj8wqc0000gn/T//ccYIBijp.s 			page 23


 298              		@ link register save eliminated.
 983:Drivers/STM32F3xx_HAL_Driver/Src/stm32f3xx_hal_adc.c ****   /* Note : This function is defined into this file for library reference. */
 984:Drivers/STM32F3xx_HAL_Driver/Src/stm32f3xx_hal_adc.c ****   /*        Function content is located into file stm32f3xx_hal_adc_ex.c   */
 985:Drivers/STM32F3xx_HAL_Driver/Src/stm32f3xx_hal_adc.c ****   
 986:Drivers/STM32F3xx_HAL_Driver/Src/stm32f3xx_hal_adc.c ****   /* Return ADC converted value */ 
 987:Drivers/STM32F3xx_HAL_Driver/Src/stm32f3xx_hal_adc.c ****   return hadc->Instance->DR;
 299              		.loc 1 987 3 view .LVU29
 300              		.loc 1 987 14 is_stmt 0 view .LVU30
 301 0000 0368     		ldr	r3, [r0]
 302              		.loc 1 987 24 view .LVU31
 303 0002 186C     		ldr	r0, [r3, #64]
 304              	.LVL10:
 988:Drivers/STM32F3xx_HAL_Driver/Src/stm32f3xx_hal_adc.c **** }
 305              		.loc 1 988 1 view .LVU32
 306 0004 7047     		bx	lr
 307              		.cfi_endproc
 308              	.LFE135:
 310 0006 00BF     		.section	.text.HAL_ADC_IRQHandler,"ax",%progbits
 311              		.align	1
 312              		.p2align 2,,3
 313              		.weak	HAL_ADC_IRQHandler
 314              		.syntax unified
 315              		.thumb
 316              		.thumb_func
 318              	HAL_ADC_IRQHandler:
 319              	.LFB160:
 320              		.cfi_startproc
 321              		@ args = 0, pretend = 0, frame = 0
 322              		@ frame_needed = 0, uses_anonymous_args = 0
 323              		@ link register save eliminated.
 324 0000 7047     		bx	lr
 325              		.cfi_endproc
 326              	.LFE160:
 328 0002 00BF     		.section	.text.HAL_ADC_ConvCpltCallback,"ax",%progbits
 329              		.align	1
 330              		.p2align 2,,3
 331              		.weak	HAL_ADC_ConvCpltCallback
 332              		.syntax unified
 333              		.thumb
 334              		.thumb_func
 336              	HAL_ADC_ConvCpltCallback:
 337              	.LFB162:
 338              		.cfi_startproc
 339              		@ args = 0, pretend = 0, frame = 0
 340              		@ frame_needed = 0, uses_anonymous_args = 0
 341              		@ link register save eliminated.
 342 0000 7047     		bx	lr
 343              		.cfi_endproc
 344              	.LFE162:
 346 0002 00BF     		.section	.text.HAL_ADC_ConvHalfCpltCallback,"ax",%progbits
 347              		.align	1
 348              		.p2align 2,,3
 349              		.weak	HAL_ADC_ConvHalfCpltCallback
 350              		.syntax unified
 351              		.thumb
 352              		.thumb_func
 354              	HAL_ADC_ConvHalfCpltCallback:
ARM GAS  /var/folders/b1/22c950295gx2kqj80tvj8wqc0000gn/T//ccYIBijp.s 			page 24


 355              	.LFB164:
 356              		.cfi_startproc
 357              		@ args = 0, pretend = 0, frame = 0
 358              		@ frame_needed = 0, uses_anonymous_args = 0
 359              		@ link register save eliminated.
 360 0000 7047     		bx	lr
 361              		.cfi_endproc
 362              	.LFE164:
 364 0002 00BF     		.section	.text.HAL_ADC_LevelOutOfWindowCallback,"ax",%progbits
 365              		.align	1
 366              		.p2align 2,,3
 367              		.weak	HAL_ADC_LevelOutOfWindowCallback
 368              		.syntax unified
 369              		.thumb
 370              		.thumb_func
 372              	HAL_ADC_LevelOutOfWindowCallback:
 373              	.LFB166:
 374              		.cfi_startproc
 375              		@ args = 0, pretend = 0, frame = 0
 376              		@ frame_needed = 0, uses_anonymous_args = 0
 377              		@ link register save eliminated.
 378 0000 7047     		bx	lr
 379              		.cfi_endproc
 380              	.LFE166:
 382 0002 00BF     		.section	.text.HAL_ADC_ErrorCallback,"ax",%progbits
 383              		.align	1
 384              		.p2align 2,,3
 385              		.weak	HAL_ADC_ErrorCallback
 386              		.syntax unified
 387              		.thumb
 388              		.thumb_func
 390              	HAL_ADC_ErrorCallback:
 391              	.LFB168:
 392              		.cfi_startproc
 393              		@ args = 0, pretend = 0, frame = 0
 394              		@ frame_needed = 0, uses_anonymous_args = 0
 395              		@ link register save eliminated.
 396 0000 7047     		bx	lr
 397              		.cfi_endproc
 398              	.LFE168:
 400 0002 00BF     		.section	.text.HAL_ADC_ConfigChannel,"ax",%progbits
 401              		.align	1
 402              		.p2align 2,,3
 403              		.weak	HAL_ADC_ConfigChannel
 404              		.syntax unified
 405              		.thumb
 406              		.thumb_func
 408              	HAL_ADC_ConfigChannel:
 409              	.LVL11:
 410              	.LFB141:
 989:Drivers/STM32F3xx_HAL_Driver/Src/stm32f3xx_hal_adc.c **** 
 990:Drivers/STM32F3xx_HAL_Driver/Src/stm32f3xx_hal_adc.c **** /**
 991:Drivers/STM32F3xx_HAL_Driver/Src/stm32f3xx_hal_adc.c ****   * @brief  Handles ADC interrupt request.  
 992:Drivers/STM32F3xx_HAL_Driver/Src/stm32f3xx_hal_adc.c ****   * @param  hadc ADC handle
 993:Drivers/STM32F3xx_HAL_Driver/Src/stm32f3xx_hal_adc.c ****   * @retval None
 994:Drivers/STM32F3xx_HAL_Driver/Src/stm32f3xx_hal_adc.c ****   */
 995:Drivers/STM32F3xx_HAL_Driver/Src/stm32f3xx_hal_adc.c **** __weak void HAL_ADC_IRQHandler(ADC_HandleTypeDef* hadc)
ARM GAS  /var/folders/b1/22c950295gx2kqj80tvj8wqc0000gn/T//ccYIBijp.s 			page 25


 996:Drivers/STM32F3xx_HAL_Driver/Src/stm32f3xx_hal_adc.c **** {
 997:Drivers/STM32F3xx_HAL_Driver/Src/stm32f3xx_hal_adc.c ****   /* Prevent unused argument(s) compilation warning */
 998:Drivers/STM32F3xx_HAL_Driver/Src/stm32f3xx_hal_adc.c ****   UNUSED(hadc);
 999:Drivers/STM32F3xx_HAL_Driver/Src/stm32f3xx_hal_adc.c **** 
1000:Drivers/STM32F3xx_HAL_Driver/Src/stm32f3xx_hal_adc.c ****   /* Note : This function is defined into this file for library reference. */
1001:Drivers/STM32F3xx_HAL_Driver/Src/stm32f3xx_hal_adc.c ****   /*        Function content is located into file stm32f3xx_hal_adc_ex.c   */
1002:Drivers/STM32F3xx_HAL_Driver/Src/stm32f3xx_hal_adc.c **** }
1003:Drivers/STM32F3xx_HAL_Driver/Src/stm32f3xx_hal_adc.c **** 
1004:Drivers/STM32F3xx_HAL_Driver/Src/stm32f3xx_hal_adc.c **** /**
1005:Drivers/STM32F3xx_HAL_Driver/Src/stm32f3xx_hal_adc.c ****   * @brief  Conversion complete callback in non blocking mode 
1006:Drivers/STM32F3xx_HAL_Driver/Src/stm32f3xx_hal_adc.c ****   * @param  hadc ADC handle
1007:Drivers/STM32F3xx_HAL_Driver/Src/stm32f3xx_hal_adc.c ****   * @retval None
1008:Drivers/STM32F3xx_HAL_Driver/Src/stm32f3xx_hal_adc.c ****   */
1009:Drivers/STM32F3xx_HAL_Driver/Src/stm32f3xx_hal_adc.c **** __weak void HAL_ADC_ConvCpltCallback(ADC_HandleTypeDef* hadc)
1010:Drivers/STM32F3xx_HAL_Driver/Src/stm32f3xx_hal_adc.c **** {
1011:Drivers/STM32F3xx_HAL_Driver/Src/stm32f3xx_hal_adc.c ****   /* Prevent unused argument(s) compilation warning */
1012:Drivers/STM32F3xx_HAL_Driver/Src/stm32f3xx_hal_adc.c ****   UNUSED(hadc);
1013:Drivers/STM32F3xx_HAL_Driver/Src/stm32f3xx_hal_adc.c **** 
1014:Drivers/STM32F3xx_HAL_Driver/Src/stm32f3xx_hal_adc.c ****   /* NOTE : This function should not be modified. When the callback is needed,
1015:Drivers/STM32F3xx_HAL_Driver/Src/stm32f3xx_hal_adc.c ****             function HAL_ADC_ConvCpltCallback must be implemented in the user file.
1016:Drivers/STM32F3xx_HAL_Driver/Src/stm32f3xx_hal_adc.c ****    */
1017:Drivers/STM32F3xx_HAL_Driver/Src/stm32f3xx_hal_adc.c **** }
1018:Drivers/STM32F3xx_HAL_Driver/Src/stm32f3xx_hal_adc.c **** 
1019:Drivers/STM32F3xx_HAL_Driver/Src/stm32f3xx_hal_adc.c **** /**
1020:Drivers/STM32F3xx_HAL_Driver/Src/stm32f3xx_hal_adc.c ****   * @brief  Conversion DMA half-transfer callback in non blocking mode 
1021:Drivers/STM32F3xx_HAL_Driver/Src/stm32f3xx_hal_adc.c ****   * @param  hadc ADC handle
1022:Drivers/STM32F3xx_HAL_Driver/Src/stm32f3xx_hal_adc.c ****   * @retval None
1023:Drivers/STM32F3xx_HAL_Driver/Src/stm32f3xx_hal_adc.c ****   */
1024:Drivers/STM32F3xx_HAL_Driver/Src/stm32f3xx_hal_adc.c **** __weak void HAL_ADC_ConvHalfCpltCallback(ADC_HandleTypeDef* hadc)
1025:Drivers/STM32F3xx_HAL_Driver/Src/stm32f3xx_hal_adc.c **** {
1026:Drivers/STM32F3xx_HAL_Driver/Src/stm32f3xx_hal_adc.c ****   /* Prevent unused argument(s) compilation warning */
1027:Drivers/STM32F3xx_HAL_Driver/Src/stm32f3xx_hal_adc.c ****   UNUSED(hadc);
1028:Drivers/STM32F3xx_HAL_Driver/Src/stm32f3xx_hal_adc.c **** 
1029:Drivers/STM32F3xx_HAL_Driver/Src/stm32f3xx_hal_adc.c ****   /* NOTE : This function should not be modified. When the callback is needed,
1030:Drivers/STM32F3xx_HAL_Driver/Src/stm32f3xx_hal_adc.c ****             function HAL_ADC_ConvHalfCpltCallback must be implemented in the user file.
1031:Drivers/STM32F3xx_HAL_Driver/Src/stm32f3xx_hal_adc.c ****   */
1032:Drivers/STM32F3xx_HAL_Driver/Src/stm32f3xx_hal_adc.c **** }
1033:Drivers/STM32F3xx_HAL_Driver/Src/stm32f3xx_hal_adc.c **** 
1034:Drivers/STM32F3xx_HAL_Driver/Src/stm32f3xx_hal_adc.c **** /**
1035:Drivers/STM32F3xx_HAL_Driver/Src/stm32f3xx_hal_adc.c ****   * @brief  Analog watchdog callback in non blocking mode. 
1036:Drivers/STM32F3xx_HAL_Driver/Src/stm32f3xx_hal_adc.c ****   * @param  hadc ADC handle
1037:Drivers/STM32F3xx_HAL_Driver/Src/stm32f3xx_hal_adc.c ****   * @retval None
1038:Drivers/STM32F3xx_HAL_Driver/Src/stm32f3xx_hal_adc.c ****   */
1039:Drivers/STM32F3xx_HAL_Driver/Src/stm32f3xx_hal_adc.c **** __weak void HAL_ADC_LevelOutOfWindowCallback(ADC_HandleTypeDef* hadc)
1040:Drivers/STM32F3xx_HAL_Driver/Src/stm32f3xx_hal_adc.c **** {
1041:Drivers/STM32F3xx_HAL_Driver/Src/stm32f3xx_hal_adc.c ****   /* Prevent unused argument(s) compilation warning */
1042:Drivers/STM32F3xx_HAL_Driver/Src/stm32f3xx_hal_adc.c ****   UNUSED(hadc);
1043:Drivers/STM32F3xx_HAL_Driver/Src/stm32f3xx_hal_adc.c **** 
1044:Drivers/STM32F3xx_HAL_Driver/Src/stm32f3xx_hal_adc.c ****   /* NOTE : This function should not be modified. When the callback is needed,
1045:Drivers/STM32F3xx_HAL_Driver/Src/stm32f3xx_hal_adc.c ****             function HAL_ADC_LevelOoutOfWindowCallback must be implemented in the user file.
1046:Drivers/STM32F3xx_HAL_Driver/Src/stm32f3xx_hal_adc.c ****   */
1047:Drivers/STM32F3xx_HAL_Driver/Src/stm32f3xx_hal_adc.c **** }
1048:Drivers/STM32F3xx_HAL_Driver/Src/stm32f3xx_hal_adc.c **** 
1049:Drivers/STM32F3xx_HAL_Driver/Src/stm32f3xx_hal_adc.c **** /**
1050:Drivers/STM32F3xx_HAL_Driver/Src/stm32f3xx_hal_adc.c ****   * @brief  ADC error callback in non blocking mode
1051:Drivers/STM32F3xx_HAL_Driver/Src/stm32f3xx_hal_adc.c ****   *        (ADC conversion with interruption or transfer by DMA)
1052:Drivers/STM32F3xx_HAL_Driver/Src/stm32f3xx_hal_adc.c ****   * @param  hadc ADC handle
ARM GAS  /var/folders/b1/22c950295gx2kqj80tvj8wqc0000gn/T//ccYIBijp.s 			page 26


1053:Drivers/STM32F3xx_HAL_Driver/Src/stm32f3xx_hal_adc.c ****   * @retval None
1054:Drivers/STM32F3xx_HAL_Driver/Src/stm32f3xx_hal_adc.c ****   */
1055:Drivers/STM32F3xx_HAL_Driver/Src/stm32f3xx_hal_adc.c **** __weak void HAL_ADC_ErrorCallback(ADC_HandleTypeDef *hadc)
1056:Drivers/STM32F3xx_HAL_Driver/Src/stm32f3xx_hal_adc.c **** {
1057:Drivers/STM32F3xx_HAL_Driver/Src/stm32f3xx_hal_adc.c ****   /* Prevent unused argument(s) compilation warning */
1058:Drivers/STM32F3xx_HAL_Driver/Src/stm32f3xx_hal_adc.c ****   UNUSED(hadc);
1059:Drivers/STM32F3xx_HAL_Driver/Src/stm32f3xx_hal_adc.c **** 
1060:Drivers/STM32F3xx_HAL_Driver/Src/stm32f3xx_hal_adc.c ****   /* NOTE : This function should not be modified. When the callback is needed,
1061:Drivers/STM32F3xx_HAL_Driver/Src/stm32f3xx_hal_adc.c ****             function HAL_ADC_ErrorCallback must be implemented in the user file.
1062:Drivers/STM32F3xx_HAL_Driver/Src/stm32f3xx_hal_adc.c ****   */
1063:Drivers/STM32F3xx_HAL_Driver/Src/stm32f3xx_hal_adc.c **** }
1064:Drivers/STM32F3xx_HAL_Driver/Src/stm32f3xx_hal_adc.c **** 
1065:Drivers/STM32F3xx_HAL_Driver/Src/stm32f3xx_hal_adc.c **** /**
1066:Drivers/STM32F3xx_HAL_Driver/Src/stm32f3xx_hal_adc.c ****   * @}
1067:Drivers/STM32F3xx_HAL_Driver/Src/stm32f3xx_hal_adc.c ****   */
1068:Drivers/STM32F3xx_HAL_Driver/Src/stm32f3xx_hal_adc.c **** 
1069:Drivers/STM32F3xx_HAL_Driver/Src/stm32f3xx_hal_adc.c **** /** @defgroup ADC_Exported_Functions_Group3 Peripheral Control functions
1070:Drivers/STM32F3xx_HAL_Driver/Src/stm32f3xx_hal_adc.c ****  *  @brief    Peripheral Control functions 
1071:Drivers/STM32F3xx_HAL_Driver/Src/stm32f3xx_hal_adc.c ****  *
1072:Drivers/STM32F3xx_HAL_Driver/Src/stm32f3xx_hal_adc.c **** @verbatim   
1073:Drivers/STM32F3xx_HAL_Driver/Src/stm32f3xx_hal_adc.c ****  ===============================================================================
1074:Drivers/STM32F3xx_HAL_Driver/Src/stm32f3xx_hal_adc.c ****              ##### Peripheral Control functions #####
1075:Drivers/STM32F3xx_HAL_Driver/Src/stm32f3xx_hal_adc.c ****  ===============================================================================  
1076:Drivers/STM32F3xx_HAL_Driver/Src/stm32f3xx_hal_adc.c ****     [..]  This section provides functions allowing to:
1077:Drivers/STM32F3xx_HAL_Driver/Src/stm32f3xx_hal_adc.c ****       (+) Configure channels on regular group
1078:Drivers/STM32F3xx_HAL_Driver/Src/stm32f3xx_hal_adc.c ****       (+) Configure the analog watchdog
1079:Drivers/STM32F3xx_HAL_Driver/Src/stm32f3xx_hal_adc.c ****       
1080:Drivers/STM32F3xx_HAL_Driver/Src/stm32f3xx_hal_adc.c **** @endverbatim
1081:Drivers/STM32F3xx_HAL_Driver/Src/stm32f3xx_hal_adc.c ****   * @{
1082:Drivers/STM32F3xx_HAL_Driver/Src/stm32f3xx_hal_adc.c ****   */
1083:Drivers/STM32F3xx_HAL_Driver/Src/stm32f3xx_hal_adc.c **** 
1084:Drivers/STM32F3xx_HAL_Driver/Src/stm32f3xx_hal_adc.c **** /**
1085:Drivers/STM32F3xx_HAL_Driver/Src/stm32f3xx_hal_adc.c ****   * @brief  Configures the the selected channel to be linked to the regular
1086:Drivers/STM32F3xx_HAL_Driver/Src/stm32f3xx_hal_adc.c ****   *         group.
1087:Drivers/STM32F3xx_HAL_Driver/Src/stm32f3xx_hal_adc.c ****   * @note   In case of usage of internal measurement channels:
1088:Drivers/STM32F3xx_HAL_Driver/Src/stm32f3xx_hal_adc.c ****   *         Vbat/VrefInt/TempSensor.
1089:Drivers/STM32F3xx_HAL_Driver/Src/stm32f3xx_hal_adc.c ****   *         The recommended sampling time is at least:
1090:Drivers/STM32F3xx_HAL_Driver/Src/stm32f3xx_hal_adc.c ****   *          - For devices STM32F37x: 17.1us for temperature sensor
1091:Drivers/STM32F3xx_HAL_Driver/Src/stm32f3xx_hal_adc.c ****   *          - For the other STM32F3 devices: 2.2us for each of channels 
1092:Drivers/STM32F3xx_HAL_Driver/Src/stm32f3xx_hal_adc.c ****   *            Vbat/VrefInt/TempSensor.
1093:Drivers/STM32F3xx_HAL_Driver/Src/stm32f3xx_hal_adc.c ****   *         These internal paths can be be disabled using function 
1094:Drivers/STM32F3xx_HAL_Driver/Src/stm32f3xx_hal_adc.c ****   *         HAL_ADC_DeInit().
1095:Drivers/STM32F3xx_HAL_Driver/Src/stm32f3xx_hal_adc.c ****   * @note   Possibility to update parameters on the fly:
1096:Drivers/STM32F3xx_HAL_Driver/Src/stm32f3xx_hal_adc.c ****   *         This function initializes channel into regular group, following  
1097:Drivers/STM32F3xx_HAL_Driver/Src/stm32f3xx_hal_adc.c ****   *         calls to this function can be used to reconfigure some parameters 
1098:Drivers/STM32F3xx_HAL_Driver/Src/stm32f3xx_hal_adc.c ****   *         of structure "ADC_ChannelConfTypeDef" on the fly, without reseting 
1099:Drivers/STM32F3xx_HAL_Driver/Src/stm32f3xx_hal_adc.c ****   *         the ADC.
1100:Drivers/STM32F3xx_HAL_Driver/Src/stm32f3xx_hal_adc.c ****   *         The setting of these parameters is conditioned to ADC state.
1101:Drivers/STM32F3xx_HAL_Driver/Src/stm32f3xx_hal_adc.c ****   *         For parameters constraints, see comments of structure 
1102:Drivers/STM32F3xx_HAL_Driver/Src/stm32f3xx_hal_adc.c ****   *         "ADC_ChannelConfTypeDef".
1103:Drivers/STM32F3xx_HAL_Driver/Src/stm32f3xx_hal_adc.c ****   * @param  hadc ADC handle
1104:Drivers/STM32F3xx_HAL_Driver/Src/stm32f3xx_hal_adc.c ****   * @param  sConfig Structure of ADC channel for regular group.
1105:Drivers/STM32F3xx_HAL_Driver/Src/stm32f3xx_hal_adc.c ****   * @retval HAL status
1106:Drivers/STM32F3xx_HAL_Driver/Src/stm32f3xx_hal_adc.c ****   */
1107:Drivers/STM32F3xx_HAL_Driver/Src/stm32f3xx_hal_adc.c **** __weak HAL_StatusTypeDef HAL_ADC_ConfigChannel(ADC_HandleTypeDef* hadc, ADC_ChannelConfTypeDef* sCo
1108:Drivers/STM32F3xx_HAL_Driver/Src/stm32f3xx_hal_adc.c **** {
 411              		.loc 1 1108 1 is_stmt 1 view -0
ARM GAS  /var/folders/b1/22c950295gx2kqj80tvj8wqc0000gn/T//ccYIBijp.s 			page 27


 412              		.cfi_startproc
 413              		@ args = 0, pretend = 0, frame = 0
 414              		@ frame_needed = 0, uses_anonymous_args = 0
 415              		@ link register save eliminated.
1109:Drivers/STM32F3xx_HAL_Driver/Src/stm32f3xx_hal_adc.c ****   /* Prevent unused argument(s) compilation warning */
1110:Drivers/STM32F3xx_HAL_Driver/Src/stm32f3xx_hal_adc.c ****   UNUSED(hadc);
 416              		.loc 1 1110 3 view .LVU34
1111:Drivers/STM32F3xx_HAL_Driver/Src/stm32f3xx_hal_adc.c ****   UNUSED(sConfig);
 417              		.loc 1 1111 3 view .LVU35
1112:Drivers/STM32F3xx_HAL_Driver/Src/stm32f3xx_hal_adc.c **** 
1113:Drivers/STM32F3xx_HAL_Driver/Src/stm32f3xx_hal_adc.c ****   /* Note : This function is defined into this file for library reference. */
1114:Drivers/STM32F3xx_HAL_Driver/Src/stm32f3xx_hal_adc.c ****   /*        Function content is located into file stm32f3xx_hal_adc_ex.c   */
1115:Drivers/STM32F3xx_HAL_Driver/Src/stm32f3xx_hal_adc.c ****   
1116:Drivers/STM32F3xx_HAL_Driver/Src/stm32f3xx_hal_adc.c ****   /* Return function status */
1117:Drivers/STM32F3xx_HAL_Driver/Src/stm32f3xx_hal_adc.c ****   return HAL_ERROR;
 418              		.loc 1 1117 3 view .LVU36
1118:Drivers/STM32F3xx_HAL_Driver/Src/stm32f3xx_hal_adc.c **** }
 419              		.loc 1 1118 1 is_stmt 0 view .LVU37
 420 0000 0120     		movs	r0, #1
 421              	.LVL12:
 422              		.loc 1 1118 1 view .LVU38
 423 0002 7047     		bx	lr
 424              		.cfi_endproc
 425              	.LFE141:
 427              		.section	.text.HAL_ADC_AnalogWDGConfig,"ax",%progbits
 428              		.align	1
 429              		.p2align 2,,3
 430              		.weak	HAL_ADC_AnalogWDGConfig
 431              		.syntax unified
 432              		.thumb
 433              		.thumb_func
 435              	HAL_ADC_AnalogWDGConfig:
 436              	.LFB170:
 437              		.cfi_startproc
 438              		@ args = 0, pretend = 0, frame = 0
 439              		@ frame_needed = 0, uses_anonymous_args = 0
 440              		@ link register save eliminated.
 441 0000 0120     		movs	r0, #1
 442 0002 7047     		bx	lr
 443              		.cfi_endproc
 444              	.LFE170:
 446              		.section	.text.HAL_ADC_GetState,"ax",%progbits
 447              		.align	1
 448              		.p2align 2,,3
 449              		.global	HAL_ADC_GetState
 450              		.syntax unified
 451              		.thumb
 452              		.thumb_func
 454              	HAL_ADC_GetState:
 455              	.LVL13:
 456              	.LFB143:
1119:Drivers/STM32F3xx_HAL_Driver/Src/stm32f3xx_hal_adc.c **** 
1120:Drivers/STM32F3xx_HAL_Driver/Src/stm32f3xx_hal_adc.c **** /**
1121:Drivers/STM32F3xx_HAL_Driver/Src/stm32f3xx_hal_adc.c ****   * @brief  Configures the analog watchdog.
1122:Drivers/STM32F3xx_HAL_Driver/Src/stm32f3xx_hal_adc.c ****   * @note   Possibility to update parameters on the fly:
1123:Drivers/STM32F3xx_HAL_Driver/Src/stm32f3xx_hal_adc.c ****   *         This function initializes the selected analog watchdog, following  
1124:Drivers/STM32F3xx_HAL_Driver/Src/stm32f3xx_hal_adc.c ****   *         calls to this function can be used to reconfigure some parameters 
ARM GAS  /var/folders/b1/22c950295gx2kqj80tvj8wqc0000gn/T//ccYIBijp.s 			page 28


1125:Drivers/STM32F3xx_HAL_Driver/Src/stm32f3xx_hal_adc.c ****   *         of structure "ADC_AnalogWDGConfTypeDef" on the fly, without reseting 
1126:Drivers/STM32F3xx_HAL_Driver/Src/stm32f3xx_hal_adc.c ****   *         the ADC.
1127:Drivers/STM32F3xx_HAL_Driver/Src/stm32f3xx_hal_adc.c ****   *         The setting of these parameters is conditioned to ADC state.
1128:Drivers/STM32F3xx_HAL_Driver/Src/stm32f3xx_hal_adc.c ****   *         For parameters constraints, see comments of structure 
1129:Drivers/STM32F3xx_HAL_Driver/Src/stm32f3xx_hal_adc.c ****   *         "ADC_AnalogWDGConfTypeDef".
1130:Drivers/STM32F3xx_HAL_Driver/Src/stm32f3xx_hal_adc.c ****   * @param  hadc ADC handle
1131:Drivers/STM32F3xx_HAL_Driver/Src/stm32f3xx_hal_adc.c ****   * @param  AnalogWDGConfig Structure of ADC analog watchdog configuration
1132:Drivers/STM32F3xx_HAL_Driver/Src/stm32f3xx_hal_adc.c ****   * @retval HAL status
1133:Drivers/STM32F3xx_HAL_Driver/Src/stm32f3xx_hal_adc.c ****   */
1134:Drivers/STM32F3xx_HAL_Driver/Src/stm32f3xx_hal_adc.c **** __weak HAL_StatusTypeDef HAL_ADC_AnalogWDGConfig(ADC_HandleTypeDef* hadc, ADC_AnalogWDGConfTypeDef*
1135:Drivers/STM32F3xx_HAL_Driver/Src/stm32f3xx_hal_adc.c **** {
1136:Drivers/STM32F3xx_HAL_Driver/Src/stm32f3xx_hal_adc.c ****   /* Prevent unused argument(s) compilation warning */
1137:Drivers/STM32F3xx_HAL_Driver/Src/stm32f3xx_hal_adc.c ****   UNUSED(hadc);
1138:Drivers/STM32F3xx_HAL_Driver/Src/stm32f3xx_hal_adc.c ****   UNUSED(AnalogWDGConfig);
1139:Drivers/STM32F3xx_HAL_Driver/Src/stm32f3xx_hal_adc.c **** 
1140:Drivers/STM32F3xx_HAL_Driver/Src/stm32f3xx_hal_adc.c ****   /* Note : This function is defined into this file for library reference. */
1141:Drivers/STM32F3xx_HAL_Driver/Src/stm32f3xx_hal_adc.c ****   /*        Function content is located into file stm32f3xx_hal_adc_ex.c   */
1142:Drivers/STM32F3xx_HAL_Driver/Src/stm32f3xx_hal_adc.c ****   
1143:Drivers/STM32F3xx_HAL_Driver/Src/stm32f3xx_hal_adc.c ****   /* Return function status */
1144:Drivers/STM32F3xx_HAL_Driver/Src/stm32f3xx_hal_adc.c ****   return HAL_ERROR;
1145:Drivers/STM32F3xx_HAL_Driver/Src/stm32f3xx_hal_adc.c **** }
1146:Drivers/STM32F3xx_HAL_Driver/Src/stm32f3xx_hal_adc.c **** 
1147:Drivers/STM32F3xx_HAL_Driver/Src/stm32f3xx_hal_adc.c **** /**
1148:Drivers/STM32F3xx_HAL_Driver/Src/stm32f3xx_hal_adc.c ****   * @}
1149:Drivers/STM32F3xx_HAL_Driver/Src/stm32f3xx_hal_adc.c ****   */
1150:Drivers/STM32F3xx_HAL_Driver/Src/stm32f3xx_hal_adc.c **** 
1151:Drivers/STM32F3xx_HAL_Driver/Src/stm32f3xx_hal_adc.c **** /** @defgroup ADC_Exported_Functions_Group4 Peripheral State functions
1152:Drivers/STM32F3xx_HAL_Driver/Src/stm32f3xx_hal_adc.c ****  *  @brief   ADC Peripheral State functions 
1153:Drivers/STM32F3xx_HAL_Driver/Src/stm32f3xx_hal_adc.c ****  *
1154:Drivers/STM32F3xx_HAL_Driver/Src/stm32f3xx_hal_adc.c **** @verbatim   
1155:Drivers/STM32F3xx_HAL_Driver/Src/stm32f3xx_hal_adc.c ****  ===============================================================================
1156:Drivers/STM32F3xx_HAL_Driver/Src/stm32f3xx_hal_adc.c ****             ##### Peripheral state and errors functions #####
1157:Drivers/STM32F3xx_HAL_Driver/Src/stm32f3xx_hal_adc.c ****  ===============================================================================
1158:Drivers/STM32F3xx_HAL_Driver/Src/stm32f3xx_hal_adc.c ****     [..]
1159:Drivers/STM32F3xx_HAL_Driver/Src/stm32f3xx_hal_adc.c ****     This subsection provides functions to get in run-time the status of the  
1160:Drivers/STM32F3xx_HAL_Driver/Src/stm32f3xx_hal_adc.c ****     peripheral.
1161:Drivers/STM32F3xx_HAL_Driver/Src/stm32f3xx_hal_adc.c ****       (+) Check the ADC state
1162:Drivers/STM32F3xx_HAL_Driver/Src/stm32f3xx_hal_adc.c ****       (+) Check the ADC error code
1163:Drivers/STM32F3xx_HAL_Driver/Src/stm32f3xx_hal_adc.c ****          
1164:Drivers/STM32F3xx_HAL_Driver/Src/stm32f3xx_hal_adc.c **** @endverbatim
1165:Drivers/STM32F3xx_HAL_Driver/Src/stm32f3xx_hal_adc.c ****   * @{
1166:Drivers/STM32F3xx_HAL_Driver/Src/stm32f3xx_hal_adc.c ****   */
1167:Drivers/STM32F3xx_HAL_Driver/Src/stm32f3xx_hal_adc.c ****   
1168:Drivers/STM32F3xx_HAL_Driver/Src/stm32f3xx_hal_adc.c **** /**
1169:Drivers/STM32F3xx_HAL_Driver/Src/stm32f3xx_hal_adc.c ****   * @brief  return the ADC state
1170:Drivers/STM32F3xx_HAL_Driver/Src/stm32f3xx_hal_adc.c ****   * @note   ADC state machine is managed by bitfield, state must be compared
1171:Drivers/STM32F3xx_HAL_Driver/Src/stm32f3xx_hal_adc.c ****   *         with bit by bit.
1172:Drivers/STM32F3xx_HAL_Driver/Src/stm32f3xx_hal_adc.c ****   *         For example:                                                         
1173:Drivers/STM32F3xx_HAL_Driver/Src/stm32f3xx_hal_adc.c ****   *           " if (HAL_IS_BIT_SET(HAL_ADC_GetState(hadc1), HAL_ADC_STATE_REG_BUSY)) "
1174:Drivers/STM32F3xx_HAL_Driver/Src/stm32f3xx_hal_adc.c ****   *           " if (HAL_IS_BIT_SET(HAL_ADC_GetState(hadc1), HAL_ADC_STATE_AWD1)    ) "
1175:Drivers/STM32F3xx_HAL_Driver/Src/stm32f3xx_hal_adc.c ****   * @param  hadc ADC handle
1176:Drivers/STM32F3xx_HAL_Driver/Src/stm32f3xx_hal_adc.c ****   * @retval HAL state
1177:Drivers/STM32F3xx_HAL_Driver/Src/stm32f3xx_hal_adc.c ****   */
1178:Drivers/STM32F3xx_HAL_Driver/Src/stm32f3xx_hal_adc.c **** uint32_t HAL_ADC_GetState(ADC_HandleTypeDef* hadc)
1179:Drivers/STM32F3xx_HAL_Driver/Src/stm32f3xx_hal_adc.c **** {
 457              		.loc 1 1179 1 is_stmt 1 view -0
 458              		.cfi_startproc
ARM GAS  /var/folders/b1/22c950295gx2kqj80tvj8wqc0000gn/T//ccYIBijp.s 			page 29


 459              		@ args = 0, pretend = 0, frame = 0
 460              		@ frame_needed = 0, uses_anonymous_args = 0
 461              		@ link register save eliminated.
1180:Drivers/STM32F3xx_HAL_Driver/Src/stm32f3xx_hal_adc.c ****   /* Check the parameters */
1181:Drivers/STM32F3xx_HAL_Driver/Src/stm32f3xx_hal_adc.c ****   assert_param(IS_ADC_ALL_INSTANCE(hadc->Instance));
 462              		.loc 1 1181 3 view .LVU40
1182:Drivers/STM32F3xx_HAL_Driver/Src/stm32f3xx_hal_adc.c ****   
1183:Drivers/STM32F3xx_HAL_Driver/Src/stm32f3xx_hal_adc.c ****   /* Return ADC state */
1184:Drivers/STM32F3xx_HAL_Driver/Src/stm32f3xx_hal_adc.c ****   return hadc->State;
 463              		.loc 1 1184 3 view .LVU41
 464              		.loc 1 1184 14 is_stmt 0 view .LVU42
 465 0000 006C     		ldr	r0, [r0, #64]
 466              	.LVL14:
1185:Drivers/STM32F3xx_HAL_Driver/Src/stm32f3xx_hal_adc.c **** }
 467              		.loc 1 1185 1 view .LVU43
 468 0002 7047     		bx	lr
 469              		.cfi_endproc
 470              	.LFE143:
 472              		.section	.text.HAL_ADC_GetError,"ax",%progbits
 473              		.align	1
 474              		.p2align 2,,3
 475              		.global	HAL_ADC_GetError
 476              		.syntax unified
 477              		.thumb
 478              		.thumb_func
 480              	HAL_ADC_GetError:
 481              	.LVL15:
 482              	.LFB144:
1186:Drivers/STM32F3xx_HAL_Driver/Src/stm32f3xx_hal_adc.c **** 
1187:Drivers/STM32F3xx_HAL_Driver/Src/stm32f3xx_hal_adc.c **** /**
1188:Drivers/STM32F3xx_HAL_Driver/Src/stm32f3xx_hal_adc.c ****   * @brief  Return the ADC error code
1189:Drivers/STM32F3xx_HAL_Driver/Src/stm32f3xx_hal_adc.c ****   * @param  hadc ADC handle
1190:Drivers/STM32F3xx_HAL_Driver/Src/stm32f3xx_hal_adc.c ****   * @retval ADC Error Code
1191:Drivers/STM32F3xx_HAL_Driver/Src/stm32f3xx_hal_adc.c ****   */
1192:Drivers/STM32F3xx_HAL_Driver/Src/stm32f3xx_hal_adc.c **** uint32_t HAL_ADC_GetError(ADC_HandleTypeDef *hadc)
1193:Drivers/STM32F3xx_HAL_Driver/Src/stm32f3xx_hal_adc.c **** {
 483              		.loc 1 1193 1 is_stmt 1 view -0
 484              		.cfi_startproc
 485              		@ args = 0, pretend = 0, frame = 0
 486              		@ frame_needed = 0, uses_anonymous_args = 0
 487              		@ link register save eliminated.
1194:Drivers/STM32F3xx_HAL_Driver/Src/stm32f3xx_hal_adc.c ****   return hadc->ErrorCode;
 488              		.loc 1 1194 3 view .LVU45
 489              		.loc 1 1194 14 is_stmt 0 view .LVU46
 490 0000 406C     		ldr	r0, [r0, #68]
 491              	.LVL16:
1195:Drivers/STM32F3xx_HAL_Driver/Src/stm32f3xx_hal_adc.c **** }
 492              		.loc 1 1195 1 view .LVU47
 493 0002 7047     		bx	lr
 494              		.cfi_endproc
 495              	.LFE144:
 497              		.text
 498              	.Letext0:
 499              		.file 2 "/Applications/ArmGNUToolchain/11.3.rel1/arm-none-eabi/arm-none-eabi/include/machine/_defa
 500              		.file 3 "/Applications/ArmGNUToolchain/11.3.rel1/arm-none-eabi/arm-none-eabi/include/sys/_stdint.h
 501              		.file 4 "Drivers/CMSIS/Device/ST/STM32F3xx/Include/stm32f334x8.h"
 502              		.file 5 "Drivers/CMSIS/Device/ST/STM32F3xx/Include/stm32f3xx.h"
ARM GAS  /var/folders/b1/22c950295gx2kqj80tvj8wqc0000gn/T//ccYIBijp.s 			page 30


 503              		.file 6 "Drivers/STM32F3xx_HAL_Driver/Inc/stm32f3xx_hal_def.h"
 504              		.file 7 "Drivers/STM32F3xx_HAL_Driver/Inc/stm32f3xx_hal_dma.h"
 505              		.file 8 "Drivers/STM32F3xx_HAL_Driver/Inc/stm32f3xx_hal_adc_ex.h"
 506              		.file 9 "Drivers/STM32F3xx_HAL_Driver/Inc/stm32f3xx_hal_adc.h"
ARM GAS  /var/folders/b1/22c950295gx2kqj80tvj8wqc0000gn/T//ccYIBijp.s 			page 31

