ARM GAS  /var/folders/b1/22c950295gx2kqj80tvj8wqc0000gn/T//ccfZwynw.s 			page 1


   1              		.cpu cortex-m4
   2              		.arch armv7e-m
   3              		.fpu fpv4-sp-d16
   4              		.eabi_attribute 27, 1
   5              		.eabi_attribute 28, 1
   6              		.eabi_attribute 20, 1
   7              		.eabi_attribute 21, 1
   8              		.eabi_attribute 23, 3
   9              		.eabi_attribute 24, 1
  10              		.eabi_attribute 25, 1
  11              		.eabi_attribute 26, 1
  12              		.eabi_attribute 30, 2
  13              		.eabi_attribute 34, 1
  14              		.eabi_attribute 18, 4
  15              		.file	"stm32f3xx_hal_dac_ex.c"
  16              		.text
  17              	.Ltext0:
  18              		.cfi_sections	.debug_frame
  19              		.section	.text.DAC_DMAErrorCh1,"ax",%progbits
  20              		.align	1
  21              		.p2align 2,,3
  22              		.syntax unified
  23              		.thumb
  24              		.thumb_func
  26              	DAC_DMAErrorCh1:
  27              	.LVL0:
  28              	.LFB139:
  29              		.file 1 "Drivers/STM32F3xx_HAL_Driver/Src/stm32f3xx_hal_dac_ex.c"
   1:Drivers/STM32F3xx_HAL_Driver/Src/stm32f3xx_hal_dac_ex.c **** /**
   2:Drivers/STM32F3xx_HAL_Driver/Src/stm32f3xx_hal_dac_ex.c ****   ******************************************************************************
   3:Drivers/STM32F3xx_HAL_Driver/Src/stm32f3xx_hal_dac_ex.c ****   * @file    stm32f3xx_hal_dac_ex.c
   4:Drivers/STM32F3xx_HAL_Driver/Src/stm32f3xx_hal_dac_ex.c ****   * @author  MCD Application Team
   5:Drivers/STM32F3xx_HAL_Driver/Src/stm32f3xx_hal_dac_ex.c ****   * @brief   DACEx HAL module driver.
   6:Drivers/STM32F3xx_HAL_Driver/Src/stm32f3xx_hal_dac_ex.c ****   *          This file provides firmware functions to manage the extended 
   7:Drivers/STM32F3xx_HAL_Driver/Src/stm32f3xx_hal_dac_ex.c ****   *          functionalities of the DAC peripheral.  
   8:Drivers/STM32F3xx_HAL_Driver/Src/stm32f3xx_hal_dac_ex.c ****   *     
   9:Drivers/STM32F3xx_HAL_Driver/Src/stm32f3xx_hal_dac_ex.c ****   *
  10:Drivers/STM32F3xx_HAL_Driver/Src/stm32f3xx_hal_dac_ex.c ****   @verbatim   
  11:Drivers/STM32F3xx_HAL_Driver/Src/stm32f3xx_hal_dac_ex.c ****   ==============================================================================
  12:Drivers/STM32F3xx_HAL_Driver/Src/stm32f3xx_hal_dac_ex.c ****                       ##### How to use this driver #####
  13:Drivers/STM32F3xx_HAL_Driver/Src/stm32f3xx_hal_dac_ex.c ****   ==============================================================================
  14:Drivers/STM32F3xx_HAL_Driver/Src/stm32f3xx_hal_dac_ex.c ****     [..]          
  15:Drivers/STM32F3xx_HAL_Driver/Src/stm32f3xx_hal_dac_ex.c ****       (+) When Dual mode is enabled (i.e. DAC Channel1 and Channel2 are used simultaneously) :
  16:Drivers/STM32F3xx_HAL_Driver/Src/stm32f3xx_hal_dac_ex.c ****           Use HAL_DACEx_DualGetValue() to get digital data to be converted and use
  17:Drivers/STM32F3xx_HAL_Driver/Src/stm32f3xx_hal_dac_ex.c ****           HAL_DACEx_DualSetValue() to set digital value to converted simultaneously in Channel 1 an
  18:Drivers/STM32F3xx_HAL_Driver/Src/stm32f3xx_hal_dac_ex.c ****       (+) Use HAL_DACEx_TriangleWaveGenerate() to generate Triangle signal.
  19:Drivers/STM32F3xx_HAL_Driver/Src/stm32f3xx_hal_dac_ex.c ****       (+) Use HAL_DACEx_NoiseWaveGenerate() to generate Noise signal.
  20:Drivers/STM32F3xx_HAL_Driver/Src/stm32f3xx_hal_dac_ex.c **** 
  21:Drivers/STM32F3xx_HAL_Driver/Src/stm32f3xx_hal_dac_ex.c ****  @endverbatim    
  22:Drivers/STM32F3xx_HAL_Driver/Src/stm32f3xx_hal_dac_ex.c ****   ******************************************************************************
  23:Drivers/STM32F3xx_HAL_Driver/Src/stm32f3xx_hal_dac_ex.c ****   * @attention
  24:Drivers/STM32F3xx_HAL_Driver/Src/stm32f3xx_hal_dac_ex.c ****   *
  25:Drivers/STM32F3xx_HAL_Driver/Src/stm32f3xx_hal_dac_ex.c ****   * <h2><center>&copy; Copyright (c) 2016 STMicroelectronics.
  26:Drivers/STM32F3xx_HAL_Driver/Src/stm32f3xx_hal_dac_ex.c ****   * All rights reserved.</center></h2>
  27:Drivers/STM32F3xx_HAL_Driver/Src/stm32f3xx_hal_dac_ex.c ****   *
  28:Drivers/STM32F3xx_HAL_Driver/Src/stm32f3xx_hal_dac_ex.c ****   * This software component is licensed by ST under BSD 3-Clause license,
  29:Drivers/STM32F3xx_HAL_Driver/Src/stm32f3xx_hal_dac_ex.c ****   * the "License"; You may not use this file except in compliance with the
ARM GAS  /var/folders/b1/22c950295gx2kqj80tvj8wqc0000gn/T//ccfZwynw.s 			page 2


  30:Drivers/STM32F3xx_HAL_Driver/Src/stm32f3xx_hal_dac_ex.c ****   * License. You may obtain a copy of the License at:
  31:Drivers/STM32F3xx_HAL_Driver/Src/stm32f3xx_hal_dac_ex.c ****   *                        opensource.org/licenses/BSD-3-Clause
  32:Drivers/STM32F3xx_HAL_Driver/Src/stm32f3xx_hal_dac_ex.c ****   *
  33:Drivers/STM32F3xx_HAL_Driver/Src/stm32f3xx_hal_dac_ex.c ****   ******************************************************************************
  34:Drivers/STM32F3xx_HAL_Driver/Src/stm32f3xx_hal_dac_ex.c ****   */
  35:Drivers/STM32F3xx_HAL_Driver/Src/stm32f3xx_hal_dac_ex.c **** 
  36:Drivers/STM32F3xx_HAL_Driver/Src/stm32f3xx_hal_dac_ex.c **** /* Includes ------------------------------------------------------------------*/
  37:Drivers/STM32F3xx_HAL_Driver/Src/stm32f3xx_hal_dac_ex.c **** #include "stm32f3xx_hal.h"
  38:Drivers/STM32F3xx_HAL_Driver/Src/stm32f3xx_hal_dac_ex.c **** 
  39:Drivers/STM32F3xx_HAL_Driver/Src/stm32f3xx_hal_dac_ex.c **** /** @addtogroup STM32F3xx_HAL_Driver
  40:Drivers/STM32F3xx_HAL_Driver/Src/stm32f3xx_hal_dac_ex.c ****   * @{
  41:Drivers/STM32F3xx_HAL_Driver/Src/stm32f3xx_hal_dac_ex.c ****   */
  42:Drivers/STM32F3xx_HAL_Driver/Src/stm32f3xx_hal_dac_ex.c **** 
  43:Drivers/STM32F3xx_HAL_Driver/Src/stm32f3xx_hal_dac_ex.c **** #ifdef HAL_DAC_MODULE_ENABLED
  44:Drivers/STM32F3xx_HAL_Driver/Src/stm32f3xx_hal_dac_ex.c **** 
  45:Drivers/STM32F3xx_HAL_Driver/Src/stm32f3xx_hal_dac_ex.c **** /** @defgroup DACEx DACEx
  46:Drivers/STM32F3xx_HAL_Driver/Src/stm32f3xx_hal_dac_ex.c ****   * @brief DAC HAL module driver
  47:Drivers/STM32F3xx_HAL_Driver/Src/stm32f3xx_hal_dac_ex.c ****   * @{
  48:Drivers/STM32F3xx_HAL_Driver/Src/stm32f3xx_hal_dac_ex.c ****   */
  49:Drivers/STM32F3xx_HAL_Driver/Src/stm32f3xx_hal_dac_ex.c **** 
  50:Drivers/STM32F3xx_HAL_Driver/Src/stm32f3xx_hal_dac_ex.c **** /* Private typedef -----------------------------------------------------------*/
  51:Drivers/STM32F3xx_HAL_Driver/Src/stm32f3xx_hal_dac_ex.c **** /* Private define ------------------------------------------------------------*/
  52:Drivers/STM32F3xx_HAL_Driver/Src/stm32f3xx_hal_dac_ex.c **** /* Private macro -------------------------------------------------------------*/
  53:Drivers/STM32F3xx_HAL_Driver/Src/stm32f3xx_hal_dac_ex.c **** /* Private variables ---------------------------------------------------------*/
  54:Drivers/STM32F3xx_HAL_Driver/Src/stm32f3xx_hal_dac_ex.c **** /* Private function prototypes -----------------------------------------------*/
  55:Drivers/STM32F3xx_HAL_Driver/Src/stm32f3xx_hal_dac_ex.c **** /** @defgroup DACEx_Private_Functions DACEx Private Functions
  56:Drivers/STM32F3xx_HAL_Driver/Src/stm32f3xx_hal_dac_ex.c ****   * @{
  57:Drivers/STM32F3xx_HAL_Driver/Src/stm32f3xx_hal_dac_ex.c ****   */
  58:Drivers/STM32F3xx_HAL_Driver/Src/stm32f3xx_hal_dac_ex.c **** static void DAC_DMAConvCpltCh1(DMA_HandleTypeDef *hdma);
  59:Drivers/STM32F3xx_HAL_Driver/Src/stm32f3xx_hal_dac_ex.c **** static void DAC_DMAErrorCh1(DMA_HandleTypeDef *hdma);
  60:Drivers/STM32F3xx_HAL_Driver/Src/stm32f3xx_hal_dac_ex.c **** static void DAC_DMAHalfConvCpltCh1(DMA_HandleTypeDef *hdma); 
  61:Drivers/STM32F3xx_HAL_Driver/Src/stm32f3xx_hal_dac_ex.c **** 
  62:Drivers/STM32F3xx_HAL_Driver/Src/stm32f3xx_hal_dac_ex.c **** #if defined(STM32F303xE) || defined(STM32F398xx)                         || \
  63:Drivers/STM32F3xx_HAL_Driver/Src/stm32f3xx_hal_dac_ex.c ****     defined(STM32F303xC) || defined(STM32F358xx)                         || \
  64:Drivers/STM32F3xx_HAL_Driver/Src/stm32f3xx_hal_dac_ex.c ****     defined(STM32F303x8) || defined(STM32F334x8) || defined(STM32F328xx) || \
  65:Drivers/STM32F3xx_HAL_Driver/Src/stm32f3xx_hal_dac_ex.c ****     defined(STM32F373xC) || defined(STM32F378xx) 
  66:Drivers/STM32F3xx_HAL_Driver/Src/stm32f3xx_hal_dac_ex.c **** /* DAC channel 2 is available on top of DAC channel 1U */
  67:Drivers/STM32F3xx_HAL_Driver/Src/stm32f3xx_hal_dac_ex.c **** static void DAC_DMAConvCpltCh2(DMA_HandleTypeDef *hdma);
  68:Drivers/STM32F3xx_HAL_Driver/Src/stm32f3xx_hal_dac_ex.c **** static void DAC_DMAErrorCh2(DMA_HandleTypeDef *hdma);
  69:Drivers/STM32F3xx_HAL_Driver/Src/stm32f3xx_hal_dac_ex.c **** static void DAC_DMAHalfConvCpltCh2(DMA_HandleTypeDef *hdma); 
  70:Drivers/STM32F3xx_HAL_Driver/Src/stm32f3xx_hal_dac_ex.c **** #endif /* STM32F303xE || STM32F398xx                || */
  71:Drivers/STM32F3xx_HAL_Driver/Src/stm32f3xx_hal_dac_ex.c ****        /* STM32F303xC || STM32F358xx                || */
  72:Drivers/STM32F3xx_HAL_Driver/Src/stm32f3xx_hal_dac_ex.c ****        /* STM32F303x8 || STM32F334x8 || STM32F328xx || */
  73:Drivers/STM32F3xx_HAL_Driver/Src/stm32f3xx_hal_dac_ex.c ****        /* STM32F373xC || STM32F378xx                   */
  74:Drivers/STM32F3xx_HAL_Driver/Src/stm32f3xx_hal_dac_ex.c **** /**
  75:Drivers/STM32F3xx_HAL_Driver/Src/stm32f3xx_hal_dac_ex.c ****   * @}
  76:Drivers/STM32F3xx_HAL_Driver/Src/stm32f3xx_hal_dac_ex.c ****   */
  77:Drivers/STM32F3xx_HAL_Driver/Src/stm32f3xx_hal_dac_ex.c **** 
  78:Drivers/STM32F3xx_HAL_Driver/Src/stm32f3xx_hal_dac_ex.c **** /* Exported functions ---------------------------------------------------------*/
  79:Drivers/STM32F3xx_HAL_Driver/Src/stm32f3xx_hal_dac_ex.c **** /** @defgroup DACEx_Exported_Functions DACEx Exported Functions
  80:Drivers/STM32F3xx_HAL_Driver/Src/stm32f3xx_hal_dac_ex.c ****   * @{
  81:Drivers/STM32F3xx_HAL_Driver/Src/stm32f3xx_hal_dac_ex.c ****   */
  82:Drivers/STM32F3xx_HAL_Driver/Src/stm32f3xx_hal_dac_ex.c **** 
  83:Drivers/STM32F3xx_HAL_Driver/Src/stm32f3xx_hal_dac_ex.c **** /** @defgroup DACEx_Exported_Functions_Group3 DACEx Peripheral Control functions
  84:Drivers/STM32F3xx_HAL_Driver/Src/stm32f3xx_hal_dac_ex.c ****  *  @brief   	Peripheral Control functions 
  85:Drivers/STM32F3xx_HAL_Driver/Src/stm32f3xx_hal_dac_ex.c ****  *
  86:Drivers/STM32F3xx_HAL_Driver/Src/stm32f3xx_hal_dac_ex.c **** @verbatim   
ARM GAS  /var/folders/b1/22c950295gx2kqj80tvj8wqc0000gn/T//ccfZwynw.s 			page 3


  87:Drivers/STM32F3xx_HAL_Driver/Src/stm32f3xx_hal_dac_ex.c ****   ==============================================================================
  88:Drivers/STM32F3xx_HAL_Driver/Src/stm32f3xx_hal_dac_ex.c ****              ##### Peripheral Control functions #####
  89:Drivers/STM32F3xx_HAL_Driver/Src/stm32f3xx_hal_dac_ex.c ****   ==============================================================================  
  90:Drivers/STM32F3xx_HAL_Driver/Src/stm32f3xx_hal_dac_ex.c ****     [..]  This section provides functions allowing to:
  91:Drivers/STM32F3xx_HAL_Driver/Src/stm32f3xx_hal_dac_ex.c ****       (+) Set the specified data holding register value for DAC channel.
  92:Drivers/STM32F3xx_HAL_Driver/Src/stm32f3xx_hal_dac_ex.c ****       (+) Set the specified data holding register value for dual DAC channel
  93:Drivers/STM32F3xx_HAL_Driver/Src/stm32f3xx_hal_dac_ex.c **** 	      (when DAC channel 2 is present in DAC 1U)
  94:Drivers/STM32F3xx_HAL_Driver/Src/stm32f3xx_hal_dac_ex.c ****       
  95:Drivers/STM32F3xx_HAL_Driver/Src/stm32f3xx_hal_dac_ex.c **** @endverbatim
  96:Drivers/STM32F3xx_HAL_Driver/Src/stm32f3xx_hal_dac_ex.c ****   * @{
  97:Drivers/STM32F3xx_HAL_Driver/Src/stm32f3xx_hal_dac_ex.c ****   */
  98:Drivers/STM32F3xx_HAL_Driver/Src/stm32f3xx_hal_dac_ex.c **** 
  99:Drivers/STM32F3xx_HAL_Driver/Src/stm32f3xx_hal_dac_ex.c **** /**
 100:Drivers/STM32F3xx_HAL_Driver/Src/stm32f3xx_hal_dac_ex.c ****   * @brief  Set the specified data holding register value for DAC channel.
 101:Drivers/STM32F3xx_HAL_Driver/Src/stm32f3xx_hal_dac_ex.c ****   * @param  hdac pointer to a DAC_HandleTypeDef structure that contains
 102:Drivers/STM32F3xx_HAL_Driver/Src/stm32f3xx_hal_dac_ex.c ****   *         the configuration information for the specified DAC.
 103:Drivers/STM32F3xx_HAL_Driver/Src/stm32f3xx_hal_dac_ex.c ****   * @param  Channel The selected DAC channel. 
 104:Drivers/STM32F3xx_HAL_Driver/Src/stm32f3xx_hal_dac_ex.c ****   * @param  Alignment Specifies the data alignment for DAC channel.
 105:Drivers/STM32F3xx_HAL_Driver/Src/stm32f3xx_hal_dac_ex.c ****   *          This parameter can be one of the following values:
 106:Drivers/STM32F3xx_HAL_Driver/Src/stm32f3xx_hal_dac_ex.c ****   *            @arg DAC_ALIGN_8B_R: 8bit right data alignment selected
 107:Drivers/STM32F3xx_HAL_Driver/Src/stm32f3xx_hal_dac_ex.c ****   *            @arg DAC_ALIGN_12B_L: 12bit left data alignment selected
 108:Drivers/STM32F3xx_HAL_Driver/Src/stm32f3xx_hal_dac_ex.c ****   *            @arg DAC_ALIGN_12B_R: 12bit right data alignment selected
 109:Drivers/STM32F3xx_HAL_Driver/Src/stm32f3xx_hal_dac_ex.c ****   * @param  Data Data to be loaded in the selected data holding register.
 110:Drivers/STM32F3xx_HAL_Driver/Src/stm32f3xx_hal_dac_ex.c ****   * @retval HAL status
 111:Drivers/STM32F3xx_HAL_Driver/Src/stm32f3xx_hal_dac_ex.c ****   */
 112:Drivers/STM32F3xx_HAL_Driver/Src/stm32f3xx_hal_dac_ex.c **** HAL_StatusTypeDef HAL_DAC_SetValue(DAC_HandleTypeDef* hdac, uint32_t Channel, uint32_t Alignment, u
 113:Drivers/STM32F3xx_HAL_Driver/Src/stm32f3xx_hal_dac_ex.c **** {  
 114:Drivers/STM32F3xx_HAL_Driver/Src/stm32f3xx_hal_dac_ex.c ****   __IO uint32_t tmp = 0U;
 115:Drivers/STM32F3xx_HAL_Driver/Src/stm32f3xx_hal_dac_ex.c ****   
 116:Drivers/STM32F3xx_HAL_Driver/Src/stm32f3xx_hal_dac_ex.c ****   /* Check the parameters */
 117:Drivers/STM32F3xx_HAL_Driver/Src/stm32f3xx_hal_dac_ex.c ****   assert_param(IS_DAC_CHANNEL(Channel));
 118:Drivers/STM32F3xx_HAL_Driver/Src/stm32f3xx_hal_dac_ex.c ****   assert_param(IS_DAC_ALIGN(Alignment));
 119:Drivers/STM32F3xx_HAL_Driver/Src/stm32f3xx_hal_dac_ex.c ****   assert_param(IS_DAC_DATA(Data));
 120:Drivers/STM32F3xx_HAL_Driver/Src/stm32f3xx_hal_dac_ex.c ****    
 121:Drivers/STM32F3xx_HAL_Driver/Src/stm32f3xx_hal_dac_ex.c ****   tmp = (uint32_t) (hdac->Instance);
 122:Drivers/STM32F3xx_HAL_Driver/Src/stm32f3xx_hal_dac_ex.c **** 
 123:Drivers/STM32F3xx_HAL_Driver/Src/stm32f3xx_hal_dac_ex.c **** /* DAC 1 has 1 or 2 channels - no DAC2 */
 124:Drivers/STM32F3xx_HAL_Driver/Src/stm32f3xx_hal_dac_ex.c **** /* DAC 1 has 2 channels 1U & 2U - DAC 2 has one channel 1U */
 125:Drivers/STM32F3xx_HAL_Driver/Src/stm32f3xx_hal_dac_ex.c **** 
 126:Drivers/STM32F3xx_HAL_Driver/Src/stm32f3xx_hal_dac_ex.c ****   if(Channel == DAC_CHANNEL_1)
 127:Drivers/STM32F3xx_HAL_Driver/Src/stm32f3xx_hal_dac_ex.c ****   {
 128:Drivers/STM32F3xx_HAL_Driver/Src/stm32f3xx_hal_dac_ex.c ****     tmp += DAC_DHR12R1_ALIGNMENT(Alignment);
 129:Drivers/STM32F3xx_HAL_Driver/Src/stm32f3xx_hal_dac_ex.c ****   }
 130:Drivers/STM32F3xx_HAL_Driver/Src/stm32f3xx_hal_dac_ex.c **** #if defined(STM32F303xE) || defined(STM32F398xx)                         || \
 131:Drivers/STM32F3xx_HAL_Driver/Src/stm32f3xx_hal_dac_ex.c ****     defined(STM32F303xC) || defined(STM32F358xx)                         || \
 132:Drivers/STM32F3xx_HAL_Driver/Src/stm32f3xx_hal_dac_ex.c ****     defined(STM32F303x8) || defined(STM32F334x8) || defined(STM32F328xx) || \
 133:Drivers/STM32F3xx_HAL_Driver/Src/stm32f3xx_hal_dac_ex.c ****     defined(STM32F373xC) || defined(STM32F378xx)
 134:Drivers/STM32F3xx_HAL_Driver/Src/stm32f3xx_hal_dac_ex.c ****   else /* channel = DAC_CHANNEL_2  */
 135:Drivers/STM32F3xx_HAL_Driver/Src/stm32f3xx_hal_dac_ex.c ****   {
 136:Drivers/STM32F3xx_HAL_Driver/Src/stm32f3xx_hal_dac_ex.c ****     tmp += DAC_DHR12R2_ALIGNMENT(Alignment);
 137:Drivers/STM32F3xx_HAL_Driver/Src/stm32f3xx_hal_dac_ex.c ****   }
 138:Drivers/STM32F3xx_HAL_Driver/Src/stm32f3xx_hal_dac_ex.c **** #endif /* STM32F303xE || STM32F398xx                || */
 139:Drivers/STM32F3xx_HAL_Driver/Src/stm32f3xx_hal_dac_ex.c ****        /* STM32F303xC || STM32F358xx                || */
 140:Drivers/STM32F3xx_HAL_Driver/Src/stm32f3xx_hal_dac_ex.c ****        /* STM32F303x8 || STM32F334x8 || STM32F328xx || */
 141:Drivers/STM32F3xx_HAL_Driver/Src/stm32f3xx_hal_dac_ex.c ****        /* STM32F373xC || STM32F378xx                   */
 142:Drivers/STM32F3xx_HAL_Driver/Src/stm32f3xx_hal_dac_ex.c **** 
 143:Drivers/STM32F3xx_HAL_Driver/Src/stm32f3xx_hal_dac_ex.c ****   /* Set the DAC channel1 selected data holding register */
ARM GAS  /var/folders/b1/22c950295gx2kqj80tvj8wqc0000gn/T//ccfZwynw.s 			page 4


 144:Drivers/STM32F3xx_HAL_Driver/Src/stm32f3xx_hal_dac_ex.c ****   *(__IO uint32_t *) tmp = Data;
 145:Drivers/STM32F3xx_HAL_Driver/Src/stm32f3xx_hal_dac_ex.c ****   
 146:Drivers/STM32F3xx_HAL_Driver/Src/stm32f3xx_hal_dac_ex.c ****   /* Return function status */
 147:Drivers/STM32F3xx_HAL_Driver/Src/stm32f3xx_hal_dac_ex.c ****   return HAL_OK;
 148:Drivers/STM32F3xx_HAL_Driver/Src/stm32f3xx_hal_dac_ex.c **** }
 149:Drivers/STM32F3xx_HAL_Driver/Src/stm32f3xx_hal_dac_ex.c **** 
 150:Drivers/STM32F3xx_HAL_Driver/Src/stm32f3xx_hal_dac_ex.c **** #if  defined(STM32F303xE) || defined(STM32F398xx)                         || \
 151:Drivers/STM32F3xx_HAL_Driver/Src/stm32f3xx_hal_dac_ex.c ****      defined(STM32F303xC) || defined(STM32F358xx)                         || \
 152:Drivers/STM32F3xx_HAL_Driver/Src/stm32f3xx_hal_dac_ex.c ****      defined(STM32F303x8) || defined(STM32F334x8) || defined(STM32F328xx) || \
 153:Drivers/STM32F3xx_HAL_Driver/Src/stm32f3xx_hal_dac_ex.c ****      defined(STM32F373xC) || defined(STM32F378xx)
 154:Drivers/STM32F3xx_HAL_Driver/Src/stm32f3xx_hal_dac_ex.c **** /* DAC channel 2 is present in DAC 1U */
 155:Drivers/STM32F3xx_HAL_Driver/Src/stm32f3xx_hal_dac_ex.c **** /**
 156:Drivers/STM32F3xx_HAL_Driver/Src/stm32f3xx_hal_dac_ex.c ****   * @brief  Set the specified data holding register value for dual DAC channel.
 157:Drivers/STM32F3xx_HAL_Driver/Src/stm32f3xx_hal_dac_ex.c ****   * @param  hdac pointer to a DAC_HandleTypeDef structure that contains
 158:Drivers/STM32F3xx_HAL_Driver/Src/stm32f3xx_hal_dac_ex.c ****   *         the configuration information for the specified DAC.
 159:Drivers/STM32F3xx_HAL_Driver/Src/stm32f3xx_hal_dac_ex.c ****   * @param  Alignment Specifies the data alignment for dual channel DAC.
 160:Drivers/STM32F3xx_HAL_Driver/Src/stm32f3xx_hal_dac_ex.c ****   *          This parameter can be one of the following values:
 161:Drivers/STM32F3xx_HAL_Driver/Src/stm32f3xx_hal_dac_ex.c ****   *            @arg DAC_ALIGN_8B_R: 8bit right data alignment selected
 162:Drivers/STM32F3xx_HAL_Driver/Src/stm32f3xx_hal_dac_ex.c ****   *            @arg DAC_ALIGN_12B_L: 12bit left data alignment selected
 163:Drivers/STM32F3xx_HAL_Driver/Src/stm32f3xx_hal_dac_ex.c ****   *            @arg DAC_ALIGN_12B_R: 12bit right data alignment selected
 164:Drivers/STM32F3xx_HAL_Driver/Src/stm32f3xx_hal_dac_ex.c ****   * @param  Data2: Data for DAC Channel2 to be loaded in the selected data holding register.
 165:Drivers/STM32F3xx_HAL_Driver/Src/stm32f3xx_hal_dac_ex.c ****   * @param  Data1: Data for DAC Channel1 to be loaded in the selected data  holding register.
 166:Drivers/STM32F3xx_HAL_Driver/Src/stm32f3xx_hal_dac_ex.c ****   * @note   In dual mode, a unique register access is required to write in both
 167:Drivers/STM32F3xx_HAL_Driver/Src/stm32f3xx_hal_dac_ex.c ****   *          DAC channels at the same time.
 168:Drivers/STM32F3xx_HAL_Driver/Src/stm32f3xx_hal_dac_ex.c ****   * @retval HAL status
 169:Drivers/STM32F3xx_HAL_Driver/Src/stm32f3xx_hal_dac_ex.c ****   */
 170:Drivers/STM32F3xx_HAL_Driver/Src/stm32f3xx_hal_dac_ex.c **** HAL_StatusTypeDef HAL_DACEx_DualSetValue(DAC_HandleTypeDef* hdac, uint32_t Alignment, uint32_t Data
 171:Drivers/STM32F3xx_HAL_Driver/Src/stm32f3xx_hal_dac_ex.c **** {
 172:Drivers/STM32F3xx_HAL_Driver/Src/stm32f3xx_hal_dac_ex.c ****   uint32_t data = 0U, tmp = 0U;
 173:Drivers/STM32F3xx_HAL_Driver/Src/stm32f3xx_hal_dac_ex.c **** 
 174:Drivers/STM32F3xx_HAL_Driver/Src/stm32f3xx_hal_dac_ex.c ****   /* Check the parameters */
 175:Drivers/STM32F3xx_HAL_Driver/Src/stm32f3xx_hal_dac_ex.c ****   assert_param(IS_DAC_ALIGN(Alignment));
 176:Drivers/STM32F3xx_HAL_Driver/Src/stm32f3xx_hal_dac_ex.c ****   assert_param(IS_DAC_DATA(Data1));
 177:Drivers/STM32F3xx_HAL_Driver/Src/stm32f3xx_hal_dac_ex.c ****   assert_param(IS_DAC_DATA(Data2));
 178:Drivers/STM32F3xx_HAL_Driver/Src/stm32f3xx_hal_dac_ex.c **** 
 179:Drivers/STM32F3xx_HAL_Driver/Src/stm32f3xx_hal_dac_ex.c ****   /* Calculate and set dual DAC data holding register value */
 180:Drivers/STM32F3xx_HAL_Driver/Src/stm32f3xx_hal_dac_ex.c ****   if (Alignment == DAC_ALIGN_8B_R)
 181:Drivers/STM32F3xx_HAL_Driver/Src/stm32f3xx_hal_dac_ex.c ****   {
 182:Drivers/STM32F3xx_HAL_Driver/Src/stm32f3xx_hal_dac_ex.c ****     data = ((uint32_t)Data2 << 8U) | Data1;
 183:Drivers/STM32F3xx_HAL_Driver/Src/stm32f3xx_hal_dac_ex.c ****   }
 184:Drivers/STM32F3xx_HAL_Driver/Src/stm32f3xx_hal_dac_ex.c ****   else
 185:Drivers/STM32F3xx_HAL_Driver/Src/stm32f3xx_hal_dac_ex.c ****   {
 186:Drivers/STM32F3xx_HAL_Driver/Src/stm32f3xx_hal_dac_ex.c ****     data = ((uint32_t)Data2 << 16U) | Data1;
 187:Drivers/STM32F3xx_HAL_Driver/Src/stm32f3xx_hal_dac_ex.c ****   }
 188:Drivers/STM32F3xx_HAL_Driver/Src/stm32f3xx_hal_dac_ex.c **** 
 189:Drivers/STM32F3xx_HAL_Driver/Src/stm32f3xx_hal_dac_ex.c ****     tmp = (uint32_t) (hdac->Instance);
 190:Drivers/STM32F3xx_HAL_Driver/Src/stm32f3xx_hal_dac_ex.c ****     tmp += DAC_DHR12RD_ALIGNMENT(Alignment);
 191:Drivers/STM32F3xx_HAL_Driver/Src/stm32f3xx_hal_dac_ex.c **** 
 192:Drivers/STM32F3xx_HAL_Driver/Src/stm32f3xx_hal_dac_ex.c ****   /* Set the dual DAC selected data holding register */
 193:Drivers/STM32F3xx_HAL_Driver/Src/stm32f3xx_hal_dac_ex.c ****   *(__IO uint32_t *)tmp = data;
 194:Drivers/STM32F3xx_HAL_Driver/Src/stm32f3xx_hal_dac_ex.c **** 
 195:Drivers/STM32F3xx_HAL_Driver/Src/stm32f3xx_hal_dac_ex.c ****   /* Return function status */
 196:Drivers/STM32F3xx_HAL_Driver/Src/stm32f3xx_hal_dac_ex.c ****   return HAL_OK;
 197:Drivers/STM32F3xx_HAL_Driver/Src/stm32f3xx_hal_dac_ex.c **** }
 198:Drivers/STM32F3xx_HAL_Driver/Src/stm32f3xx_hal_dac_ex.c **** #endif /* STM32F303xE || STM32F398xx                || */
 199:Drivers/STM32F3xx_HAL_Driver/Src/stm32f3xx_hal_dac_ex.c ****        /* STM32F303xC || STM32F358xx                || */
 200:Drivers/STM32F3xx_HAL_Driver/Src/stm32f3xx_hal_dac_ex.c ****        /* STM32F303x8 || STM32F334x8 || STM32F328xx || */
ARM GAS  /var/folders/b1/22c950295gx2kqj80tvj8wqc0000gn/T//ccfZwynw.s 			page 5


 201:Drivers/STM32F3xx_HAL_Driver/Src/stm32f3xx_hal_dac_ex.c ****        /* STM32F373xC || STM32F378xx                   */
 202:Drivers/STM32F3xx_HAL_Driver/Src/stm32f3xx_hal_dac_ex.c **** 
 203:Drivers/STM32F3xx_HAL_Driver/Src/stm32f3xx_hal_dac_ex.c **** /**
 204:Drivers/STM32F3xx_HAL_Driver/Src/stm32f3xx_hal_dac_ex.c ****   * @}
 205:Drivers/STM32F3xx_HAL_Driver/Src/stm32f3xx_hal_dac_ex.c ****   */
 206:Drivers/STM32F3xx_HAL_Driver/Src/stm32f3xx_hal_dac_ex.c **** 
 207:Drivers/STM32F3xx_HAL_Driver/Src/stm32f3xx_hal_dac_ex.c **** /** @defgroup DACEx_Exported_Functions_Group2 DACEx Input and Output operation functions
 208:Drivers/STM32F3xx_HAL_Driver/Src/stm32f3xx_hal_dac_ex.c ****  *  @brief    IO operation functions 
 209:Drivers/STM32F3xx_HAL_Driver/Src/stm32f3xx_hal_dac_ex.c ****  *
 210:Drivers/STM32F3xx_HAL_Driver/Src/stm32f3xx_hal_dac_ex.c **** @verbatim   
 211:Drivers/STM32F3xx_HAL_Driver/Src/stm32f3xx_hal_dac_ex.c ****   ==============================================================================
 212:Drivers/STM32F3xx_HAL_Driver/Src/stm32f3xx_hal_dac_ex.c ****              ##### IO operation functions #####
 213:Drivers/STM32F3xx_HAL_Driver/Src/stm32f3xx_hal_dac_ex.c ****   ==============================================================================  
 214:Drivers/STM32F3xx_HAL_Driver/Src/stm32f3xx_hal_dac_ex.c ****     [..]  This section provides functions allowing to:
 215:Drivers/STM32F3xx_HAL_Driver/Src/stm32f3xx_hal_dac_ex.c ****       (+) Start conversion.
 216:Drivers/STM32F3xx_HAL_Driver/Src/stm32f3xx_hal_dac_ex.c ****       (+) Start conversion and enable DMA transfer.
 217:Drivers/STM32F3xx_HAL_Driver/Src/stm32f3xx_hal_dac_ex.c ****       (+) Get result of conversion.
 218:Drivers/STM32F3xx_HAL_Driver/Src/stm32f3xx_hal_dac_ex.c ****       (+) Handle DAC IRQ's.
 219:Drivers/STM32F3xx_HAL_Driver/Src/stm32f3xx_hal_dac_ex.c ****       (+) Generate triangular-wave                   
 220:Drivers/STM32F3xx_HAL_Driver/Src/stm32f3xx_hal_dac_ex.c ****       (+) Generate noise-wave
 221:Drivers/STM32F3xx_HAL_Driver/Src/stm32f3xx_hal_dac_ex.c **** 	  (+) Callback functions for DAC1 Channel2 (when supported)
 222:Drivers/STM32F3xx_HAL_Driver/Src/stm32f3xx_hal_dac_ex.c **** @endverbatim
 223:Drivers/STM32F3xx_HAL_Driver/Src/stm32f3xx_hal_dac_ex.c ****   * @{
 224:Drivers/STM32F3xx_HAL_Driver/Src/stm32f3xx_hal_dac_ex.c ****   */
 225:Drivers/STM32F3xx_HAL_Driver/Src/stm32f3xx_hal_dac_ex.c **** 
 226:Drivers/STM32F3xx_HAL_Driver/Src/stm32f3xx_hal_dac_ex.c **** #if  defined(STM32F303xE) || defined(STM32F398xx)                         || \
 227:Drivers/STM32F3xx_HAL_Driver/Src/stm32f3xx_hal_dac_ex.c ****      defined(STM32F303xC) || defined(STM32F358xx)                         || \
 228:Drivers/STM32F3xx_HAL_Driver/Src/stm32f3xx_hal_dac_ex.c ****      defined(STM32F303x8) || defined(STM32F334x8) || defined(STM32F328xx) || \
 229:Drivers/STM32F3xx_HAL_Driver/Src/stm32f3xx_hal_dac_ex.c ****      defined(STM32F373xC) || defined(STM32F378xx)
 230:Drivers/STM32F3xx_HAL_Driver/Src/stm32f3xx_hal_dac_ex.c **** 
 231:Drivers/STM32F3xx_HAL_Driver/Src/stm32f3xx_hal_dac_ex.c **** /* DAC 1 has 2 channels 1U & 2U - DAC 2 has one channel 1U */
 232:Drivers/STM32F3xx_HAL_Driver/Src/stm32f3xx_hal_dac_ex.c **** /**
 233:Drivers/STM32F3xx_HAL_Driver/Src/stm32f3xx_hal_dac_ex.c ****   * @brief  Enables DAC and starts conversion of channel.
 234:Drivers/STM32F3xx_HAL_Driver/Src/stm32f3xx_hal_dac_ex.c ****   * @param  hdac pointer to a DAC_HandleTypeDef structure that contains
 235:Drivers/STM32F3xx_HAL_Driver/Src/stm32f3xx_hal_dac_ex.c ****   *         the configuration information for the specified DAC.
 236:Drivers/STM32F3xx_HAL_Driver/Src/stm32f3xx_hal_dac_ex.c ****   * @param  Channel The selected DAC channel. 
 237:Drivers/STM32F3xx_HAL_Driver/Src/stm32f3xx_hal_dac_ex.c ****   *          This parameter can be one of the following values:
 238:Drivers/STM32F3xx_HAL_Driver/Src/stm32f3xx_hal_dac_ex.c ****   *            @arg DAC_CHANNEL_1: DAC1 Channel1 or DAC2 Channel1 selected
 239:Drivers/STM32F3xx_HAL_Driver/Src/stm32f3xx_hal_dac_ex.c ****   *            @arg DAC_CHANNEL_2: DAC1 Channel2 selected
 240:Drivers/STM32F3xx_HAL_Driver/Src/stm32f3xx_hal_dac_ex.c ****   * @retval HAL status
 241:Drivers/STM32F3xx_HAL_Driver/Src/stm32f3xx_hal_dac_ex.c ****   */
 242:Drivers/STM32F3xx_HAL_Driver/Src/stm32f3xx_hal_dac_ex.c **** HAL_StatusTypeDef HAL_DAC_Start(DAC_HandleTypeDef* hdac, uint32_t Channel)
 243:Drivers/STM32F3xx_HAL_Driver/Src/stm32f3xx_hal_dac_ex.c **** {
 244:Drivers/STM32F3xx_HAL_Driver/Src/stm32f3xx_hal_dac_ex.c ****   /* Check the parameters */
 245:Drivers/STM32F3xx_HAL_Driver/Src/stm32f3xx_hal_dac_ex.c ****   assert_param(IS_DAC_CHANNEL_INSTANCE(hdac->Instance, Channel));
 246:Drivers/STM32F3xx_HAL_Driver/Src/stm32f3xx_hal_dac_ex.c ****   
 247:Drivers/STM32F3xx_HAL_Driver/Src/stm32f3xx_hal_dac_ex.c ****   /* Process locked */
 248:Drivers/STM32F3xx_HAL_Driver/Src/stm32f3xx_hal_dac_ex.c ****   __HAL_LOCK(hdac);
 249:Drivers/STM32F3xx_HAL_Driver/Src/stm32f3xx_hal_dac_ex.c ****   
 250:Drivers/STM32F3xx_HAL_Driver/Src/stm32f3xx_hal_dac_ex.c ****   /* Change DAC state */
 251:Drivers/STM32F3xx_HAL_Driver/Src/stm32f3xx_hal_dac_ex.c ****   hdac->State = HAL_DAC_STATE_BUSY;
 252:Drivers/STM32F3xx_HAL_Driver/Src/stm32f3xx_hal_dac_ex.c ****   
 253:Drivers/STM32F3xx_HAL_Driver/Src/stm32f3xx_hal_dac_ex.c ****   /* Enable the Peripheral */
 254:Drivers/STM32F3xx_HAL_Driver/Src/stm32f3xx_hal_dac_ex.c ****   __HAL_DAC_ENABLE(hdac, Channel);
 255:Drivers/STM32F3xx_HAL_Driver/Src/stm32f3xx_hal_dac_ex.c ****   
 256:Drivers/STM32F3xx_HAL_Driver/Src/stm32f3xx_hal_dac_ex.c ****   if(Channel == DAC_CHANNEL_1)
 257:Drivers/STM32F3xx_HAL_Driver/Src/stm32f3xx_hal_dac_ex.c ****   {
ARM GAS  /var/folders/b1/22c950295gx2kqj80tvj8wqc0000gn/T//ccfZwynw.s 			page 6


 258:Drivers/STM32F3xx_HAL_Driver/Src/stm32f3xx_hal_dac_ex.c ****     /* Check if software trigger enabled */
 259:Drivers/STM32F3xx_HAL_Driver/Src/stm32f3xx_hal_dac_ex.c ****     if((hdac->Instance->CR & (DAC_CR_TEN1 | DAC_CR_TSEL1)) == (DAC_CR_TEN1 | DAC_CR_TSEL1))
 260:Drivers/STM32F3xx_HAL_Driver/Src/stm32f3xx_hal_dac_ex.c ****     {
 261:Drivers/STM32F3xx_HAL_Driver/Src/stm32f3xx_hal_dac_ex.c ****       /* Enable the selected DAC software conversion */
 262:Drivers/STM32F3xx_HAL_Driver/Src/stm32f3xx_hal_dac_ex.c ****       SET_BIT(hdac->Instance->SWTRIGR, DAC_SWTRIGR_SWTRIG1);
 263:Drivers/STM32F3xx_HAL_Driver/Src/stm32f3xx_hal_dac_ex.c ****     }
 264:Drivers/STM32F3xx_HAL_Driver/Src/stm32f3xx_hal_dac_ex.c ****   }
 265:Drivers/STM32F3xx_HAL_Driver/Src/stm32f3xx_hal_dac_ex.c ****   else
 266:Drivers/STM32F3xx_HAL_Driver/Src/stm32f3xx_hal_dac_ex.c ****   {
 267:Drivers/STM32F3xx_HAL_Driver/Src/stm32f3xx_hal_dac_ex.c ****     /* Check if software trigger enabled */
 268:Drivers/STM32F3xx_HAL_Driver/Src/stm32f3xx_hal_dac_ex.c ****     if((hdac->Instance->CR & (DAC_CR_TEN2 | DAC_CR_TSEL2)) == (DAC_CR_TEN2 | DAC_CR_TSEL2))
 269:Drivers/STM32F3xx_HAL_Driver/Src/stm32f3xx_hal_dac_ex.c ****     {
 270:Drivers/STM32F3xx_HAL_Driver/Src/stm32f3xx_hal_dac_ex.c ****       /* Enable the selected DAC software conversion */
 271:Drivers/STM32F3xx_HAL_Driver/Src/stm32f3xx_hal_dac_ex.c ****       SET_BIT(hdac->Instance->SWTRIGR, DAC_SWTRIGR_SWTRIG2);
 272:Drivers/STM32F3xx_HAL_Driver/Src/stm32f3xx_hal_dac_ex.c ****     }
 273:Drivers/STM32F3xx_HAL_Driver/Src/stm32f3xx_hal_dac_ex.c ****   }
 274:Drivers/STM32F3xx_HAL_Driver/Src/stm32f3xx_hal_dac_ex.c ****   
 275:Drivers/STM32F3xx_HAL_Driver/Src/stm32f3xx_hal_dac_ex.c ****   /* Change DAC state */
 276:Drivers/STM32F3xx_HAL_Driver/Src/stm32f3xx_hal_dac_ex.c ****   hdac->State = HAL_DAC_STATE_READY;
 277:Drivers/STM32F3xx_HAL_Driver/Src/stm32f3xx_hal_dac_ex.c ****   
 278:Drivers/STM32F3xx_HAL_Driver/Src/stm32f3xx_hal_dac_ex.c ****   /* Process unlocked */
 279:Drivers/STM32F3xx_HAL_Driver/Src/stm32f3xx_hal_dac_ex.c ****   __HAL_UNLOCK(hdac);
 280:Drivers/STM32F3xx_HAL_Driver/Src/stm32f3xx_hal_dac_ex.c ****     
 281:Drivers/STM32F3xx_HAL_Driver/Src/stm32f3xx_hal_dac_ex.c ****   /* Return function status */
 282:Drivers/STM32F3xx_HAL_Driver/Src/stm32f3xx_hal_dac_ex.c ****   return HAL_OK;
 283:Drivers/STM32F3xx_HAL_Driver/Src/stm32f3xx_hal_dac_ex.c **** }
 284:Drivers/STM32F3xx_HAL_Driver/Src/stm32f3xx_hal_dac_ex.c **** #endif /* STM32F303xE || STM32F398xx                || */
 285:Drivers/STM32F3xx_HAL_Driver/Src/stm32f3xx_hal_dac_ex.c ****        /* STM32F303xC || STM32F358xx                || */
 286:Drivers/STM32F3xx_HAL_Driver/Src/stm32f3xx_hal_dac_ex.c ****        /* STM32F303x8 || STM32F334x8 || STM32F328xx || */
 287:Drivers/STM32F3xx_HAL_Driver/Src/stm32f3xx_hal_dac_ex.c ****        /* STM32F373xC || STM32F378xx                   */
 288:Drivers/STM32F3xx_HAL_Driver/Src/stm32f3xx_hal_dac_ex.c **** 
 289:Drivers/STM32F3xx_HAL_Driver/Src/stm32f3xx_hal_dac_ex.c **** #if defined(STM32F302xE) || \
 290:Drivers/STM32F3xx_HAL_Driver/Src/stm32f3xx_hal_dac_ex.c ****     defined(STM32F302xC) || \
 291:Drivers/STM32F3xx_HAL_Driver/Src/stm32f3xx_hal_dac_ex.c ****     defined(STM32F301x8) || defined(STM32F302x8) || defined(STM32F318xx)
 292:Drivers/STM32F3xx_HAL_Driver/Src/stm32f3xx_hal_dac_ex.c **** /* DAC 1 has 1 channels 1U */
 293:Drivers/STM32F3xx_HAL_Driver/Src/stm32f3xx_hal_dac_ex.c **** /**
 294:Drivers/STM32F3xx_HAL_Driver/Src/stm32f3xx_hal_dac_ex.c ****   * @brief  Enables DAC and starts conversion of channel.
 295:Drivers/STM32F3xx_HAL_Driver/Src/stm32f3xx_hal_dac_ex.c ****   * @param  hdac pointer to a DAC_HandleTypeDef structure that contains
 296:Drivers/STM32F3xx_HAL_Driver/Src/stm32f3xx_hal_dac_ex.c ****   *         the configuration information for the specified DAC.
 297:Drivers/STM32F3xx_HAL_Driver/Src/stm32f3xx_hal_dac_ex.c ****   * @param  Channel The selected DAC channel. 
 298:Drivers/STM32F3xx_HAL_Driver/Src/stm32f3xx_hal_dac_ex.c ****   *          This parameter can be one of the following values:
 299:Drivers/STM32F3xx_HAL_Driver/Src/stm32f3xx_hal_dac_ex.c ****   *            @arg DAC_CHANNEL_1: DAC1 Channel1 selected
 300:Drivers/STM32F3xx_HAL_Driver/Src/stm32f3xx_hal_dac_ex.c ****   * @retval HAL status 
 301:Drivers/STM32F3xx_HAL_Driver/Src/stm32f3xx_hal_dac_ex.c ****   */
 302:Drivers/STM32F3xx_HAL_Driver/Src/stm32f3xx_hal_dac_ex.c **** 
 303:Drivers/STM32F3xx_HAL_Driver/Src/stm32f3xx_hal_dac_ex.c **** HAL_StatusTypeDef HAL_DAC_Start(DAC_HandleTypeDef* hdac, uint32_t Channel)
 304:Drivers/STM32F3xx_HAL_Driver/Src/stm32f3xx_hal_dac_ex.c **** {
 305:Drivers/STM32F3xx_HAL_Driver/Src/stm32f3xx_hal_dac_ex.c ****   /* Check the parameters */
 306:Drivers/STM32F3xx_HAL_Driver/Src/stm32f3xx_hal_dac_ex.c ****   assert_param(IS_DAC_CHANNEL_INSTANCE(hdac->Instance, Channel));
 307:Drivers/STM32F3xx_HAL_Driver/Src/stm32f3xx_hal_dac_ex.c ****   
 308:Drivers/STM32F3xx_HAL_Driver/Src/stm32f3xx_hal_dac_ex.c ****   /* Process locked */
 309:Drivers/STM32F3xx_HAL_Driver/Src/stm32f3xx_hal_dac_ex.c ****   __HAL_LOCK(hdac);
 310:Drivers/STM32F3xx_HAL_Driver/Src/stm32f3xx_hal_dac_ex.c ****   
 311:Drivers/STM32F3xx_HAL_Driver/Src/stm32f3xx_hal_dac_ex.c ****   /* Change DAC state */
 312:Drivers/STM32F3xx_HAL_Driver/Src/stm32f3xx_hal_dac_ex.c ****   hdac->State = HAL_DAC_STATE_BUSY;
 313:Drivers/STM32F3xx_HAL_Driver/Src/stm32f3xx_hal_dac_ex.c ****   
 314:Drivers/STM32F3xx_HAL_Driver/Src/stm32f3xx_hal_dac_ex.c ****   /* Enable the Peripheral */
ARM GAS  /var/folders/b1/22c950295gx2kqj80tvj8wqc0000gn/T//ccfZwynw.s 			page 7


 315:Drivers/STM32F3xx_HAL_Driver/Src/stm32f3xx_hal_dac_ex.c ****   __HAL_DAC_ENABLE(hdac, Channel);
 316:Drivers/STM32F3xx_HAL_Driver/Src/stm32f3xx_hal_dac_ex.c ****   
 317:Drivers/STM32F3xx_HAL_Driver/Src/stm32f3xx_hal_dac_ex.c ****   /* Check if software trigger enabled */
 318:Drivers/STM32F3xx_HAL_Driver/Src/stm32f3xx_hal_dac_ex.c ****   if((hdac->Instance->CR & (DAC_CR_TEN1 | DAC_CR_TSEL1)) == (DAC_CR_TEN1 | DAC_CR_TSEL1))
 319:Drivers/STM32F3xx_HAL_Driver/Src/stm32f3xx_hal_dac_ex.c ****   {
 320:Drivers/STM32F3xx_HAL_Driver/Src/stm32f3xx_hal_dac_ex.c ****     /* Enable the selected DAC software conversion */
 321:Drivers/STM32F3xx_HAL_Driver/Src/stm32f3xx_hal_dac_ex.c ****     SET_BIT(hdac->Instance->SWTRIGR, DAC_SWTRIGR_SWTRIG1);
 322:Drivers/STM32F3xx_HAL_Driver/Src/stm32f3xx_hal_dac_ex.c ****   }
 323:Drivers/STM32F3xx_HAL_Driver/Src/stm32f3xx_hal_dac_ex.c ****   
 324:Drivers/STM32F3xx_HAL_Driver/Src/stm32f3xx_hal_dac_ex.c ****   /* Change DAC state */
 325:Drivers/STM32F3xx_HAL_Driver/Src/stm32f3xx_hal_dac_ex.c ****   hdac->State = HAL_DAC_STATE_READY;
 326:Drivers/STM32F3xx_HAL_Driver/Src/stm32f3xx_hal_dac_ex.c ****   
 327:Drivers/STM32F3xx_HAL_Driver/Src/stm32f3xx_hal_dac_ex.c ****   /* Process unlocked */
 328:Drivers/STM32F3xx_HAL_Driver/Src/stm32f3xx_hal_dac_ex.c ****   __HAL_UNLOCK(hdac);
 329:Drivers/STM32F3xx_HAL_Driver/Src/stm32f3xx_hal_dac_ex.c ****     
 330:Drivers/STM32F3xx_HAL_Driver/Src/stm32f3xx_hal_dac_ex.c ****   /* Return function status */
 331:Drivers/STM32F3xx_HAL_Driver/Src/stm32f3xx_hal_dac_ex.c ****   return HAL_OK;
 332:Drivers/STM32F3xx_HAL_Driver/Src/stm32f3xx_hal_dac_ex.c **** }
 333:Drivers/STM32F3xx_HAL_Driver/Src/stm32f3xx_hal_dac_ex.c **** #endif /* STM32F302xE                               || */
 334:Drivers/STM32F3xx_HAL_Driver/Src/stm32f3xx_hal_dac_ex.c ****        /* STM32F302xC                               || */
 335:Drivers/STM32F3xx_HAL_Driver/Src/stm32f3xx_hal_dac_ex.c ****        /* STM32F301x8 || STM32F302x8 || STM32F318xx    */
 336:Drivers/STM32F3xx_HAL_Driver/Src/stm32f3xx_hal_dac_ex.c **** 
 337:Drivers/STM32F3xx_HAL_Driver/Src/stm32f3xx_hal_dac_ex.c **** /* DAC 1 has 2 channels 1U & 2U - DAC 2 has one channel 1U */
 338:Drivers/STM32F3xx_HAL_Driver/Src/stm32f3xx_hal_dac_ex.c **** #if defined(STM32F303xE) || defined(STM32F398xx)                         || \
 339:Drivers/STM32F3xx_HAL_Driver/Src/stm32f3xx_hal_dac_ex.c ****     defined(STM32F303xC) || defined(STM32F358xx)                         || \
 340:Drivers/STM32F3xx_HAL_Driver/Src/stm32f3xx_hal_dac_ex.c ****     defined(STM32F303x8) || defined(STM32F334x8) || defined(STM32F328xx) || \
 341:Drivers/STM32F3xx_HAL_Driver/Src/stm32f3xx_hal_dac_ex.c ****     defined(STM32F373xC) || defined(STM32F378xx)
 342:Drivers/STM32F3xx_HAL_Driver/Src/stm32f3xx_hal_dac_ex.c **** /* DAC 1 has 2 channels 1U & 2U */
 343:Drivers/STM32F3xx_HAL_Driver/Src/stm32f3xx_hal_dac_ex.c **** /**
 344:Drivers/STM32F3xx_HAL_Driver/Src/stm32f3xx_hal_dac_ex.c ****   * @brief  Enables DAC and starts conversion of channel.
 345:Drivers/STM32F3xx_HAL_Driver/Src/stm32f3xx_hal_dac_ex.c ****   * @param  hdac pointer to a DAC_HandleTypeDef structure that contains
 346:Drivers/STM32F3xx_HAL_Driver/Src/stm32f3xx_hal_dac_ex.c ****   *         the configuration information for the specified DAC.
 347:Drivers/STM32F3xx_HAL_Driver/Src/stm32f3xx_hal_dac_ex.c ****   * @param  Channel The selected DAC channel. 
 348:Drivers/STM32F3xx_HAL_Driver/Src/stm32f3xx_hal_dac_ex.c ****   *          This parameter can be one of the following values:
 349:Drivers/STM32F3xx_HAL_Driver/Src/stm32f3xx_hal_dac_ex.c ****   *            @arg DAC_CHANNEL_1: DAC1 Channel1 selected
 350:Drivers/STM32F3xx_HAL_Driver/Src/stm32f3xx_hal_dac_ex.c ****   *            @arg DAC_CHANNEL_2: DAC1 Channel2 selected
 351:Drivers/STM32F3xx_HAL_Driver/Src/stm32f3xx_hal_dac_ex.c ****   * @param  pData The destination peripheral Buffer address.
 352:Drivers/STM32F3xx_HAL_Driver/Src/stm32f3xx_hal_dac_ex.c ****   * @param  Length The length of data to be transferred from memory to DAC peripheral
 353:Drivers/STM32F3xx_HAL_Driver/Src/stm32f3xx_hal_dac_ex.c ****   * @param  Alignment Specifies the data alignment for DAC channel.
 354:Drivers/STM32F3xx_HAL_Driver/Src/stm32f3xx_hal_dac_ex.c ****   *          This parameter can be one of the following values:
 355:Drivers/STM32F3xx_HAL_Driver/Src/stm32f3xx_hal_dac_ex.c ****   *            @arg DAC_ALIGN_8B_R: 8bit right data alignment selected
 356:Drivers/STM32F3xx_HAL_Driver/Src/stm32f3xx_hal_dac_ex.c ****   *            @arg DAC_ALIGN_12B_L: 12bit left data alignment selected
 357:Drivers/STM32F3xx_HAL_Driver/Src/stm32f3xx_hal_dac_ex.c ****   *            @arg DAC_ALIGN_12B_R: 12bit right data alignment selected
 358:Drivers/STM32F3xx_HAL_Driver/Src/stm32f3xx_hal_dac_ex.c ****   * @retval HAL status
 359:Drivers/STM32F3xx_HAL_Driver/Src/stm32f3xx_hal_dac_ex.c ****   */
 360:Drivers/STM32F3xx_HAL_Driver/Src/stm32f3xx_hal_dac_ex.c **** HAL_StatusTypeDef HAL_DAC_Start_DMA(DAC_HandleTypeDef* hdac, uint32_t Channel, uint32_t* pData, uin
 361:Drivers/STM32F3xx_HAL_Driver/Src/stm32f3xx_hal_dac_ex.c **** {
 362:Drivers/STM32F3xx_HAL_Driver/Src/stm32f3xx_hal_dac_ex.c ****   uint32_t tmpreg = 0U;
 363:Drivers/STM32F3xx_HAL_Driver/Src/stm32f3xx_hal_dac_ex.c ****     
 364:Drivers/STM32F3xx_HAL_Driver/Src/stm32f3xx_hal_dac_ex.c ****   /* Check the parameters */
 365:Drivers/STM32F3xx_HAL_Driver/Src/stm32f3xx_hal_dac_ex.c ****   assert_param(IS_DAC_CHANNEL_INSTANCE(hdac->Instance, Channel));
 366:Drivers/STM32F3xx_HAL_Driver/Src/stm32f3xx_hal_dac_ex.c ****   assert_param(IS_DAC_ALIGN(Alignment));
 367:Drivers/STM32F3xx_HAL_Driver/Src/stm32f3xx_hal_dac_ex.c ****   
 368:Drivers/STM32F3xx_HAL_Driver/Src/stm32f3xx_hal_dac_ex.c ****   /* Process locked */
 369:Drivers/STM32F3xx_HAL_Driver/Src/stm32f3xx_hal_dac_ex.c ****   __HAL_LOCK(hdac);
 370:Drivers/STM32F3xx_HAL_Driver/Src/stm32f3xx_hal_dac_ex.c ****   
 371:Drivers/STM32F3xx_HAL_Driver/Src/stm32f3xx_hal_dac_ex.c ****   /* Change DAC state */
ARM GAS  /var/folders/b1/22c950295gx2kqj80tvj8wqc0000gn/T//ccfZwynw.s 			page 8


 372:Drivers/STM32F3xx_HAL_Driver/Src/stm32f3xx_hal_dac_ex.c ****   hdac->State = HAL_DAC_STATE_BUSY;
 373:Drivers/STM32F3xx_HAL_Driver/Src/stm32f3xx_hal_dac_ex.c **** 
 374:Drivers/STM32F3xx_HAL_Driver/Src/stm32f3xx_hal_dac_ex.c ****   if(Channel == DAC_CHANNEL_1)
 375:Drivers/STM32F3xx_HAL_Driver/Src/stm32f3xx_hal_dac_ex.c ****   {
 376:Drivers/STM32F3xx_HAL_Driver/Src/stm32f3xx_hal_dac_ex.c ****     /* Set the DMA transfer complete callback for channel1 */
 377:Drivers/STM32F3xx_HAL_Driver/Src/stm32f3xx_hal_dac_ex.c ****     hdac->DMA_Handle1->XferCpltCallback = DAC_DMAConvCpltCh1;
 378:Drivers/STM32F3xx_HAL_Driver/Src/stm32f3xx_hal_dac_ex.c ****     
 379:Drivers/STM32F3xx_HAL_Driver/Src/stm32f3xx_hal_dac_ex.c ****     /* Set the DMA half transfer complete callback for channel1 */
 380:Drivers/STM32F3xx_HAL_Driver/Src/stm32f3xx_hal_dac_ex.c ****     hdac->DMA_Handle1->XferHalfCpltCallback = DAC_DMAHalfConvCpltCh1;
 381:Drivers/STM32F3xx_HAL_Driver/Src/stm32f3xx_hal_dac_ex.c ****       
 382:Drivers/STM32F3xx_HAL_Driver/Src/stm32f3xx_hal_dac_ex.c ****     /* Set the DMA error callback for channel1 */
 383:Drivers/STM32F3xx_HAL_Driver/Src/stm32f3xx_hal_dac_ex.c ****     hdac->DMA_Handle1->XferErrorCallback = DAC_DMAErrorCh1;
 384:Drivers/STM32F3xx_HAL_Driver/Src/stm32f3xx_hal_dac_ex.c **** 
 385:Drivers/STM32F3xx_HAL_Driver/Src/stm32f3xx_hal_dac_ex.c ****     /* Enable the selected DAC channel1 DMA request */
 386:Drivers/STM32F3xx_HAL_Driver/Src/stm32f3xx_hal_dac_ex.c ****     SET_BIT(hdac->Instance->CR, DAC_CR_DMAEN1);   
 387:Drivers/STM32F3xx_HAL_Driver/Src/stm32f3xx_hal_dac_ex.c **** 
 388:Drivers/STM32F3xx_HAL_Driver/Src/stm32f3xx_hal_dac_ex.c ****     /* Case of use of channel 1U */
 389:Drivers/STM32F3xx_HAL_Driver/Src/stm32f3xx_hal_dac_ex.c ****     switch(Alignment)
 390:Drivers/STM32F3xx_HAL_Driver/Src/stm32f3xx_hal_dac_ex.c ****     {
 391:Drivers/STM32F3xx_HAL_Driver/Src/stm32f3xx_hal_dac_ex.c ****       case DAC_ALIGN_12B_R:
 392:Drivers/STM32F3xx_HAL_Driver/Src/stm32f3xx_hal_dac_ex.c ****         /* Get DHR12R1 address */
 393:Drivers/STM32F3xx_HAL_Driver/Src/stm32f3xx_hal_dac_ex.c ****         tmpreg = (uint32_t)&hdac->Instance->DHR12R1;
 394:Drivers/STM32F3xx_HAL_Driver/Src/stm32f3xx_hal_dac_ex.c ****         break;
 395:Drivers/STM32F3xx_HAL_Driver/Src/stm32f3xx_hal_dac_ex.c ****       case DAC_ALIGN_12B_L:
 396:Drivers/STM32F3xx_HAL_Driver/Src/stm32f3xx_hal_dac_ex.c ****         /* Get DHR12L1 address */
 397:Drivers/STM32F3xx_HAL_Driver/Src/stm32f3xx_hal_dac_ex.c ****         tmpreg = (uint32_t)&hdac->Instance->DHR12L1;
 398:Drivers/STM32F3xx_HAL_Driver/Src/stm32f3xx_hal_dac_ex.c ****         break;
 399:Drivers/STM32F3xx_HAL_Driver/Src/stm32f3xx_hal_dac_ex.c ****       case DAC_ALIGN_8B_R:
 400:Drivers/STM32F3xx_HAL_Driver/Src/stm32f3xx_hal_dac_ex.c ****         /* Get DHR8R1 address */
 401:Drivers/STM32F3xx_HAL_Driver/Src/stm32f3xx_hal_dac_ex.c ****         tmpreg = (uint32_t)&hdac->Instance->DHR8R1;
 402:Drivers/STM32F3xx_HAL_Driver/Src/stm32f3xx_hal_dac_ex.c ****         break;
 403:Drivers/STM32F3xx_HAL_Driver/Src/stm32f3xx_hal_dac_ex.c ****       default:
 404:Drivers/STM32F3xx_HAL_Driver/Src/stm32f3xx_hal_dac_ex.c ****         break;
 405:Drivers/STM32F3xx_HAL_Driver/Src/stm32f3xx_hal_dac_ex.c ****     }
 406:Drivers/STM32F3xx_HAL_Driver/Src/stm32f3xx_hal_dac_ex.c ****   }
 407:Drivers/STM32F3xx_HAL_Driver/Src/stm32f3xx_hal_dac_ex.c ****   else
 408:Drivers/STM32F3xx_HAL_Driver/Src/stm32f3xx_hal_dac_ex.c ****   {
 409:Drivers/STM32F3xx_HAL_Driver/Src/stm32f3xx_hal_dac_ex.c ****     /* Set the DMA transfer complete callback for channel2 */
 410:Drivers/STM32F3xx_HAL_Driver/Src/stm32f3xx_hal_dac_ex.c ****     hdac->DMA_Handle2->XferCpltCallback = DAC_DMAConvCpltCh2;
 411:Drivers/STM32F3xx_HAL_Driver/Src/stm32f3xx_hal_dac_ex.c ****     
 412:Drivers/STM32F3xx_HAL_Driver/Src/stm32f3xx_hal_dac_ex.c ****     /* Set the DMA half transfer complete callback for channel2 */
 413:Drivers/STM32F3xx_HAL_Driver/Src/stm32f3xx_hal_dac_ex.c ****     hdac->DMA_Handle2->XferHalfCpltCallback = DAC_DMAHalfConvCpltCh2;
 414:Drivers/STM32F3xx_HAL_Driver/Src/stm32f3xx_hal_dac_ex.c ****        
 415:Drivers/STM32F3xx_HAL_Driver/Src/stm32f3xx_hal_dac_ex.c ****     /* Set the DMA error callback for channel2 */
 416:Drivers/STM32F3xx_HAL_Driver/Src/stm32f3xx_hal_dac_ex.c ****     hdac->DMA_Handle2->XferErrorCallback = DAC_DMAErrorCh2;
 417:Drivers/STM32F3xx_HAL_Driver/Src/stm32f3xx_hal_dac_ex.c ****  
 418:Drivers/STM32F3xx_HAL_Driver/Src/stm32f3xx_hal_dac_ex.c ****     /* Enable the selected DAC channel2 DMA request */
 419:Drivers/STM32F3xx_HAL_Driver/Src/stm32f3xx_hal_dac_ex.c ****     SET_BIT(hdac->Instance->CR, DAC_CR_DMAEN2); 
 420:Drivers/STM32F3xx_HAL_Driver/Src/stm32f3xx_hal_dac_ex.c ****    
 421:Drivers/STM32F3xx_HAL_Driver/Src/stm32f3xx_hal_dac_ex.c ****     /* Case of use of channel 2U */
 422:Drivers/STM32F3xx_HAL_Driver/Src/stm32f3xx_hal_dac_ex.c ****     switch(Alignment)
 423:Drivers/STM32F3xx_HAL_Driver/Src/stm32f3xx_hal_dac_ex.c ****     {
 424:Drivers/STM32F3xx_HAL_Driver/Src/stm32f3xx_hal_dac_ex.c ****       case DAC_ALIGN_12B_R:
 425:Drivers/STM32F3xx_HAL_Driver/Src/stm32f3xx_hal_dac_ex.c ****         /* Get DHR12R2 address */
 426:Drivers/STM32F3xx_HAL_Driver/Src/stm32f3xx_hal_dac_ex.c ****         tmpreg = (uint32_t)&hdac->Instance->DHR12R2;
 427:Drivers/STM32F3xx_HAL_Driver/Src/stm32f3xx_hal_dac_ex.c ****         break;
 428:Drivers/STM32F3xx_HAL_Driver/Src/stm32f3xx_hal_dac_ex.c ****       case DAC_ALIGN_12B_L:
ARM GAS  /var/folders/b1/22c950295gx2kqj80tvj8wqc0000gn/T//ccfZwynw.s 			page 9


 429:Drivers/STM32F3xx_HAL_Driver/Src/stm32f3xx_hal_dac_ex.c ****         /* Get DHR12L2 address */
 430:Drivers/STM32F3xx_HAL_Driver/Src/stm32f3xx_hal_dac_ex.c ****         tmpreg = (uint32_t)&hdac->Instance->DHR12L2;
 431:Drivers/STM32F3xx_HAL_Driver/Src/stm32f3xx_hal_dac_ex.c ****         break;
 432:Drivers/STM32F3xx_HAL_Driver/Src/stm32f3xx_hal_dac_ex.c ****       case DAC_ALIGN_8B_R:
 433:Drivers/STM32F3xx_HAL_Driver/Src/stm32f3xx_hal_dac_ex.c ****         /* Get DHR8R2 address */
 434:Drivers/STM32F3xx_HAL_Driver/Src/stm32f3xx_hal_dac_ex.c ****         tmpreg = (uint32_t)&hdac->Instance->DHR8R2;
 435:Drivers/STM32F3xx_HAL_Driver/Src/stm32f3xx_hal_dac_ex.c ****         break;
 436:Drivers/STM32F3xx_HAL_Driver/Src/stm32f3xx_hal_dac_ex.c ****       default:
 437:Drivers/STM32F3xx_HAL_Driver/Src/stm32f3xx_hal_dac_ex.c ****         break;
 438:Drivers/STM32F3xx_HAL_Driver/Src/stm32f3xx_hal_dac_ex.c ****     }
 439:Drivers/STM32F3xx_HAL_Driver/Src/stm32f3xx_hal_dac_ex.c ****   }
 440:Drivers/STM32F3xx_HAL_Driver/Src/stm32f3xx_hal_dac_ex.c ****  
 441:Drivers/STM32F3xx_HAL_Driver/Src/stm32f3xx_hal_dac_ex.c ****   /* Enable the DMA Channel */
 442:Drivers/STM32F3xx_HAL_Driver/Src/stm32f3xx_hal_dac_ex.c ****   if(Channel == DAC_CHANNEL_1)
 443:Drivers/STM32F3xx_HAL_Driver/Src/stm32f3xx_hal_dac_ex.c ****   {
 444:Drivers/STM32F3xx_HAL_Driver/Src/stm32f3xx_hal_dac_ex.c ****     /* Enable the DAC DMA underrun interrupt */
 445:Drivers/STM32F3xx_HAL_Driver/Src/stm32f3xx_hal_dac_ex.c ****     __HAL_DAC_ENABLE_IT(hdac, DAC_IT_DMAUDR1);
 446:Drivers/STM32F3xx_HAL_Driver/Src/stm32f3xx_hal_dac_ex.c **** 
 447:Drivers/STM32F3xx_HAL_Driver/Src/stm32f3xx_hal_dac_ex.c ****     /* Enable the DMA Channel */
 448:Drivers/STM32F3xx_HAL_Driver/Src/stm32f3xx_hal_dac_ex.c ****     HAL_DMA_Start_IT(hdac->DMA_Handle1, (uint32_t)pData, tmpreg, Length);
 449:Drivers/STM32F3xx_HAL_Driver/Src/stm32f3xx_hal_dac_ex.c ****   } 
 450:Drivers/STM32F3xx_HAL_Driver/Src/stm32f3xx_hal_dac_ex.c ****   else
 451:Drivers/STM32F3xx_HAL_Driver/Src/stm32f3xx_hal_dac_ex.c ****   {
 452:Drivers/STM32F3xx_HAL_Driver/Src/stm32f3xx_hal_dac_ex.c ****     /* Enable the DAC DMA underrun interrupt */
 453:Drivers/STM32F3xx_HAL_Driver/Src/stm32f3xx_hal_dac_ex.c ****     __HAL_DAC_ENABLE_IT(hdac, DAC_IT_DMAUDR2);
 454:Drivers/STM32F3xx_HAL_Driver/Src/stm32f3xx_hal_dac_ex.c **** 
 455:Drivers/STM32F3xx_HAL_Driver/Src/stm32f3xx_hal_dac_ex.c ****     /* Enable the DMA Channel */
 456:Drivers/STM32F3xx_HAL_Driver/Src/stm32f3xx_hal_dac_ex.c ****     HAL_DMA_Start_IT(hdac->DMA_Handle2, (uint32_t)pData, tmpreg, Length);
 457:Drivers/STM32F3xx_HAL_Driver/Src/stm32f3xx_hal_dac_ex.c ****   }
 458:Drivers/STM32F3xx_HAL_Driver/Src/stm32f3xx_hal_dac_ex.c ****  
 459:Drivers/STM32F3xx_HAL_Driver/Src/stm32f3xx_hal_dac_ex.c ****   /* Process Unlocked */
 460:Drivers/STM32F3xx_HAL_Driver/Src/stm32f3xx_hal_dac_ex.c ****   __HAL_UNLOCK(hdac);
 461:Drivers/STM32F3xx_HAL_Driver/Src/stm32f3xx_hal_dac_ex.c **** 
 462:Drivers/STM32F3xx_HAL_Driver/Src/stm32f3xx_hal_dac_ex.c ****   /* Enable the Peripheral */
 463:Drivers/STM32F3xx_HAL_Driver/Src/stm32f3xx_hal_dac_ex.c ****   __HAL_DAC_ENABLE(hdac, Channel);
 464:Drivers/STM32F3xx_HAL_Driver/Src/stm32f3xx_hal_dac_ex.c ****   
 465:Drivers/STM32F3xx_HAL_Driver/Src/stm32f3xx_hal_dac_ex.c ****   /* Return function status */
 466:Drivers/STM32F3xx_HAL_Driver/Src/stm32f3xx_hal_dac_ex.c ****   return HAL_OK;
 467:Drivers/STM32F3xx_HAL_Driver/Src/stm32f3xx_hal_dac_ex.c **** }
 468:Drivers/STM32F3xx_HAL_Driver/Src/stm32f3xx_hal_dac_ex.c **** #endif /* STM32F303xE || STM32F398xx                || */
 469:Drivers/STM32F3xx_HAL_Driver/Src/stm32f3xx_hal_dac_ex.c ****        /* STM32F303xC || STM32F358xx                || */
 470:Drivers/STM32F3xx_HAL_Driver/Src/stm32f3xx_hal_dac_ex.c ****        /* STM32F303x8 || STM32F334x8 || STM32F328xx || */
 471:Drivers/STM32F3xx_HAL_Driver/Src/stm32f3xx_hal_dac_ex.c ****        /* STM32F373xC || STM32F378xx                   */
 472:Drivers/STM32F3xx_HAL_Driver/Src/stm32f3xx_hal_dac_ex.c **** 
 473:Drivers/STM32F3xx_HAL_Driver/Src/stm32f3xx_hal_dac_ex.c **** #if defined(STM32F302xE) || \
 474:Drivers/STM32F3xx_HAL_Driver/Src/stm32f3xx_hal_dac_ex.c ****     defined(STM32F302xC) || \
 475:Drivers/STM32F3xx_HAL_Driver/Src/stm32f3xx_hal_dac_ex.c ****     defined(STM32F301x8) || defined(STM32F302x8) || defined(STM32F318xx)
 476:Drivers/STM32F3xx_HAL_Driver/Src/stm32f3xx_hal_dac_ex.c **** /* DAC 1 has 1 channel (channel 1U)  */
 477:Drivers/STM32F3xx_HAL_Driver/Src/stm32f3xx_hal_dac_ex.c **** /**
 478:Drivers/STM32F3xx_HAL_Driver/Src/stm32f3xx_hal_dac_ex.c ****   * @brief  Enables DAC and starts conversion of channel.
 479:Drivers/STM32F3xx_HAL_Driver/Src/stm32f3xx_hal_dac_ex.c ****   * @param  hdac pointer to a DAC_HandleTypeDef structure that contains
 480:Drivers/STM32F3xx_HAL_Driver/Src/stm32f3xx_hal_dac_ex.c ****   *         the configuration information for the specified DAC.
 481:Drivers/STM32F3xx_HAL_Driver/Src/stm32f3xx_hal_dac_ex.c ****   * @param  Channel The selected DAC channel. 
 482:Drivers/STM32F3xx_HAL_Driver/Src/stm32f3xx_hal_dac_ex.c ****   *          This parameter can be one of the following values:
 483:Drivers/STM32F3xx_HAL_Driver/Src/stm32f3xx_hal_dac_ex.c ****   *            @arg DAC_CHANNEL_1: DAC1 Channel1 selected
 484:Drivers/STM32F3xx_HAL_Driver/Src/stm32f3xx_hal_dac_ex.c ****   * @param  pData The destination peripheral Buffer address.
 485:Drivers/STM32F3xx_HAL_Driver/Src/stm32f3xx_hal_dac_ex.c ****   * @param  Length The length of data to be transferred from memory to DAC peripheral
ARM GAS  /var/folders/b1/22c950295gx2kqj80tvj8wqc0000gn/T//ccfZwynw.s 			page 10


 486:Drivers/STM32F3xx_HAL_Driver/Src/stm32f3xx_hal_dac_ex.c ****   * @param  Alignment Specifies the data alignment for DAC channel.
 487:Drivers/STM32F3xx_HAL_Driver/Src/stm32f3xx_hal_dac_ex.c ****   *          This parameter can be one of the following values:
 488:Drivers/STM32F3xx_HAL_Driver/Src/stm32f3xx_hal_dac_ex.c ****   *            @arg DAC_ALIGN_8B_R: 8bit right data alignment selected
 489:Drivers/STM32F3xx_HAL_Driver/Src/stm32f3xx_hal_dac_ex.c ****   *            @arg DAC_ALIGN_12B_L: 12bit left data alignment selected
 490:Drivers/STM32F3xx_HAL_Driver/Src/stm32f3xx_hal_dac_ex.c ****   *            @arg DAC_ALIGN_12B_R: 12bit right data alignment selected
 491:Drivers/STM32F3xx_HAL_Driver/Src/stm32f3xx_hal_dac_ex.c ****   * @retval HAL status
 492:Drivers/STM32F3xx_HAL_Driver/Src/stm32f3xx_hal_dac_ex.c ****   */
 493:Drivers/STM32F3xx_HAL_Driver/Src/stm32f3xx_hal_dac_ex.c **** HAL_StatusTypeDef HAL_DAC_Start_DMA(DAC_HandleTypeDef* hdac, uint32_t Channel, uint32_t* pData, uin
 494:Drivers/STM32F3xx_HAL_Driver/Src/stm32f3xx_hal_dac_ex.c **** {
 495:Drivers/STM32F3xx_HAL_Driver/Src/stm32f3xx_hal_dac_ex.c ****   uint32_t tmpreg = 0U;
 496:Drivers/STM32F3xx_HAL_Driver/Src/stm32f3xx_hal_dac_ex.c ****     
 497:Drivers/STM32F3xx_HAL_Driver/Src/stm32f3xx_hal_dac_ex.c ****   /* Check the parameters */
 498:Drivers/STM32F3xx_HAL_Driver/Src/stm32f3xx_hal_dac_ex.c ****   assert_param(IS_DAC_CHANNEL_INSTANCE(hdac->Instance, Channel));
 499:Drivers/STM32F3xx_HAL_Driver/Src/stm32f3xx_hal_dac_ex.c ****   assert_param(IS_DAC_ALIGN(Alignment));
 500:Drivers/STM32F3xx_HAL_Driver/Src/stm32f3xx_hal_dac_ex.c ****   
 501:Drivers/STM32F3xx_HAL_Driver/Src/stm32f3xx_hal_dac_ex.c ****   /* Process locked */
 502:Drivers/STM32F3xx_HAL_Driver/Src/stm32f3xx_hal_dac_ex.c ****   __HAL_LOCK(hdac);
 503:Drivers/STM32F3xx_HAL_Driver/Src/stm32f3xx_hal_dac_ex.c ****   
 504:Drivers/STM32F3xx_HAL_Driver/Src/stm32f3xx_hal_dac_ex.c ****   /* Change DAC state */
 505:Drivers/STM32F3xx_HAL_Driver/Src/stm32f3xx_hal_dac_ex.c ****   hdac->State = HAL_DAC_STATE_BUSY;
 506:Drivers/STM32F3xx_HAL_Driver/Src/stm32f3xx_hal_dac_ex.c ****     
 507:Drivers/STM32F3xx_HAL_Driver/Src/stm32f3xx_hal_dac_ex.c ****   /* Set the DMA transfer complete callback for channel1 */
 508:Drivers/STM32F3xx_HAL_Driver/Src/stm32f3xx_hal_dac_ex.c ****   hdac->DMA_Handle1->XferCpltCallback = DAC_DMAConvCpltCh1;
 509:Drivers/STM32F3xx_HAL_Driver/Src/stm32f3xx_hal_dac_ex.c ****   
 510:Drivers/STM32F3xx_HAL_Driver/Src/stm32f3xx_hal_dac_ex.c ****   /* Set the DMA half transfer complete callback for channel1 */
 511:Drivers/STM32F3xx_HAL_Driver/Src/stm32f3xx_hal_dac_ex.c ****   hdac->DMA_Handle1->XferHalfCpltCallback = DAC_DMAHalfConvCpltCh1;
 512:Drivers/STM32F3xx_HAL_Driver/Src/stm32f3xx_hal_dac_ex.c ****     
 513:Drivers/STM32F3xx_HAL_Driver/Src/stm32f3xx_hal_dac_ex.c ****   /* Set the DMA error callback for channel1 */
 514:Drivers/STM32F3xx_HAL_Driver/Src/stm32f3xx_hal_dac_ex.c ****   hdac->DMA_Handle1->XferErrorCallback = DAC_DMAErrorCh1;
 515:Drivers/STM32F3xx_HAL_Driver/Src/stm32f3xx_hal_dac_ex.c **** 
 516:Drivers/STM32F3xx_HAL_Driver/Src/stm32f3xx_hal_dac_ex.c ****   /* Enable the selected DAC channel1 DMA request */
 517:Drivers/STM32F3xx_HAL_Driver/Src/stm32f3xx_hal_dac_ex.c ****   SET_BIT(hdac->Instance->CR, DAC_CR_DMAEN1);
 518:Drivers/STM32F3xx_HAL_Driver/Src/stm32f3xx_hal_dac_ex.c ****     
 519:Drivers/STM32F3xx_HAL_Driver/Src/stm32f3xx_hal_dac_ex.c ****   /* Case of use of channel 1U */
 520:Drivers/STM32F3xx_HAL_Driver/Src/stm32f3xx_hal_dac_ex.c ****   switch(Alignment)
 521:Drivers/STM32F3xx_HAL_Driver/Src/stm32f3xx_hal_dac_ex.c ****   {
 522:Drivers/STM32F3xx_HAL_Driver/Src/stm32f3xx_hal_dac_ex.c ****     case DAC_ALIGN_12B_R:
 523:Drivers/STM32F3xx_HAL_Driver/Src/stm32f3xx_hal_dac_ex.c ****       /* Get DHR12R1 address */
 524:Drivers/STM32F3xx_HAL_Driver/Src/stm32f3xx_hal_dac_ex.c ****       tmpreg = (uint32_t)&hdac->Instance->DHR12R1;
 525:Drivers/STM32F3xx_HAL_Driver/Src/stm32f3xx_hal_dac_ex.c ****       break;
 526:Drivers/STM32F3xx_HAL_Driver/Src/stm32f3xx_hal_dac_ex.c ****     case DAC_ALIGN_12B_L:
 527:Drivers/STM32F3xx_HAL_Driver/Src/stm32f3xx_hal_dac_ex.c ****       /* Get DHR12L1 address */
 528:Drivers/STM32F3xx_HAL_Driver/Src/stm32f3xx_hal_dac_ex.c ****       tmpreg = (uint32_t)&hdac->Instance->DHR12L1;
 529:Drivers/STM32F3xx_HAL_Driver/Src/stm32f3xx_hal_dac_ex.c ****       break;
 530:Drivers/STM32F3xx_HAL_Driver/Src/stm32f3xx_hal_dac_ex.c ****     case DAC_ALIGN_8B_R:
 531:Drivers/STM32F3xx_HAL_Driver/Src/stm32f3xx_hal_dac_ex.c ****       /* Get DHR8R1 address */
 532:Drivers/STM32F3xx_HAL_Driver/Src/stm32f3xx_hal_dac_ex.c ****       tmpreg = (uint32_t)&hdac->Instance->DHR8R1;
 533:Drivers/STM32F3xx_HAL_Driver/Src/stm32f3xx_hal_dac_ex.c ****       break;
 534:Drivers/STM32F3xx_HAL_Driver/Src/stm32f3xx_hal_dac_ex.c ****     default:
 535:Drivers/STM32F3xx_HAL_Driver/Src/stm32f3xx_hal_dac_ex.c ****       break;
 536:Drivers/STM32F3xx_HAL_Driver/Src/stm32f3xx_hal_dac_ex.c ****   }
 537:Drivers/STM32F3xx_HAL_Driver/Src/stm32f3xx_hal_dac_ex.c ****   
 538:Drivers/STM32F3xx_HAL_Driver/Src/stm32f3xx_hal_dac_ex.c ****   /* Enable the DMA Channel */
 539:Drivers/STM32F3xx_HAL_Driver/Src/stm32f3xx_hal_dac_ex.c ****   /* Enable the DAC DMA underrun interrupt */
 540:Drivers/STM32F3xx_HAL_Driver/Src/stm32f3xx_hal_dac_ex.c ****   __HAL_DAC_ENABLE_IT(hdac, DAC_IT_DMAUDR1);
 541:Drivers/STM32F3xx_HAL_Driver/Src/stm32f3xx_hal_dac_ex.c **** 
 542:Drivers/STM32F3xx_HAL_Driver/Src/stm32f3xx_hal_dac_ex.c ****   /* Enable the DMA Channel */
ARM GAS  /var/folders/b1/22c950295gx2kqj80tvj8wqc0000gn/T//ccfZwynw.s 			page 11


 543:Drivers/STM32F3xx_HAL_Driver/Src/stm32f3xx_hal_dac_ex.c ****   HAL_DMA_Start_IT(hdac->DMA_Handle1, (uint32_t)pData, tmpreg, Length);
 544:Drivers/STM32F3xx_HAL_Driver/Src/stm32f3xx_hal_dac_ex.c ****  
 545:Drivers/STM32F3xx_HAL_Driver/Src/stm32f3xx_hal_dac_ex.c ****   /* Process Unlocked */
 546:Drivers/STM32F3xx_HAL_Driver/Src/stm32f3xx_hal_dac_ex.c ****   __HAL_UNLOCK(hdac);
 547:Drivers/STM32F3xx_HAL_Driver/Src/stm32f3xx_hal_dac_ex.c **** 
 548:Drivers/STM32F3xx_HAL_Driver/Src/stm32f3xx_hal_dac_ex.c ****   /* Enable the Peripheral */
 549:Drivers/STM32F3xx_HAL_Driver/Src/stm32f3xx_hal_dac_ex.c ****   __HAL_DAC_ENABLE(hdac, Channel); 
 550:Drivers/STM32F3xx_HAL_Driver/Src/stm32f3xx_hal_dac_ex.c ****  
 551:Drivers/STM32F3xx_HAL_Driver/Src/stm32f3xx_hal_dac_ex.c ****   /* Return function status */
 552:Drivers/STM32F3xx_HAL_Driver/Src/stm32f3xx_hal_dac_ex.c ****   return HAL_OK;
 553:Drivers/STM32F3xx_HAL_Driver/Src/stm32f3xx_hal_dac_ex.c **** }
 554:Drivers/STM32F3xx_HAL_Driver/Src/stm32f3xx_hal_dac_ex.c **** #endif /* STM32F302xE                               || */
 555:Drivers/STM32F3xx_HAL_Driver/Src/stm32f3xx_hal_dac_ex.c ****        /* STM32F302xC                               || */
 556:Drivers/STM32F3xx_HAL_Driver/Src/stm32f3xx_hal_dac_ex.c ****        /* STM32F301x8 || STM32F302x8 || STM32F318xx    */
 557:Drivers/STM32F3xx_HAL_Driver/Src/stm32f3xx_hal_dac_ex.c **** 
 558:Drivers/STM32F3xx_HAL_Driver/Src/stm32f3xx_hal_dac_ex.c **** /* DAC 1 has 2 channels 1U & 2U - DAC 2 has one channel 1U */
 559:Drivers/STM32F3xx_HAL_Driver/Src/stm32f3xx_hal_dac_ex.c **** #if  defined(STM32F303xE) || defined(STM32F398xx)                         || \
 560:Drivers/STM32F3xx_HAL_Driver/Src/stm32f3xx_hal_dac_ex.c ****      defined(STM32F303xC) || defined(STM32F358xx)                         || \
 561:Drivers/STM32F3xx_HAL_Driver/Src/stm32f3xx_hal_dac_ex.c ****      defined(STM32F303x8) || defined(STM32F334x8) || defined(STM32F328xx) || \
 562:Drivers/STM32F3xx_HAL_Driver/Src/stm32f3xx_hal_dac_ex.c ****      defined(STM32F373xC) || defined(STM32F378xx)
 563:Drivers/STM32F3xx_HAL_Driver/Src/stm32f3xx_hal_dac_ex.c **** /* DAC 1 has 2 channels 1U & 2U */
 564:Drivers/STM32F3xx_HAL_Driver/Src/stm32f3xx_hal_dac_ex.c **** /**
 565:Drivers/STM32F3xx_HAL_Driver/Src/stm32f3xx_hal_dac_ex.c ****   * @brief  Returns the last data output value of the selected DAC channel.
 566:Drivers/STM32F3xx_HAL_Driver/Src/stm32f3xx_hal_dac_ex.c ****   * @param  hdac pointer to a DAC_HandleTypeDef structure that contains
 567:Drivers/STM32F3xx_HAL_Driver/Src/stm32f3xx_hal_dac_ex.c ****   *         the configuration information for the specified DAC.
 568:Drivers/STM32F3xx_HAL_Driver/Src/stm32f3xx_hal_dac_ex.c ****   * @param  Channel The selected DAC channel. 
 569:Drivers/STM32F3xx_HAL_Driver/Src/stm32f3xx_hal_dac_ex.c ****   *          This parameter can be one of the following values:
 570:Drivers/STM32F3xx_HAL_Driver/Src/stm32f3xx_hal_dac_ex.c ****   *            @arg DAC_CHANNEL_1: DAC1 Channel1 selected
 571:Drivers/STM32F3xx_HAL_Driver/Src/stm32f3xx_hal_dac_ex.c ****   *            @arg DAC_CHANNEL_2: DAC1 Channel2 selected
 572:Drivers/STM32F3xx_HAL_Driver/Src/stm32f3xx_hal_dac_ex.c ****   * @retval The selected DAC channel data output value.
 573:Drivers/STM32F3xx_HAL_Driver/Src/stm32f3xx_hal_dac_ex.c ****   */
 574:Drivers/STM32F3xx_HAL_Driver/Src/stm32f3xx_hal_dac_ex.c **** uint32_t HAL_DAC_GetValue(DAC_HandleTypeDef* hdac, uint32_t Channel)
 575:Drivers/STM32F3xx_HAL_Driver/Src/stm32f3xx_hal_dac_ex.c **** {
 576:Drivers/STM32F3xx_HAL_Driver/Src/stm32f3xx_hal_dac_ex.c ****   /* Check the parameters */
 577:Drivers/STM32F3xx_HAL_Driver/Src/stm32f3xx_hal_dac_ex.c ****   assert_param(IS_DAC_CHANNEL_INSTANCE(hdac->Instance, Channel));
 578:Drivers/STM32F3xx_HAL_Driver/Src/stm32f3xx_hal_dac_ex.c ****   
 579:Drivers/STM32F3xx_HAL_Driver/Src/stm32f3xx_hal_dac_ex.c ****   /* Returns the DAC channel data output register value */
 580:Drivers/STM32F3xx_HAL_Driver/Src/stm32f3xx_hal_dac_ex.c ****   if(Channel == DAC_CHANNEL_1) 
 581:Drivers/STM32F3xx_HAL_Driver/Src/stm32f3xx_hal_dac_ex.c ****   {
 582:Drivers/STM32F3xx_HAL_Driver/Src/stm32f3xx_hal_dac_ex.c ****     return hdac->Instance->DOR1;
 583:Drivers/STM32F3xx_HAL_Driver/Src/stm32f3xx_hal_dac_ex.c ****   }
 584:Drivers/STM32F3xx_HAL_Driver/Src/stm32f3xx_hal_dac_ex.c ****   else /* channel = DAC_CHANNEL_2  */
 585:Drivers/STM32F3xx_HAL_Driver/Src/stm32f3xx_hal_dac_ex.c ****   {
 586:Drivers/STM32F3xx_HAL_Driver/Src/stm32f3xx_hal_dac_ex.c ****     return hdac->Instance->DOR2;
 587:Drivers/STM32F3xx_HAL_Driver/Src/stm32f3xx_hal_dac_ex.c ****   }
 588:Drivers/STM32F3xx_HAL_Driver/Src/stm32f3xx_hal_dac_ex.c **** }
 589:Drivers/STM32F3xx_HAL_Driver/Src/stm32f3xx_hal_dac_ex.c **** #endif /* STM32F303xE || STM32F398xx                || */
 590:Drivers/STM32F3xx_HAL_Driver/Src/stm32f3xx_hal_dac_ex.c ****        /* STM32F303xC || STM32F358xx                || */
 591:Drivers/STM32F3xx_HAL_Driver/Src/stm32f3xx_hal_dac_ex.c ****        /* STM32F303x8 || STM32F334x8 || STM32F328xx || */
 592:Drivers/STM32F3xx_HAL_Driver/Src/stm32f3xx_hal_dac_ex.c ****        /* STM32F373xC || STM32F378xx                   */
 593:Drivers/STM32F3xx_HAL_Driver/Src/stm32f3xx_hal_dac_ex.c **** 
 594:Drivers/STM32F3xx_HAL_Driver/Src/stm32f3xx_hal_dac_ex.c **** #if defined(STM32F302xE) || \
 595:Drivers/STM32F3xx_HAL_Driver/Src/stm32f3xx_hal_dac_ex.c ****     defined(STM32F302xC) || \
 596:Drivers/STM32F3xx_HAL_Driver/Src/stm32f3xx_hal_dac_ex.c ****     defined(STM32F301x8) || defined(STM32F302x8) || defined(STM32F318xx)
 597:Drivers/STM32F3xx_HAL_Driver/Src/stm32f3xx_hal_dac_ex.c **** /* DAC 1 has 1 channel (channel 1U)  */
 598:Drivers/STM32F3xx_HAL_Driver/Src/stm32f3xx_hal_dac_ex.c **** /**
 599:Drivers/STM32F3xx_HAL_Driver/Src/stm32f3xx_hal_dac_ex.c ****   * @brief  Returns the last data output value of the selected DAC channel.
ARM GAS  /var/folders/b1/22c950295gx2kqj80tvj8wqc0000gn/T//ccfZwynw.s 			page 12


 600:Drivers/STM32F3xx_HAL_Driver/Src/stm32f3xx_hal_dac_ex.c ****   * @param  hdac pointer to a DAC_HandleTypeDef structure that contains
 601:Drivers/STM32F3xx_HAL_Driver/Src/stm32f3xx_hal_dac_ex.c ****   *         the configuration information for the specified DAC.
 602:Drivers/STM32F3xx_HAL_Driver/Src/stm32f3xx_hal_dac_ex.c ****   * @param  channel The selected DAC channel. 
 603:Drivers/STM32F3xx_HAL_Driver/Src/stm32f3xx_hal_dac_ex.c ****   *          This parameter can be one of the following values:
 604:Drivers/STM32F3xx_HAL_Driver/Src/stm32f3xx_hal_dac_ex.c ****   *            @arg DAC_CHANNEL_1: DAC1 Channel1 selected
 605:Drivers/STM32F3xx_HAL_Driver/Src/stm32f3xx_hal_dac_ex.c ****   * @retval The selected DAC channel data output value.
 606:Drivers/STM32F3xx_HAL_Driver/Src/stm32f3xx_hal_dac_ex.c ****   */
 607:Drivers/STM32F3xx_HAL_Driver/Src/stm32f3xx_hal_dac_ex.c **** uint32_t HAL_DAC_GetValue(DAC_HandleTypeDef* hdac, uint32_t Channel)
 608:Drivers/STM32F3xx_HAL_Driver/Src/stm32f3xx_hal_dac_ex.c **** {
 609:Drivers/STM32F3xx_HAL_Driver/Src/stm32f3xx_hal_dac_ex.c ****   /* Check the parameters */
 610:Drivers/STM32F3xx_HAL_Driver/Src/stm32f3xx_hal_dac_ex.c ****   assert_param(IS_DAC_CHANNEL_INSTANCE(hdac->Instance, Channel));
 611:Drivers/STM32F3xx_HAL_Driver/Src/stm32f3xx_hal_dac_ex.c ****   
 612:Drivers/STM32F3xx_HAL_Driver/Src/stm32f3xx_hal_dac_ex.c ****   /* Returns the DAC channel data output register value */
 613:Drivers/STM32F3xx_HAL_Driver/Src/stm32f3xx_hal_dac_ex.c ****   return hdac->Instance->DOR1;
 614:Drivers/STM32F3xx_HAL_Driver/Src/stm32f3xx_hal_dac_ex.c **** }
 615:Drivers/STM32F3xx_HAL_Driver/Src/stm32f3xx_hal_dac_ex.c **** #endif /* STM32F302xE                               || */
 616:Drivers/STM32F3xx_HAL_Driver/Src/stm32f3xx_hal_dac_ex.c ****        /* STM32F302xC                               || */
 617:Drivers/STM32F3xx_HAL_Driver/Src/stm32f3xx_hal_dac_ex.c ****        /* STM32F301x8 || STM32F302x8 || STM32F318xx    */
 618:Drivers/STM32F3xx_HAL_Driver/Src/stm32f3xx_hal_dac_ex.c **** 
 619:Drivers/STM32F3xx_HAL_Driver/Src/stm32f3xx_hal_dac_ex.c **** /**
 620:Drivers/STM32F3xx_HAL_Driver/Src/stm32f3xx_hal_dac_ex.c ****   * @brief  Return the last data output value of the selected DAC channel.
 621:Drivers/STM32F3xx_HAL_Driver/Src/stm32f3xx_hal_dac_ex.c ****   * @param  hdac pointer to a DAC_HandleTypeDef structure that contains
 622:Drivers/STM32F3xx_HAL_Driver/Src/stm32f3xx_hal_dac_ex.c ****   *         the configuration information for the specified DAC.
 623:Drivers/STM32F3xx_HAL_Driver/Src/stm32f3xx_hal_dac_ex.c ****   * @retval The selected DAC channel data output value.
 624:Drivers/STM32F3xx_HAL_Driver/Src/stm32f3xx_hal_dac_ex.c ****   */
 625:Drivers/STM32F3xx_HAL_Driver/Src/stm32f3xx_hal_dac_ex.c **** uint32_t HAL_DACEx_DualGetValue(DAC_HandleTypeDef* hdac)
 626:Drivers/STM32F3xx_HAL_Driver/Src/stm32f3xx_hal_dac_ex.c **** {
 627:Drivers/STM32F3xx_HAL_Driver/Src/stm32f3xx_hal_dac_ex.c ****   uint32_t tmp = 0U;
 628:Drivers/STM32F3xx_HAL_Driver/Src/stm32f3xx_hal_dac_ex.c **** 
 629:Drivers/STM32F3xx_HAL_Driver/Src/stm32f3xx_hal_dac_ex.c ****   tmp |= hdac->Instance->DOR1;
 630:Drivers/STM32F3xx_HAL_Driver/Src/stm32f3xx_hal_dac_ex.c **** 
 631:Drivers/STM32F3xx_HAL_Driver/Src/stm32f3xx_hal_dac_ex.c **** #if  defined(STM32F303xE) || defined(STM32F398xx)                         || \
 632:Drivers/STM32F3xx_HAL_Driver/Src/stm32f3xx_hal_dac_ex.c ****      defined(STM32F303xC) || defined(STM32F358xx)                         || \
 633:Drivers/STM32F3xx_HAL_Driver/Src/stm32f3xx_hal_dac_ex.c ****      defined(STM32F303x8) || defined(STM32F334x8) || defined(STM32F328xx) || \
 634:Drivers/STM32F3xx_HAL_Driver/Src/stm32f3xx_hal_dac_ex.c ****      defined(STM32F373xC) || defined(STM32F378xx)
 635:Drivers/STM32F3xx_HAL_Driver/Src/stm32f3xx_hal_dac_ex.c **** /* DAC channel 2 is present in DAC 1U */
 636:Drivers/STM32F3xx_HAL_Driver/Src/stm32f3xx_hal_dac_ex.c ****   tmp |= hdac->Instance->DOR2 << 16U;
 637:Drivers/STM32F3xx_HAL_Driver/Src/stm32f3xx_hal_dac_ex.c **** #endif /* STM32F303xE || STM32F398xx                || */
 638:Drivers/STM32F3xx_HAL_Driver/Src/stm32f3xx_hal_dac_ex.c ****        /* STM32F303xC || STM32F358xx                || */
 639:Drivers/STM32F3xx_HAL_Driver/Src/stm32f3xx_hal_dac_ex.c ****        /* STM32F303x8 || STM32F334x8 || STM32F328xx || */
 640:Drivers/STM32F3xx_HAL_Driver/Src/stm32f3xx_hal_dac_ex.c ****        /* STM32F373xC || STM32F378xx                   */
 641:Drivers/STM32F3xx_HAL_Driver/Src/stm32f3xx_hal_dac_ex.c **** 
 642:Drivers/STM32F3xx_HAL_Driver/Src/stm32f3xx_hal_dac_ex.c ****   /* Returns the DAC channel data output register value */
 643:Drivers/STM32F3xx_HAL_Driver/Src/stm32f3xx_hal_dac_ex.c ****   return tmp;
 644:Drivers/STM32F3xx_HAL_Driver/Src/stm32f3xx_hal_dac_ex.c **** }
 645:Drivers/STM32F3xx_HAL_Driver/Src/stm32f3xx_hal_dac_ex.c **** 
 646:Drivers/STM32F3xx_HAL_Driver/Src/stm32f3xx_hal_dac_ex.c **** #if  defined(STM32F303xE) || defined(STM32F398xx)                         || \
 647:Drivers/STM32F3xx_HAL_Driver/Src/stm32f3xx_hal_dac_ex.c ****      defined(STM32F303xC) || defined(STM32F358xx)                         || \
 648:Drivers/STM32F3xx_HAL_Driver/Src/stm32f3xx_hal_dac_ex.c ****      defined(STM32F303x8) || defined(STM32F334x8) || defined(STM32F328xx) || \
 649:Drivers/STM32F3xx_HAL_Driver/Src/stm32f3xx_hal_dac_ex.c ****      defined(STM32F373xC) || defined(STM32F378xx)
 650:Drivers/STM32F3xx_HAL_Driver/Src/stm32f3xx_hal_dac_ex.c **** /* DAC channel 2 is available on top of DAC channel 1U */
 651:Drivers/STM32F3xx_HAL_Driver/Src/stm32f3xx_hal_dac_ex.c **** /**
 652:Drivers/STM32F3xx_HAL_Driver/Src/stm32f3xx_hal_dac_ex.c ****   * @brief  Handles DAC interrupt request
 653:Drivers/STM32F3xx_HAL_Driver/Src/stm32f3xx_hal_dac_ex.c ****   *         This function uses the interruption of DMA
 654:Drivers/STM32F3xx_HAL_Driver/Src/stm32f3xx_hal_dac_ex.c ****   *         underrun.  
 655:Drivers/STM32F3xx_HAL_Driver/Src/stm32f3xx_hal_dac_ex.c ****   * @param  hdac pointer to a DAC_HandleTypeDef structure that contains
 656:Drivers/STM32F3xx_HAL_Driver/Src/stm32f3xx_hal_dac_ex.c ****   *         the configuration information for the specified DAC.
ARM GAS  /var/folders/b1/22c950295gx2kqj80tvj8wqc0000gn/T//ccfZwynw.s 			page 13


 657:Drivers/STM32F3xx_HAL_Driver/Src/stm32f3xx_hal_dac_ex.c ****   * @retval None
 658:Drivers/STM32F3xx_HAL_Driver/Src/stm32f3xx_hal_dac_ex.c ****   */
 659:Drivers/STM32F3xx_HAL_Driver/Src/stm32f3xx_hal_dac_ex.c **** void HAL_DAC_IRQHandler(struct __DAC_HandleTypeDef* hdac)
 660:Drivers/STM32F3xx_HAL_Driver/Src/stm32f3xx_hal_dac_ex.c **** {
 661:Drivers/STM32F3xx_HAL_Driver/Src/stm32f3xx_hal_dac_ex.c ****   if(__HAL_DAC_GET_IT_SOURCE(hdac, DAC_IT_DMAUDR1))
 662:Drivers/STM32F3xx_HAL_Driver/Src/stm32f3xx_hal_dac_ex.c ****   { 
 663:Drivers/STM32F3xx_HAL_Driver/Src/stm32f3xx_hal_dac_ex.c ****     /* Check underrun flag of DAC channel 1U */
 664:Drivers/STM32F3xx_HAL_Driver/Src/stm32f3xx_hal_dac_ex.c ****     if(__HAL_DAC_GET_FLAG(hdac, DAC_FLAG_DMAUDR1))
 665:Drivers/STM32F3xx_HAL_Driver/Src/stm32f3xx_hal_dac_ex.c ****     {
 666:Drivers/STM32F3xx_HAL_Driver/Src/stm32f3xx_hal_dac_ex.c ****       /* Change DAC state to error state */
 667:Drivers/STM32F3xx_HAL_Driver/Src/stm32f3xx_hal_dac_ex.c ****       hdac->State = HAL_DAC_STATE_ERROR;
 668:Drivers/STM32F3xx_HAL_Driver/Src/stm32f3xx_hal_dac_ex.c ****     
 669:Drivers/STM32F3xx_HAL_Driver/Src/stm32f3xx_hal_dac_ex.c ****       /* Set DAC error code to chanel1 DMA underrun error */
 670:Drivers/STM32F3xx_HAL_Driver/Src/stm32f3xx_hal_dac_ex.c ****       SET_BIT(hdac->ErrorCode, HAL_DAC_ERROR_DMAUNDERRUNCH1);
 671:Drivers/STM32F3xx_HAL_Driver/Src/stm32f3xx_hal_dac_ex.c ****           
 672:Drivers/STM32F3xx_HAL_Driver/Src/stm32f3xx_hal_dac_ex.c ****       /* Clear the underrun flag */
 673:Drivers/STM32F3xx_HAL_Driver/Src/stm32f3xx_hal_dac_ex.c ****       __HAL_DAC_CLEAR_FLAG(hdac,DAC_FLAG_DMAUDR1);
 674:Drivers/STM32F3xx_HAL_Driver/Src/stm32f3xx_hal_dac_ex.c ****     
 675:Drivers/STM32F3xx_HAL_Driver/Src/stm32f3xx_hal_dac_ex.c ****       /* Disable the selected DAC channel1 DMA request */
 676:Drivers/STM32F3xx_HAL_Driver/Src/stm32f3xx_hal_dac_ex.c ****       CLEAR_BIT(hdac->Instance->CR, DAC_CR_DMAEN1);
 677:Drivers/STM32F3xx_HAL_Driver/Src/stm32f3xx_hal_dac_ex.c ****     
 678:Drivers/STM32F3xx_HAL_Driver/Src/stm32f3xx_hal_dac_ex.c ****       /* Error callback */ 
 679:Drivers/STM32F3xx_HAL_Driver/Src/stm32f3xx_hal_dac_ex.c **** #if (USE_HAL_DAC_REGISTER_CALLBACKS == 1)
 680:Drivers/STM32F3xx_HAL_Driver/Src/stm32f3xx_hal_dac_ex.c ****       hdac->DMAUnderrunCallbackCh1(hdac);
 681:Drivers/STM32F3xx_HAL_Driver/Src/stm32f3xx_hal_dac_ex.c **** #else
 682:Drivers/STM32F3xx_HAL_Driver/Src/stm32f3xx_hal_dac_ex.c ****       HAL_DAC_DMAUnderrunCallbackCh1(hdac);
 683:Drivers/STM32F3xx_HAL_Driver/Src/stm32f3xx_hal_dac_ex.c **** #endif
 684:Drivers/STM32F3xx_HAL_Driver/Src/stm32f3xx_hal_dac_ex.c ****     }
 685:Drivers/STM32F3xx_HAL_Driver/Src/stm32f3xx_hal_dac_ex.c ****   }
 686:Drivers/STM32F3xx_HAL_Driver/Src/stm32f3xx_hal_dac_ex.c ****   
 687:Drivers/STM32F3xx_HAL_Driver/Src/stm32f3xx_hal_dac_ex.c ****   if(__HAL_DAC_GET_IT_SOURCE(hdac, DAC_IT_DMAUDR2))
 688:Drivers/STM32F3xx_HAL_Driver/Src/stm32f3xx_hal_dac_ex.c ****   {
 689:Drivers/STM32F3xx_HAL_Driver/Src/stm32f3xx_hal_dac_ex.c ****     /* Check underrun flag of DAC channel 2 */
 690:Drivers/STM32F3xx_HAL_Driver/Src/stm32f3xx_hal_dac_ex.c ****     if (__HAL_DAC_GET_FLAG(hdac, DAC_FLAG_DMAUDR2))
 691:Drivers/STM32F3xx_HAL_Driver/Src/stm32f3xx_hal_dac_ex.c ****     {
 692:Drivers/STM32F3xx_HAL_Driver/Src/stm32f3xx_hal_dac_ex.c ****       /* Change DAC state to error state */
 693:Drivers/STM32F3xx_HAL_Driver/Src/stm32f3xx_hal_dac_ex.c ****       hdac->State = HAL_DAC_STATE_ERROR;
 694:Drivers/STM32F3xx_HAL_Driver/Src/stm32f3xx_hal_dac_ex.c ****     
 695:Drivers/STM32F3xx_HAL_Driver/Src/stm32f3xx_hal_dac_ex.c ****       /* Set DAC error code to channel2 DMA underrun error */
 696:Drivers/STM32F3xx_HAL_Driver/Src/stm32f3xx_hal_dac_ex.c ****       SET_BIT(hdac->ErrorCode, HAL_DAC_ERROR_DMAUNDERRUNCH2);
 697:Drivers/STM32F3xx_HAL_Driver/Src/stm32f3xx_hal_dac_ex.c ****     
 698:Drivers/STM32F3xx_HAL_Driver/Src/stm32f3xx_hal_dac_ex.c ****       /* Clear the underrun flag */
 699:Drivers/STM32F3xx_HAL_Driver/Src/stm32f3xx_hal_dac_ex.c ****       __HAL_DAC_CLEAR_FLAG(hdac,DAC_FLAG_DMAUDR2);
 700:Drivers/STM32F3xx_HAL_Driver/Src/stm32f3xx_hal_dac_ex.c ****     
 701:Drivers/STM32F3xx_HAL_Driver/Src/stm32f3xx_hal_dac_ex.c ****       /* Disable the selected DAC channel1 DMA request */
 702:Drivers/STM32F3xx_HAL_Driver/Src/stm32f3xx_hal_dac_ex.c ****       CLEAR_BIT(hdac->Instance->CR, DAC_CR_DMAEN2);
 703:Drivers/STM32F3xx_HAL_Driver/Src/stm32f3xx_hal_dac_ex.c ****    
 704:Drivers/STM32F3xx_HAL_Driver/Src/stm32f3xx_hal_dac_ex.c ****       /* Error callback */
 705:Drivers/STM32F3xx_HAL_Driver/Src/stm32f3xx_hal_dac_ex.c **** #if (USE_HAL_DAC_REGISTER_CALLBACKS == 1)
 706:Drivers/STM32F3xx_HAL_Driver/Src/stm32f3xx_hal_dac_ex.c ****       hdac->DMAUnderrunCallbackCh2(hdac);
 707:Drivers/STM32F3xx_HAL_Driver/Src/stm32f3xx_hal_dac_ex.c **** #else
 708:Drivers/STM32F3xx_HAL_Driver/Src/stm32f3xx_hal_dac_ex.c ****       HAL_DACEx_DMAUnderrunCallbackCh2(hdac);
 709:Drivers/STM32F3xx_HAL_Driver/Src/stm32f3xx_hal_dac_ex.c **** #endif
 710:Drivers/STM32F3xx_HAL_Driver/Src/stm32f3xx_hal_dac_ex.c ****     }
 711:Drivers/STM32F3xx_HAL_Driver/Src/stm32f3xx_hal_dac_ex.c ****   }
 712:Drivers/STM32F3xx_HAL_Driver/Src/stm32f3xx_hal_dac_ex.c **** }
 713:Drivers/STM32F3xx_HAL_Driver/Src/stm32f3xx_hal_dac_ex.c **** #endif /* STM32F303xE || STM32F398xx                || */
ARM GAS  /var/folders/b1/22c950295gx2kqj80tvj8wqc0000gn/T//ccfZwynw.s 			page 14


 714:Drivers/STM32F3xx_HAL_Driver/Src/stm32f3xx_hal_dac_ex.c ****        /* STM32F303xC || STM32F358xx                || */
 715:Drivers/STM32F3xx_HAL_Driver/Src/stm32f3xx_hal_dac_ex.c ****        /* STM32F303x8 || STM32F334x8 || STM32F328xx || */
 716:Drivers/STM32F3xx_HAL_Driver/Src/stm32f3xx_hal_dac_ex.c ****        /* STM32F373xC || STM32F378xx                   */
 717:Drivers/STM32F3xx_HAL_Driver/Src/stm32f3xx_hal_dac_ex.c **** 
 718:Drivers/STM32F3xx_HAL_Driver/Src/stm32f3xx_hal_dac_ex.c **** #if defined(STM32F302xE) || \
 719:Drivers/STM32F3xx_HAL_Driver/Src/stm32f3xx_hal_dac_ex.c ****     defined(STM32F302xC) || \
 720:Drivers/STM32F3xx_HAL_Driver/Src/stm32f3xx_hal_dac_ex.c ****     defined(STM32F301x8) || defined(STM32F302x8) || defined(STM32F318xx)
 721:Drivers/STM32F3xx_HAL_Driver/Src/stm32f3xx_hal_dac_ex.c **** /* DAC channel 2 is NOT available. Only DAC channel 1 is available */
 722:Drivers/STM32F3xx_HAL_Driver/Src/stm32f3xx_hal_dac_ex.c **** /**
 723:Drivers/STM32F3xx_HAL_Driver/Src/stm32f3xx_hal_dac_ex.c ****   * @brief  Handles DAC interrupt request
 724:Drivers/STM32F3xx_HAL_Driver/Src/stm32f3xx_hal_dac_ex.c ****   *         This function uses the interruption of DMA
 725:Drivers/STM32F3xx_HAL_Driver/Src/stm32f3xx_hal_dac_ex.c ****   *         underrun.  
 726:Drivers/STM32F3xx_HAL_Driver/Src/stm32f3xx_hal_dac_ex.c ****   * @param  hdac pointer to a DAC_HandleTypeDef structure that contains
 727:Drivers/STM32F3xx_HAL_Driver/Src/stm32f3xx_hal_dac_ex.c ****   *         the configuration information for the specified DAC.
 728:Drivers/STM32F3xx_HAL_Driver/Src/stm32f3xx_hal_dac_ex.c ****   * @retval None
 729:Drivers/STM32F3xx_HAL_Driver/Src/stm32f3xx_hal_dac_ex.c ****   */
 730:Drivers/STM32F3xx_HAL_Driver/Src/stm32f3xx_hal_dac_ex.c **** void HAL_DAC_IRQHandler(struct __DAC_HandleTypeDef* hdac)
 731:Drivers/STM32F3xx_HAL_Driver/Src/stm32f3xx_hal_dac_ex.c **** {
 732:Drivers/STM32F3xx_HAL_Driver/Src/stm32f3xx_hal_dac_ex.c ****   if(__HAL_DAC_GET_IT_SOURCE(hdac, DAC_IT_DMAUDR1))
 733:Drivers/STM32F3xx_HAL_Driver/Src/stm32f3xx_hal_dac_ex.c ****   {  
 734:Drivers/STM32F3xx_HAL_Driver/Src/stm32f3xx_hal_dac_ex.c ****     /* Check underrun flag of DAC channel 1U */
 735:Drivers/STM32F3xx_HAL_Driver/Src/stm32f3xx_hal_dac_ex.c ****     if(__HAL_DAC_GET_FLAG(hdac, DAC_FLAG_DMAUDR1))
 736:Drivers/STM32F3xx_HAL_Driver/Src/stm32f3xx_hal_dac_ex.c ****     {
 737:Drivers/STM32F3xx_HAL_Driver/Src/stm32f3xx_hal_dac_ex.c ****       /* Change DAC state to error state */
 738:Drivers/STM32F3xx_HAL_Driver/Src/stm32f3xx_hal_dac_ex.c ****       hdac->State = HAL_DAC_STATE_ERROR;
 739:Drivers/STM32F3xx_HAL_Driver/Src/stm32f3xx_hal_dac_ex.c ****     
 740:Drivers/STM32F3xx_HAL_Driver/Src/stm32f3xx_hal_dac_ex.c ****       /* Set DAC error code to chanel1 DMA underrun error */
 741:Drivers/STM32F3xx_HAL_Driver/Src/stm32f3xx_hal_dac_ex.c ****       SET_BIT(hdac->ErrorCode, HAL_DAC_ERROR_DMAUNDERRUNCH1);
 742:Drivers/STM32F3xx_HAL_Driver/Src/stm32f3xx_hal_dac_ex.c ****     
 743:Drivers/STM32F3xx_HAL_Driver/Src/stm32f3xx_hal_dac_ex.c ****       /* Clear the underrun flag */
 744:Drivers/STM32F3xx_HAL_Driver/Src/stm32f3xx_hal_dac_ex.c ****       __HAL_DAC_CLEAR_FLAG(hdac,DAC_FLAG_DMAUDR1);
 745:Drivers/STM32F3xx_HAL_Driver/Src/stm32f3xx_hal_dac_ex.c ****     
 746:Drivers/STM32F3xx_HAL_Driver/Src/stm32f3xx_hal_dac_ex.c ****       /* Disable the selected DAC channel1 DMA request */
 747:Drivers/STM32F3xx_HAL_Driver/Src/stm32f3xx_hal_dac_ex.c ****       CLEAR_BIT(hdac->Instance->CR, DAC_CR_DMAEN1);
 748:Drivers/STM32F3xx_HAL_Driver/Src/stm32f3xx_hal_dac_ex.c ****     
 749:Drivers/STM32F3xx_HAL_Driver/Src/stm32f3xx_hal_dac_ex.c ****       /* Error callback */ 
 750:Drivers/STM32F3xx_HAL_Driver/Src/stm32f3xx_hal_dac_ex.c ****       HAL_DAC_DMAUnderrunCallbackCh1(hdac);
 751:Drivers/STM32F3xx_HAL_Driver/Src/stm32f3xx_hal_dac_ex.c ****     }
 752:Drivers/STM32F3xx_HAL_Driver/Src/stm32f3xx_hal_dac_ex.c ****   }
 753:Drivers/STM32F3xx_HAL_Driver/Src/stm32f3xx_hal_dac_ex.c **** }
 754:Drivers/STM32F3xx_HAL_Driver/Src/stm32f3xx_hal_dac_ex.c **** #endif /* STM32F302xE                               || */
 755:Drivers/STM32F3xx_HAL_Driver/Src/stm32f3xx_hal_dac_ex.c ****        /* STM32F302xC                               || */
 756:Drivers/STM32F3xx_HAL_Driver/Src/stm32f3xx_hal_dac_ex.c ****        /* STM32F301x8 || STM32F302x8 || STM32F318xx    */
 757:Drivers/STM32F3xx_HAL_Driver/Src/stm32f3xx_hal_dac_ex.c **** 
 758:Drivers/STM32F3xx_HAL_Driver/Src/stm32f3xx_hal_dac_ex.c **** /**
 759:Drivers/STM32F3xx_HAL_Driver/Src/stm32f3xx_hal_dac_ex.c ****   * @brief  Configures the selected DAC channel.
 760:Drivers/STM32F3xx_HAL_Driver/Src/stm32f3xx_hal_dac_ex.c ****   * @param  hdac pointer to a DAC_HandleTypeDef structure that contains
 761:Drivers/STM32F3xx_HAL_Driver/Src/stm32f3xx_hal_dac_ex.c ****   *         the configuration information for the specified DAC.
 762:Drivers/STM32F3xx_HAL_Driver/Src/stm32f3xx_hal_dac_ex.c ****   * @param  sConfig DAC configuration structure.
 763:Drivers/STM32F3xx_HAL_Driver/Src/stm32f3xx_hal_dac_ex.c ****   * @param  Channel The selected DAC channel. 
 764:Drivers/STM32F3xx_HAL_Driver/Src/stm32f3xx_hal_dac_ex.c ****   *          This parameter can be one of the following values:
 765:Drivers/STM32F3xx_HAL_Driver/Src/stm32f3xx_hal_dac_ex.c ****   *            @arg DAC_CHANNEL_1: DAC1 Channel1 selected
 766:Drivers/STM32F3xx_HAL_Driver/Src/stm32f3xx_hal_dac_ex.c ****   *            @arg DAC_CHANNEL_2: DAC1 Channel2 selected  
 767:Drivers/STM32F3xx_HAL_Driver/Src/stm32f3xx_hal_dac_ex.c ****   *            @arg DAC_CHANNEL_1: DAC2 Channel1 selected 
 768:Drivers/STM32F3xx_HAL_Driver/Src/stm32f3xx_hal_dac_ex.c ****   * @retval HAL status
 769:Drivers/STM32F3xx_HAL_Driver/Src/stm32f3xx_hal_dac_ex.c ****   */
 770:Drivers/STM32F3xx_HAL_Driver/Src/stm32f3xx_hal_dac_ex.c **** 
ARM GAS  /var/folders/b1/22c950295gx2kqj80tvj8wqc0000gn/T//ccfZwynw.s 			page 15


 771:Drivers/STM32F3xx_HAL_Driver/Src/stm32f3xx_hal_dac_ex.c **** HAL_StatusTypeDef HAL_DAC_ConfigChannel(DAC_HandleTypeDef* hdac, DAC_ChannelConfTypeDef* sConfig, u
 772:Drivers/STM32F3xx_HAL_Driver/Src/stm32f3xx_hal_dac_ex.c **** {
 773:Drivers/STM32F3xx_HAL_Driver/Src/stm32f3xx_hal_dac_ex.c ****   uint32_t tmpreg1 = 0U, tmpreg2 = 0U;
 774:Drivers/STM32F3xx_HAL_Driver/Src/stm32f3xx_hal_dac_ex.c **** 
 775:Drivers/STM32F3xx_HAL_Driver/Src/stm32f3xx_hal_dac_ex.c ****   /* Check the DAC parameters */
 776:Drivers/STM32F3xx_HAL_Driver/Src/stm32f3xx_hal_dac_ex.c ****   assert_param(IS_DAC_TRIGGER(sConfig->DAC_Trigger));
 777:Drivers/STM32F3xx_HAL_Driver/Src/stm32f3xx_hal_dac_ex.c **** 
 778:Drivers/STM32F3xx_HAL_Driver/Src/stm32f3xx_hal_dac_ex.c **** #if defined(STM32F303x8) || defined(STM32F334x8) || defined(STM32F328xx)
 779:Drivers/STM32F3xx_HAL_Driver/Src/stm32f3xx_hal_dac_ex.c ****   if ((hdac->Instance == DAC1) && (Channel == DAC_CHANNEL_1)) 
 780:Drivers/STM32F3xx_HAL_Driver/Src/stm32f3xx_hal_dac_ex.c ****   {
 781:Drivers/STM32F3xx_HAL_Driver/Src/stm32f3xx_hal_dac_ex.c ****     /* Output Buffer (BOFF1) control */
 782:Drivers/STM32F3xx_HAL_Driver/Src/stm32f3xx_hal_dac_ex.c ****     assert_param(IS_DAC_OUTPUT_BUFFER_STATE(sConfig->DAC_OutputBuffer));    
 783:Drivers/STM32F3xx_HAL_Driver/Src/stm32f3xx_hal_dac_ex.c ****   }
 784:Drivers/STM32F3xx_HAL_Driver/Src/stm32f3xx_hal_dac_ex.c ****   else /* DAC1 channel 2U & DAC2 channel 1U */
 785:Drivers/STM32F3xx_HAL_Driver/Src/stm32f3xx_hal_dac_ex.c ****   {
 786:Drivers/STM32F3xx_HAL_Driver/Src/stm32f3xx_hal_dac_ex.c ****     /* Output Switch (OUTEN) control */
 787:Drivers/STM32F3xx_HAL_Driver/Src/stm32f3xx_hal_dac_ex.c ****     assert_param(IS_DAC_OUTPUT_SWITCH_STATE(sConfig->DAC_OutputSwitch));    
 788:Drivers/STM32F3xx_HAL_Driver/Src/stm32f3xx_hal_dac_ex.c ****   }    
 789:Drivers/STM32F3xx_HAL_Driver/Src/stm32f3xx_hal_dac_ex.c **** #else
 790:Drivers/STM32F3xx_HAL_Driver/Src/stm32f3xx_hal_dac_ex.c ****   assert_param(IS_DAC_OUTPUT_BUFFER_STATE(sConfig->DAC_OutputBuffer));    
 791:Drivers/STM32F3xx_HAL_Driver/Src/stm32f3xx_hal_dac_ex.c **** #endif /* STM32F303x8 || STM32F334x8 || STM32F328xx || */
 792:Drivers/STM32F3xx_HAL_Driver/Src/stm32f3xx_hal_dac_ex.c ****   assert_param(IS_DAC_CHANNEL(Channel));   
 793:Drivers/STM32F3xx_HAL_Driver/Src/stm32f3xx_hal_dac_ex.c ****  
 794:Drivers/STM32F3xx_HAL_Driver/Src/stm32f3xx_hal_dac_ex.c ****   /* Process locked */
 795:Drivers/STM32F3xx_HAL_Driver/Src/stm32f3xx_hal_dac_ex.c ****   __HAL_LOCK(hdac);
 796:Drivers/STM32F3xx_HAL_Driver/Src/stm32f3xx_hal_dac_ex.c ****   
 797:Drivers/STM32F3xx_HAL_Driver/Src/stm32f3xx_hal_dac_ex.c ****   /* Change DAC state */
 798:Drivers/STM32F3xx_HAL_Driver/Src/stm32f3xx_hal_dac_ex.c ****   hdac->State = HAL_DAC_STATE_BUSY;
 799:Drivers/STM32F3xx_HAL_Driver/Src/stm32f3xx_hal_dac_ex.c ****   
 800:Drivers/STM32F3xx_HAL_Driver/Src/stm32f3xx_hal_dac_ex.c ****   /* Get the DAC CR value */
 801:Drivers/STM32F3xx_HAL_Driver/Src/stm32f3xx_hal_dac_ex.c ****   tmpreg1 = hdac->Instance->CR;
 802:Drivers/STM32F3xx_HAL_Driver/Src/stm32f3xx_hal_dac_ex.c ****   
 803:Drivers/STM32F3xx_HAL_Driver/Src/stm32f3xx_hal_dac_ex.c ****   /* Clear BOFFx-OUTENx, TENx, TSELx, WAVEx and MAMPx bits */
 804:Drivers/STM32F3xx_HAL_Driver/Src/stm32f3xx_hal_dac_ex.c ****   
 805:Drivers/STM32F3xx_HAL_Driver/Src/stm32f3xx_hal_dac_ex.c ****   /* Configure for the selected DAC channel: buffer output or switch output, trigger */
 806:Drivers/STM32F3xx_HAL_Driver/Src/stm32f3xx_hal_dac_ex.c ****   /* Set TSELx and TENx bits according to DAC_Trigger value */
 807:Drivers/STM32F3xx_HAL_Driver/Src/stm32f3xx_hal_dac_ex.c ****   /* Set BOFFx bit according to DAC_OutputBuffer value OR */   
 808:Drivers/STM32F3xx_HAL_Driver/Src/stm32f3xx_hal_dac_ex.c ****   /* Set OUTEN bit according to DAC_OutputSwitch value */   
 809:Drivers/STM32F3xx_HAL_Driver/Src/stm32f3xx_hal_dac_ex.c **** #if defined(STM32F303x8) || defined(STM32F334x8) || defined(STM32F328xx)
 810:Drivers/STM32F3xx_HAL_Driver/Src/stm32f3xx_hal_dac_ex.c ****   if ((hdac->Instance == DAC1) && (Channel == DAC_CHANNEL_1)) 
 811:Drivers/STM32F3xx_HAL_Driver/Src/stm32f3xx_hal_dac_ex.c ****   {
 812:Drivers/STM32F3xx_HAL_Driver/Src/stm32f3xx_hal_dac_ex.c ****     /* Output Buffer (BOFF1) control */
 813:Drivers/STM32F3xx_HAL_Driver/Src/stm32f3xx_hal_dac_ex.c ****     tmpreg1 &= ~(((uint32_t)(DAC_CR_MAMP1 | DAC_CR_WAVE1 | DAC_CR_TSEL1 | DAC_CR_TEN1 | DAC_CR_BOFF
 814:Drivers/STM32F3xx_HAL_Driver/Src/stm32f3xx_hal_dac_ex.c ****     tmpreg2 = (sConfig->DAC_Trigger | sConfig->DAC_OutputBuffer);    
 815:Drivers/STM32F3xx_HAL_Driver/Src/stm32f3xx_hal_dac_ex.c ****   }
 816:Drivers/STM32F3xx_HAL_Driver/Src/stm32f3xx_hal_dac_ex.c ****   else /* DAC1 channel 2U & DAC2 channel 1U */
 817:Drivers/STM32F3xx_HAL_Driver/Src/stm32f3xx_hal_dac_ex.c ****   {
 818:Drivers/STM32F3xx_HAL_Driver/Src/stm32f3xx_hal_dac_ex.c ****     /* Output Switch (OUTEN) control */
 819:Drivers/STM32F3xx_HAL_Driver/Src/stm32f3xx_hal_dac_ex.c ****     tmpreg1 &= ~(((uint32_t)(DAC_CR_MAMP1 | DAC_CR_WAVE1 | DAC_CR_TSEL1 | DAC_CR_TEN1 | DAC_CR_OUTE
 820:Drivers/STM32F3xx_HAL_Driver/Src/stm32f3xx_hal_dac_ex.c ****     tmpreg2 = (sConfig->DAC_Trigger | sConfig->DAC_OutputSwitch);    
 821:Drivers/STM32F3xx_HAL_Driver/Src/stm32f3xx_hal_dac_ex.c ****   }    
 822:Drivers/STM32F3xx_HAL_Driver/Src/stm32f3xx_hal_dac_ex.c **** #else
 823:Drivers/STM32F3xx_HAL_Driver/Src/stm32f3xx_hal_dac_ex.c ****   tmpreg1 &= ~(((uint32_t)(DAC_CR_MAMP1 | DAC_CR_WAVE1 | DAC_CR_TSEL1 | DAC_CR_TEN1 | DAC_CR_BOFF1)
 824:Drivers/STM32F3xx_HAL_Driver/Src/stm32f3xx_hal_dac_ex.c ****   tmpreg2 = (sConfig->DAC_Trigger | sConfig->DAC_OutputBuffer);
 825:Drivers/STM32F3xx_HAL_Driver/Src/stm32f3xx_hal_dac_ex.c **** #endif  /* STM32F303x8 || STM32F334x8 || STM32F328xx || */
 826:Drivers/STM32F3xx_HAL_Driver/Src/stm32f3xx_hal_dac_ex.c ****   
 827:Drivers/STM32F3xx_HAL_Driver/Src/stm32f3xx_hal_dac_ex.c ****   /* Calculate CR register value depending on DAC_Channel */
ARM GAS  /var/folders/b1/22c950295gx2kqj80tvj8wqc0000gn/T//ccfZwynw.s 			page 16


 828:Drivers/STM32F3xx_HAL_Driver/Src/stm32f3xx_hal_dac_ex.c ****   tmpreg1 |= tmpreg2 << Channel;
 829:Drivers/STM32F3xx_HAL_Driver/Src/stm32f3xx_hal_dac_ex.c ****   /* Write to DAC CR */
 830:Drivers/STM32F3xx_HAL_Driver/Src/stm32f3xx_hal_dac_ex.c ****   hdac->Instance->CR = tmpreg1;
 831:Drivers/STM32F3xx_HAL_Driver/Src/stm32f3xx_hal_dac_ex.c ****   
 832:Drivers/STM32F3xx_HAL_Driver/Src/stm32f3xx_hal_dac_ex.c ****   /* Disable wave generation */
 833:Drivers/STM32F3xx_HAL_Driver/Src/stm32f3xx_hal_dac_ex.c ****   hdac->Instance->CR &= ~(DAC_CR_WAVE1 << Channel);
 834:Drivers/STM32F3xx_HAL_Driver/Src/stm32f3xx_hal_dac_ex.c **** 
 835:Drivers/STM32F3xx_HAL_Driver/Src/stm32f3xx_hal_dac_ex.c ****   /* Change DAC state */
 836:Drivers/STM32F3xx_HAL_Driver/Src/stm32f3xx_hal_dac_ex.c ****   hdac->State = HAL_DAC_STATE_READY;
 837:Drivers/STM32F3xx_HAL_Driver/Src/stm32f3xx_hal_dac_ex.c ****   
 838:Drivers/STM32F3xx_HAL_Driver/Src/stm32f3xx_hal_dac_ex.c ****   /* Process unlocked */
 839:Drivers/STM32F3xx_HAL_Driver/Src/stm32f3xx_hal_dac_ex.c ****   __HAL_UNLOCK(hdac);
 840:Drivers/STM32F3xx_HAL_Driver/Src/stm32f3xx_hal_dac_ex.c ****   
 841:Drivers/STM32F3xx_HAL_Driver/Src/stm32f3xx_hal_dac_ex.c ****   /* Return function status */
 842:Drivers/STM32F3xx_HAL_Driver/Src/stm32f3xx_hal_dac_ex.c ****   return HAL_OK;
 843:Drivers/STM32F3xx_HAL_Driver/Src/stm32f3xx_hal_dac_ex.c **** }
 844:Drivers/STM32F3xx_HAL_Driver/Src/stm32f3xx_hal_dac_ex.c **** 
 845:Drivers/STM32F3xx_HAL_Driver/Src/stm32f3xx_hal_dac_ex.c **** /**
 846:Drivers/STM32F3xx_HAL_Driver/Src/stm32f3xx_hal_dac_ex.c ****   * @brief  Enables or disables the selected DAC channel wave generation.
 847:Drivers/STM32F3xx_HAL_Driver/Src/stm32f3xx_hal_dac_ex.c ****   * @param  hdac pointer to a DAC_HandleTypeDef structure that contains
 848:Drivers/STM32F3xx_HAL_Driver/Src/stm32f3xx_hal_dac_ex.c ****   *         the configuration information for the specified DAC.
 849:Drivers/STM32F3xx_HAL_Driver/Src/stm32f3xx_hal_dac_ex.c ****   * @param  Channel The selected DAC channel.
 850:Drivers/STM32F3xx_HAL_Driver/Src/stm32f3xx_hal_dac_ex.c ****   *          This parameter can be one of the following values:
 851:Drivers/STM32F3xx_HAL_Driver/Src/stm32f3xx_hal_dac_ex.c ****   *            @arg DAC_CHANNEL_1: DAC1 Channel1 selected
 852:Drivers/STM32F3xx_HAL_Driver/Src/stm32f3xx_hal_dac_ex.c ****   *            @arg DAC_CHANNEL_2: DAC1 Channel2 selected
 853:Drivers/STM32F3xx_HAL_Driver/Src/stm32f3xx_hal_dac_ex.c ****   * @param  Amplitude Select max triangle amplitude.
 854:Drivers/STM32F3xx_HAL_Driver/Src/stm32f3xx_hal_dac_ex.c ****   *          This parameter can be one of the following values:
 855:Drivers/STM32F3xx_HAL_Driver/Src/stm32f3xx_hal_dac_ex.c ****   *            @arg DAC_TRIANGLEAMPLITUDE_1: Select max triangle amplitude of 1
 856:Drivers/STM32F3xx_HAL_Driver/Src/stm32f3xx_hal_dac_ex.c ****   *            @arg DAC_TRIANGLEAMPLITUDE_3: Select max triangle amplitude of 3
 857:Drivers/STM32F3xx_HAL_Driver/Src/stm32f3xx_hal_dac_ex.c ****   *            @arg DAC_TRIANGLEAMPLITUDE_7: Select max triangle amplitude of 7
 858:Drivers/STM32F3xx_HAL_Driver/Src/stm32f3xx_hal_dac_ex.c ****   *            @arg DAC_TRIANGLEAMPLITUDE_15: Select max triangle amplitude of 15
 859:Drivers/STM32F3xx_HAL_Driver/Src/stm32f3xx_hal_dac_ex.c ****   *            @arg DAC_TRIANGLEAMPLITUDE_31: Select max triangle amplitude of 31
 860:Drivers/STM32F3xx_HAL_Driver/Src/stm32f3xx_hal_dac_ex.c ****   *            @arg DAC_TRIANGLEAMPLITUDE_63: Select max triangle amplitude of 63
 861:Drivers/STM32F3xx_HAL_Driver/Src/stm32f3xx_hal_dac_ex.c ****   *            @arg DAC_TRIANGLEAMPLITUDE_127: Select max triangle amplitude of 127
 862:Drivers/STM32F3xx_HAL_Driver/Src/stm32f3xx_hal_dac_ex.c ****   *            @arg DAC_TRIANGLEAMPLITUDE_255: Select max triangle amplitude of 255
 863:Drivers/STM32F3xx_HAL_Driver/Src/stm32f3xx_hal_dac_ex.c ****   *            @arg DAC_TRIANGLEAMPLITUDE_511: Select max triangle amplitude of 511
 864:Drivers/STM32F3xx_HAL_Driver/Src/stm32f3xx_hal_dac_ex.c ****   *            @arg DAC_TRIANGLEAMPLITUDE_1023: Select max triangle amplitude of 1023
 865:Drivers/STM32F3xx_HAL_Driver/Src/stm32f3xx_hal_dac_ex.c ****   *            @arg DAC_TRIANGLEAMPLITUDE_2047: Select max triangle amplitude of 2047
 866:Drivers/STM32F3xx_HAL_Driver/Src/stm32f3xx_hal_dac_ex.c ****   *            @arg DAC_TRIANGLEAMPLITUDE_4095: Select max triangle amplitude of 4095
 867:Drivers/STM32F3xx_HAL_Driver/Src/stm32f3xx_hal_dac_ex.c ****   * @note   Wave generation is not available in DAC2.
 868:Drivers/STM32F3xx_HAL_Driver/Src/stm32f3xx_hal_dac_ex.c ****   * @retval HAL status
 869:Drivers/STM32F3xx_HAL_Driver/Src/stm32f3xx_hal_dac_ex.c ****   */
 870:Drivers/STM32F3xx_HAL_Driver/Src/stm32f3xx_hal_dac_ex.c **** HAL_StatusTypeDef HAL_DACEx_TriangleWaveGenerate(DAC_HandleTypeDef* hdac, uint32_t Channel, uint32_
 871:Drivers/STM32F3xx_HAL_Driver/Src/stm32f3xx_hal_dac_ex.c **** {
 872:Drivers/STM32F3xx_HAL_Driver/Src/stm32f3xx_hal_dac_ex.c ****   /* Check the parameters */
 873:Drivers/STM32F3xx_HAL_Driver/Src/stm32f3xx_hal_dac_ex.c ****   assert_param(IS_DAC_CHANNEL(Channel));
 874:Drivers/STM32F3xx_HAL_Driver/Src/stm32f3xx_hal_dac_ex.c ****   assert_param(IS_DAC_LFSR_UNMASK_TRIANGLE_AMPLITUDE(Amplitude));
 875:Drivers/STM32F3xx_HAL_Driver/Src/stm32f3xx_hal_dac_ex.c **** 
 876:Drivers/STM32F3xx_HAL_Driver/Src/stm32f3xx_hal_dac_ex.c ****   /* Process locked */
 877:Drivers/STM32F3xx_HAL_Driver/Src/stm32f3xx_hal_dac_ex.c ****   __HAL_LOCK(hdac);
 878:Drivers/STM32F3xx_HAL_Driver/Src/stm32f3xx_hal_dac_ex.c **** 
 879:Drivers/STM32F3xx_HAL_Driver/Src/stm32f3xx_hal_dac_ex.c ****   /* Change DAC state */
 880:Drivers/STM32F3xx_HAL_Driver/Src/stm32f3xx_hal_dac_ex.c ****   hdac->State = HAL_DAC_STATE_BUSY;
 881:Drivers/STM32F3xx_HAL_Driver/Src/stm32f3xx_hal_dac_ex.c **** 
 882:Drivers/STM32F3xx_HAL_Driver/Src/stm32f3xx_hal_dac_ex.c ****   /* Enable the selected wave generation for the selected DAC channel */
 883:Drivers/STM32F3xx_HAL_Driver/Src/stm32f3xx_hal_dac_ex.c ****   MODIFY_REG(hdac->Instance->CR, ((DAC_CR_WAVE1)|(DAC_CR_MAMP1))<<Channel, (DAC_CR_WAVE1_1 | Amplit
 884:Drivers/STM32F3xx_HAL_Driver/Src/stm32f3xx_hal_dac_ex.c **** 
ARM GAS  /var/folders/b1/22c950295gx2kqj80tvj8wqc0000gn/T//ccfZwynw.s 			page 17


 885:Drivers/STM32F3xx_HAL_Driver/Src/stm32f3xx_hal_dac_ex.c ****   /* Change DAC state */
 886:Drivers/STM32F3xx_HAL_Driver/Src/stm32f3xx_hal_dac_ex.c ****   hdac->State = HAL_DAC_STATE_READY;
 887:Drivers/STM32F3xx_HAL_Driver/Src/stm32f3xx_hal_dac_ex.c **** 
 888:Drivers/STM32F3xx_HAL_Driver/Src/stm32f3xx_hal_dac_ex.c ****   /* Process unlocked */
 889:Drivers/STM32F3xx_HAL_Driver/Src/stm32f3xx_hal_dac_ex.c ****   __HAL_UNLOCK(hdac);
 890:Drivers/STM32F3xx_HAL_Driver/Src/stm32f3xx_hal_dac_ex.c **** 
 891:Drivers/STM32F3xx_HAL_Driver/Src/stm32f3xx_hal_dac_ex.c ****   /* Return function status */
 892:Drivers/STM32F3xx_HAL_Driver/Src/stm32f3xx_hal_dac_ex.c ****   return HAL_OK;
 893:Drivers/STM32F3xx_HAL_Driver/Src/stm32f3xx_hal_dac_ex.c **** }
 894:Drivers/STM32F3xx_HAL_Driver/Src/stm32f3xx_hal_dac_ex.c **** 
 895:Drivers/STM32F3xx_HAL_Driver/Src/stm32f3xx_hal_dac_ex.c **** /**
 896:Drivers/STM32F3xx_HAL_Driver/Src/stm32f3xx_hal_dac_ex.c ****   * @brief  Enables or disables the selected DAC channel wave generation.
 897:Drivers/STM32F3xx_HAL_Driver/Src/stm32f3xx_hal_dac_ex.c ****   * @param  hdac pointer to a DAC_HandleTypeDef structure that contains
 898:Drivers/STM32F3xx_HAL_Driver/Src/stm32f3xx_hal_dac_ex.c ****   *         the configuration information for the specified DAC.
 899:Drivers/STM32F3xx_HAL_Driver/Src/stm32f3xx_hal_dac_ex.c ****   * @param  Channel The selected DAC channel.
 900:Drivers/STM32F3xx_HAL_Driver/Src/stm32f3xx_hal_dac_ex.c ****   *          This parameter can be one of the following values:
 901:Drivers/STM32F3xx_HAL_Driver/Src/stm32f3xx_hal_dac_ex.c ****   *            @arg DAC_CHANNEL_1: DAC1 Channel1 selected
 902:Drivers/STM32F3xx_HAL_Driver/Src/stm32f3xx_hal_dac_ex.c ****   *            @arg DAC_CHANNEL_2: DAC1 Channel2 selected
 903:Drivers/STM32F3xx_HAL_Driver/Src/stm32f3xx_hal_dac_ex.c ****   * @param  Amplitude Unmask DAC channel LFSR for noise wave generation.
 904:Drivers/STM32F3xx_HAL_Driver/Src/stm32f3xx_hal_dac_ex.c ****   *          This parameter can be one of the following values:
 905:Drivers/STM32F3xx_HAL_Driver/Src/stm32f3xx_hal_dac_ex.c ****   *            @arg DAC_LFSRUNMASK_BIT0: Unmask DAC channel LFSR bit0 for noise wave generation
 906:Drivers/STM32F3xx_HAL_Driver/Src/stm32f3xx_hal_dac_ex.c ****   *            @arg DAC_LFSRUNMASK_BITS1_0: Unmask DAC channel LFSR bit[1:0] for noise wave generat
 907:Drivers/STM32F3xx_HAL_Driver/Src/stm32f3xx_hal_dac_ex.c ****   *            @arg DAC_LFSRUNMASK_BITS2_0: Unmask DAC channel LFSR bit[2:0] for noise wave generat
 908:Drivers/STM32F3xx_HAL_Driver/Src/stm32f3xx_hal_dac_ex.c ****   *            @arg DAC_LFSRUNMASK_BITS3_0: Unmask DAC channel LFSR bit[3:0] for noise wave generat
 909:Drivers/STM32F3xx_HAL_Driver/Src/stm32f3xx_hal_dac_ex.c ****   *            @arg DAC_LFSRUNMASK_BITS4_0: Unmask DAC channel LFSR bit[4:0] for noise wave generat
 910:Drivers/STM32F3xx_HAL_Driver/Src/stm32f3xx_hal_dac_ex.c ****   *            @arg DAC_LFSRUNMASK_BITS5_0: Unmask DAC channel LFSR bit[5:0] for noise wave generat
 911:Drivers/STM32F3xx_HAL_Driver/Src/stm32f3xx_hal_dac_ex.c ****   *            @arg DAC_LFSRUNMASK_BITS6_0: Unmask DAC channel LFSR bit[6:0] for noise wave generat
 912:Drivers/STM32F3xx_HAL_Driver/Src/stm32f3xx_hal_dac_ex.c ****   *            @arg DAC_LFSRUNMASK_BITS7_0: Unmask DAC channel LFSR bit[7:0] for noise wave generat
 913:Drivers/STM32F3xx_HAL_Driver/Src/stm32f3xx_hal_dac_ex.c ****   *            @arg DAC_LFSRUNMASK_BITS8_0: Unmask DAC channel LFSR bit[8:0] for noise wave generat
 914:Drivers/STM32F3xx_HAL_Driver/Src/stm32f3xx_hal_dac_ex.c ****   *            @arg DAC_LFSRUNMASK_BITS9_0: Unmask DAC channel LFSR bit[9:0] for noise wave generat
 915:Drivers/STM32F3xx_HAL_Driver/Src/stm32f3xx_hal_dac_ex.c ****   *            @arg DAC_LFSRUNMASK_BITS10_0: Unmask DAC channel LFSR bit[10:0] for noise wave gener
 916:Drivers/STM32F3xx_HAL_Driver/Src/stm32f3xx_hal_dac_ex.c ****   *            @arg DAC_LFSRUNMASK_BITS11_0: Unmask DAC channel LFSR bit[11:0] for noise wave gener
 917:Drivers/STM32F3xx_HAL_Driver/Src/stm32f3xx_hal_dac_ex.c ****   * @retval HAL status
 918:Drivers/STM32F3xx_HAL_Driver/Src/stm32f3xx_hal_dac_ex.c ****   */
 919:Drivers/STM32F3xx_HAL_Driver/Src/stm32f3xx_hal_dac_ex.c **** HAL_StatusTypeDef HAL_DACEx_NoiseWaveGenerate(DAC_HandleTypeDef* hdac, uint32_t Channel, uint32_t A
 920:Drivers/STM32F3xx_HAL_Driver/Src/stm32f3xx_hal_dac_ex.c **** {
 921:Drivers/STM32F3xx_HAL_Driver/Src/stm32f3xx_hal_dac_ex.c ****   /* Check the parameters */
 922:Drivers/STM32F3xx_HAL_Driver/Src/stm32f3xx_hal_dac_ex.c ****   assert_param(IS_DAC_CHANNEL(Channel));
 923:Drivers/STM32F3xx_HAL_Driver/Src/stm32f3xx_hal_dac_ex.c ****   assert_param(IS_DAC_LFSR_UNMASK_TRIANGLE_AMPLITUDE(Amplitude));
 924:Drivers/STM32F3xx_HAL_Driver/Src/stm32f3xx_hal_dac_ex.c **** 
 925:Drivers/STM32F3xx_HAL_Driver/Src/stm32f3xx_hal_dac_ex.c ****   /* Process locked */
 926:Drivers/STM32F3xx_HAL_Driver/Src/stm32f3xx_hal_dac_ex.c ****   __HAL_LOCK(hdac);
 927:Drivers/STM32F3xx_HAL_Driver/Src/stm32f3xx_hal_dac_ex.c **** 
 928:Drivers/STM32F3xx_HAL_Driver/Src/stm32f3xx_hal_dac_ex.c ****   /* Change DAC state */
 929:Drivers/STM32F3xx_HAL_Driver/Src/stm32f3xx_hal_dac_ex.c ****   hdac->State = HAL_DAC_STATE_BUSY;
 930:Drivers/STM32F3xx_HAL_Driver/Src/stm32f3xx_hal_dac_ex.c **** 
 931:Drivers/STM32F3xx_HAL_Driver/Src/stm32f3xx_hal_dac_ex.c ****   /* Enable the selected wave generation for the selected DAC channel */
 932:Drivers/STM32F3xx_HAL_Driver/Src/stm32f3xx_hal_dac_ex.c ****   MODIFY_REG(hdac->Instance->CR, ((DAC_CR_WAVE1)|(DAC_CR_MAMP1))<<Channel, (DAC_CR_WAVE1_0 | Amplit
 933:Drivers/STM32F3xx_HAL_Driver/Src/stm32f3xx_hal_dac_ex.c ****   
 934:Drivers/STM32F3xx_HAL_Driver/Src/stm32f3xx_hal_dac_ex.c ****   /* Change DAC state */
 935:Drivers/STM32F3xx_HAL_Driver/Src/stm32f3xx_hal_dac_ex.c ****   hdac->State = HAL_DAC_STATE_READY;
 936:Drivers/STM32F3xx_HAL_Driver/Src/stm32f3xx_hal_dac_ex.c **** 
 937:Drivers/STM32F3xx_HAL_Driver/Src/stm32f3xx_hal_dac_ex.c ****   /* Process unlocked */
 938:Drivers/STM32F3xx_HAL_Driver/Src/stm32f3xx_hal_dac_ex.c ****   __HAL_UNLOCK(hdac);
 939:Drivers/STM32F3xx_HAL_Driver/Src/stm32f3xx_hal_dac_ex.c **** 
 940:Drivers/STM32F3xx_HAL_Driver/Src/stm32f3xx_hal_dac_ex.c ****   /* Return function status */
 941:Drivers/STM32F3xx_HAL_Driver/Src/stm32f3xx_hal_dac_ex.c ****   return HAL_OK;
ARM GAS  /var/folders/b1/22c950295gx2kqj80tvj8wqc0000gn/T//ccfZwynw.s 			page 18


 942:Drivers/STM32F3xx_HAL_Driver/Src/stm32f3xx_hal_dac_ex.c **** }
 943:Drivers/STM32F3xx_HAL_Driver/Src/stm32f3xx_hal_dac_ex.c **** 
 944:Drivers/STM32F3xx_HAL_Driver/Src/stm32f3xx_hal_dac_ex.c **** #if  defined(STM32F303xE) || defined(STM32F398xx)                         || \
 945:Drivers/STM32F3xx_HAL_Driver/Src/stm32f3xx_hal_dac_ex.c ****      defined(STM32F303xC) || defined(STM32F358xx)                         || \
 946:Drivers/STM32F3xx_HAL_Driver/Src/stm32f3xx_hal_dac_ex.c ****      defined(STM32F303x8) || defined(STM32F334x8) || defined(STM32F328xx) || \
 947:Drivers/STM32F3xx_HAL_Driver/Src/stm32f3xx_hal_dac_ex.c ****      defined(STM32F373xC) || defined(STM32F378xx)
 948:Drivers/STM32F3xx_HAL_Driver/Src/stm32f3xx_hal_dac_ex.c **** /* DAC channel 2 is available on top of DAC channel 1U */
 949:Drivers/STM32F3xx_HAL_Driver/Src/stm32f3xx_hal_dac_ex.c **** /**
 950:Drivers/STM32F3xx_HAL_Driver/Src/stm32f3xx_hal_dac_ex.c ****   * @brief  Conversion complete callback in non blocking mode for Channel2
 951:Drivers/STM32F3xx_HAL_Driver/Src/stm32f3xx_hal_dac_ex.c ****   * @param  hdac pointer to a DAC_HandleTypeDef structure that contains
 952:Drivers/STM32F3xx_HAL_Driver/Src/stm32f3xx_hal_dac_ex.c ****   *         the configuration information for the specified DAC.
 953:Drivers/STM32F3xx_HAL_Driver/Src/stm32f3xx_hal_dac_ex.c ****   * @retval None
 954:Drivers/STM32F3xx_HAL_Driver/Src/stm32f3xx_hal_dac_ex.c ****   */
 955:Drivers/STM32F3xx_HAL_Driver/Src/stm32f3xx_hal_dac_ex.c **** __weak void HAL_DACEx_ConvCpltCallbackCh2(DAC_HandleTypeDef* hdac)
 956:Drivers/STM32F3xx_HAL_Driver/Src/stm32f3xx_hal_dac_ex.c **** {
 957:Drivers/STM32F3xx_HAL_Driver/Src/stm32f3xx_hal_dac_ex.c ****   /* Prevent unused argument(s) compilation warning */
 958:Drivers/STM32F3xx_HAL_Driver/Src/stm32f3xx_hal_dac_ex.c ****   UNUSED(hdac);
 959:Drivers/STM32F3xx_HAL_Driver/Src/stm32f3xx_hal_dac_ex.c **** 
 960:Drivers/STM32F3xx_HAL_Driver/Src/stm32f3xx_hal_dac_ex.c ****   /* NOTE : This function Should not be modified, when the callback is needed,
 961:Drivers/STM32F3xx_HAL_Driver/Src/stm32f3xx_hal_dac_ex.c ****             the HAL_DACEx_ConvCpltCallbackCh2 could be implemented in the user file
 962:Drivers/STM32F3xx_HAL_Driver/Src/stm32f3xx_hal_dac_ex.c ****    */
 963:Drivers/STM32F3xx_HAL_Driver/Src/stm32f3xx_hal_dac_ex.c **** }
 964:Drivers/STM32F3xx_HAL_Driver/Src/stm32f3xx_hal_dac_ex.c **** 
 965:Drivers/STM32F3xx_HAL_Driver/Src/stm32f3xx_hal_dac_ex.c **** /**
 966:Drivers/STM32F3xx_HAL_Driver/Src/stm32f3xx_hal_dac_ex.c ****   * @brief  Conversion half DMA transfer callback in non blocking mode for Channel2
 967:Drivers/STM32F3xx_HAL_Driver/Src/stm32f3xx_hal_dac_ex.c ****   * @param  hdac pointer to a DAC_HandleTypeDef structure that contains
 968:Drivers/STM32F3xx_HAL_Driver/Src/stm32f3xx_hal_dac_ex.c ****   *         the configuration information for the specified DAC.
 969:Drivers/STM32F3xx_HAL_Driver/Src/stm32f3xx_hal_dac_ex.c ****   * @retval None
 970:Drivers/STM32F3xx_HAL_Driver/Src/stm32f3xx_hal_dac_ex.c ****   */
 971:Drivers/STM32F3xx_HAL_Driver/Src/stm32f3xx_hal_dac_ex.c **** __weak void HAL_DACEx_ConvHalfCpltCallbackCh2(DAC_HandleTypeDef* hdac)
 972:Drivers/STM32F3xx_HAL_Driver/Src/stm32f3xx_hal_dac_ex.c **** {
 973:Drivers/STM32F3xx_HAL_Driver/Src/stm32f3xx_hal_dac_ex.c ****   /* Prevent unused argument(s) compilation warning */
 974:Drivers/STM32F3xx_HAL_Driver/Src/stm32f3xx_hal_dac_ex.c ****   UNUSED(hdac);
 975:Drivers/STM32F3xx_HAL_Driver/Src/stm32f3xx_hal_dac_ex.c **** 
 976:Drivers/STM32F3xx_HAL_Driver/Src/stm32f3xx_hal_dac_ex.c ****   /* NOTE : This function Should not be modified, when the callback is needed,
 977:Drivers/STM32F3xx_HAL_Driver/Src/stm32f3xx_hal_dac_ex.c ****             the HAL_DACEx_ConvHalfCpltCallbackCh2 could be implemented in the user file
 978:Drivers/STM32F3xx_HAL_Driver/Src/stm32f3xx_hal_dac_ex.c ****    */
 979:Drivers/STM32F3xx_HAL_Driver/Src/stm32f3xx_hal_dac_ex.c **** }
 980:Drivers/STM32F3xx_HAL_Driver/Src/stm32f3xx_hal_dac_ex.c **** 
 981:Drivers/STM32F3xx_HAL_Driver/Src/stm32f3xx_hal_dac_ex.c **** /**
 982:Drivers/STM32F3xx_HAL_Driver/Src/stm32f3xx_hal_dac_ex.c ****   * @brief  Error DAC callback for Channel2.
 983:Drivers/STM32F3xx_HAL_Driver/Src/stm32f3xx_hal_dac_ex.c ****   * @param  hdac pointer to a DAC_HandleTypeDef structure that contains
 984:Drivers/STM32F3xx_HAL_Driver/Src/stm32f3xx_hal_dac_ex.c ****   *         the configuration information for the specified DAC.
 985:Drivers/STM32F3xx_HAL_Driver/Src/stm32f3xx_hal_dac_ex.c ****   * @retval None
 986:Drivers/STM32F3xx_HAL_Driver/Src/stm32f3xx_hal_dac_ex.c ****   */
 987:Drivers/STM32F3xx_HAL_Driver/Src/stm32f3xx_hal_dac_ex.c **** __weak void HAL_DACEx_ErrorCallbackCh2(DAC_HandleTypeDef *hdac)
 988:Drivers/STM32F3xx_HAL_Driver/Src/stm32f3xx_hal_dac_ex.c **** {
 989:Drivers/STM32F3xx_HAL_Driver/Src/stm32f3xx_hal_dac_ex.c ****   /* Prevent unused argument(s) compilation warning */
 990:Drivers/STM32F3xx_HAL_Driver/Src/stm32f3xx_hal_dac_ex.c ****   UNUSED(hdac);
 991:Drivers/STM32F3xx_HAL_Driver/Src/stm32f3xx_hal_dac_ex.c **** 
 992:Drivers/STM32F3xx_HAL_Driver/Src/stm32f3xx_hal_dac_ex.c ****   /* NOTE : This function Should not be modified, when the callback is needed,
 993:Drivers/STM32F3xx_HAL_Driver/Src/stm32f3xx_hal_dac_ex.c ****             the HAL_DACEx_ErrorCallbackCh2 could be implemented in the user file
 994:Drivers/STM32F3xx_HAL_Driver/Src/stm32f3xx_hal_dac_ex.c ****    */
 995:Drivers/STM32F3xx_HAL_Driver/Src/stm32f3xx_hal_dac_ex.c **** }
 996:Drivers/STM32F3xx_HAL_Driver/Src/stm32f3xx_hal_dac_ex.c **** 
 997:Drivers/STM32F3xx_HAL_Driver/Src/stm32f3xx_hal_dac_ex.c **** /**
 998:Drivers/STM32F3xx_HAL_Driver/Src/stm32f3xx_hal_dac_ex.c ****   * @brief  DMA underrun DAC callback for channel2.
ARM GAS  /var/folders/b1/22c950295gx2kqj80tvj8wqc0000gn/T//ccfZwynw.s 			page 19


 999:Drivers/STM32F3xx_HAL_Driver/Src/stm32f3xx_hal_dac_ex.c ****   * @param  hdac pointer to a DAC_HandleTypeDef structure that contains
1000:Drivers/STM32F3xx_HAL_Driver/Src/stm32f3xx_hal_dac_ex.c ****   *         the configuration information for the specified DAC.
1001:Drivers/STM32F3xx_HAL_Driver/Src/stm32f3xx_hal_dac_ex.c ****   * @retval None
1002:Drivers/STM32F3xx_HAL_Driver/Src/stm32f3xx_hal_dac_ex.c ****   */
1003:Drivers/STM32F3xx_HAL_Driver/Src/stm32f3xx_hal_dac_ex.c **** __weak void HAL_DACEx_DMAUnderrunCallbackCh2(DAC_HandleTypeDef *hdac)
1004:Drivers/STM32F3xx_HAL_Driver/Src/stm32f3xx_hal_dac_ex.c **** {
1005:Drivers/STM32F3xx_HAL_Driver/Src/stm32f3xx_hal_dac_ex.c ****   /* Prevent unused argument(s) compilation warning */
1006:Drivers/STM32F3xx_HAL_Driver/Src/stm32f3xx_hal_dac_ex.c ****   UNUSED(hdac);
1007:Drivers/STM32F3xx_HAL_Driver/Src/stm32f3xx_hal_dac_ex.c **** 
1008:Drivers/STM32F3xx_HAL_Driver/Src/stm32f3xx_hal_dac_ex.c ****   /* NOTE : This function Should not be modified, when the callback is needed,
1009:Drivers/STM32F3xx_HAL_Driver/Src/stm32f3xx_hal_dac_ex.c ****             the HAL_DACEx_DMAUnderrunCallbackCh2 could be implemented in the user file
1010:Drivers/STM32F3xx_HAL_Driver/Src/stm32f3xx_hal_dac_ex.c ****    */
1011:Drivers/STM32F3xx_HAL_Driver/Src/stm32f3xx_hal_dac_ex.c **** }
1012:Drivers/STM32F3xx_HAL_Driver/Src/stm32f3xx_hal_dac_ex.c **** #endif /* STM32F303xE || STM32F398xx                || */
1013:Drivers/STM32F3xx_HAL_Driver/Src/stm32f3xx_hal_dac_ex.c ****        /* STM32F303xC || STM32F358xx                || */
1014:Drivers/STM32F3xx_HAL_Driver/Src/stm32f3xx_hal_dac_ex.c ****        /* STM32F303x8 || STM32F334x8 || STM32F328xx || */
1015:Drivers/STM32F3xx_HAL_Driver/Src/stm32f3xx_hal_dac_ex.c ****        /* STM32F373xC || STM32F378xx                   */
1016:Drivers/STM32F3xx_HAL_Driver/Src/stm32f3xx_hal_dac_ex.c **** /**
1017:Drivers/STM32F3xx_HAL_Driver/Src/stm32f3xx_hal_dac_ex.c ****   * @}
1018:Drivers/STM32F3xx_HAL_Driver/Src/stm32f3xx_hal_dac_ex.c ****   */
1019:Drivers/STM32F3xx_HAL_Driver/Src/stm32f3xx_hal_dac_ex.c **** 
1020:Drivers/STM32F3xx_HAL_Driver/Src/stm32f3xx_hal_dac_ex.c **** /**
1021:Drivers/STM32F3xx_HAL_Driver/Src/stm32f3xx_hal_dac_ex.c ****   * @}
1022:Drivers/STM32F3xx_HAL_Driver/Src/stm32f3xx_hal_dac_ex.c ****   */
1023:Drivers/STM32F3xx_HAL_Driver/Src/stm32f3xx_hal_dac_ex.c **** 
1024:Drivers/STM32F3xx_HAL_Driver/Src/stm32f3xx_hal_dac_ex.c **** /** @addtogroup DACEx_Private_Functions
1025:Drivers/STM32F3xx_HAL_Driver/Src/stm32f3xx_hal_dac_ex.c ****   * @{
1026:Drivers/STM32F3xx_HAL_Driver/Src/stm32f3xx_hal_dac_ex.c ****   */
1027:Drivers/STM32F3xx_HAL_Driver/Src/stm32f3xx_hal_dac_ex.c ****   
1028:Drivers/STM32F3xx_HAL_Driver/Src/stm32f3xx_hal_dac_ex.c **** /**
1029:Drivers/STM32F3xx_HAL_Driver/Src/stm32f3xx_hal_dac_ex.c ****   * @brief  DMA conversion complete callback. 
1030:Drivers/STM32F3xx_HAL_Driver/Src/stm32f3xx_hal_dac_ex.c ****   * @param  hdma pointer to DMA handle.
1031:Drivers/STM32F3xx_HAL_Driver/Src/stm32f3xx_hal_dac_ex.c ****   * @retval None
1032:Drivers/STM32F3xx_HAL_Driver/Src/stm32f3xx_hal_dac_ex.c ****   */
1033:Drivers/STM32F3xx_HAL_Driver/Src/stm32f3xx_hal_dac_ex.c **** static void DAC_DMAConvCpltCh1(DMA_HandleTypeDef *hdma)   
1034:Drivers/STM32F3xx_HAL_Driver/Src/stm32f3xx_hal_dac_ex.c **** {
1035:Drivers/STM32F3xx_HAL_Driver/Src/stm32f3xx_hal_dac_ex.c ****   DAC_HandleTypeDef* hdac = ( DAC_HandleTypeDef* )((DMA_HandleTypeDef* )hdma)->Parent;
1036:Drivers/STM32F3xx_HAL_Driver/Src/stm32f3xx_hal_dac_ex.c ****   
1037:Drivers/STM32F3xx_HAL_Driver/Src/stm32f3xx_hal_dac_ex.c **** #if (USE_HAL_DAC_REGISTER_CALLBACKS == 1)
1038:Drivers/STM32F3xx_HAL_Driver/Src/stm32f3xx_hal_dac_ex.c ****   hdac->ConvCpltCallbackCh1(hdac);
1039:Drivers/STM32F3xx_HAL_Driver/Src/stm32f3xx_hal_dac_ex.c **** #else
1040:Drivers/STM32F3xx_HAL_Driver/Src/stm32f3xx_hal_dac_ex.c ****   HAL_DAC_ConvCpltCallbackCh1(hdac); 
1041:Drivers/STM32F3xx_HAL_Driver/Src/stm32f3xx_hal_dac_ex.c **** #endif 
1042:Drivers/STM32F3xx_HAL_Driver/Src/stm32f3xx_hal_dac_ex.c ****   
1043:Drivers/STM32F3xx_HAL_Driver/Src/stm32f3xx_hal_dac_ex.c ****   hdac->State= HAL_DAC_STATE_READY;
1044:Drivers/STM32F3xx_HAL_Driver/Src/stm32f3xx_hal_dac_ex.c **** }
1045:Drivers/STM32F3xx_HAL_Driver/Src/stm32f3xx_hal_dac_ex.c **** 
1046:Drivers/STM32F3xx_HAL_Driver/Src/stm32f3xx_hal_dac_ex.c **** /**
1047:Drivers/STM32F3xx_HAL_Driver/Src/stm32f3xx_hal_dac_ex.c ****   * @brief  DMA half transfer complete callback. 
1048:Drivers/STM32F3xx_HAL_Driver/Src/stm32f3xx_hal_dac_ex.c ****   * @param  hdma pointer to DMA handle.
1049:Drivers/STM32F3xx_HAL_Driver/Src/stm32f3xx_hal_dac_ex.c ****   * @retval None
1050:Drivers/STM32F3xx_HAL_Driver/Src/stm32f3xx_hal_dac_ex.c ****   */
1051:Drivers/STM32F3xx_HAL_Driver/Src/stm32f3xx_hal_dac_ex.c **** static void DAC_DMAHalfConvCpltCh1(DMA_HandleTypeDef *hdma)   
1052:Drivers/STM32F3xx_HAL_Driver/Src/stm32f3xx_hal_dac_ex.c **** {
1053:Drivers/STM32F3xx_HAL_Driver/Src/stm32f3xx_hal_dac_ex.c ****     DAC_HandleTypeDef* hdac = ( DAC_HandleTypeDef* )((DMA_HandleTypeDef* )hdma)->Parent;
1054:Drivers/STM32F3xx_HAL_Driver/Src/stm32f3xx_hal_dac_ex.c **** 
1055:Drivers/STM32F3xx_HAL_Driver/Src/stm32f3xx_hal_dac_ex.c ****     /* Conversion complete callback */
ARM GAS  /var/folders/b1/22c950295gx2kqj80tvj8wqc0000gn/T//ccfZwynw.s 			page 20


1056:Drivers/STM32F3xx_HAL_Driver/Src/stm32f3xx_hal_dac_ex.c **** #if (USE_HAL_DAC_REGISTER_CALLBACKS == 1)
1057:Drivers/STM32F3xx_HAL_Driver/Src/stm32f3xx_hal_dac_ex.c ****   hdac->ConvHalfCpltCallbackCh1(hdac);
1058:Drivers/STM32F3xx_HAL_Driver/Src/stm32f3xx_hal_dac_ex.c **** #else
1059:Drivers/STM32F3xx_HAL_Driver/Src/stm32f3xx_hal_dac_ex.c ****     HAL_DAC_ConvHalfCpltCallbackCh1(hdac); 
1060:Drivers/STM32F3xx_HAL_Driver/Src/stm32f3xx_hal_dac_ex.c **** #endif
1061:Drivers/STM32F3xx_HAL_Driver/Src/stm32f3xx_hal_dac_ex.c **** }
1062:Drivers/STM32F3xx_HAL_Driver/Src/stm32f3xx_hal_dac_ex.c **** 
1063:Drivers/STM32F3xx_HAL_Driver/Src/stm32f3xx_hal_dac_ex.c **** /**
1064:Drivers/STM32F3xx_HAL_Driver/Src/stm32f3xx_hal_dac_ex.c ****   * @brief  DMA error callback 
1065:Drivers/STM32F3xx_HAL_Driver/Src/stm32f3xx_hal_dac_ex.c ****   * @param  hdma pointer to DMA handle.
1066:Drivers/STM32F3xx_HAL_Driver/Src/stm32f3xx_hal_dac_ex.c ****   * @retval None
1067:Drivers/STM32F3xx_HAL_Driver/Src/stm32f3xx_hal_dac_ex.c ****   */
1068:Drivers/STM32F3xx_HAL_Driver/Src/stm32f3xx_hal_dac_ex.c **** static void DAC_DMAErrorCh1(DMA_HandleTypeDef *hdma)   
1069:Drivers/STM32F3xx_HAL_Driver/Src/stm32f3xx_hal_dac_ex.c **** {
  30              		.loc 1 1069 1 view -0
  31              		.cfi_startproc
  32              		@ args = 0, pretend = 0, frame = 0
  33              		@ frame_needed = 0, uses_anonymous_args = 0
1070:Drivers/STM32F3xx_HAL_Driver/Src/stm32f3xx_hal_dac_ex.c ****   DAC_HandleTypeDef* hdac = ( DAC_HandleTypeDef* )((DMA_HandleTypeDef* )hdma)->Parent;
  34              		.loc 1 1070 3 view .LVU1
1069:Drivers/STM32F3xx_HAL_Driver/Src/stm32f3xx_hal_dac_ex.c ****   DAC_HandleTypeDef* hdac = ( DAC_HandleTypeDef* )((DMA_HandleTypeDef* )hdma)->Parent;
  35              		.loc 1 1069 1 is_stmt 0 view .LVU2
  36 0000 10B5     		push	{r4, lr}
  37              	.LCFI0:
  38              		.cfi_def_cfa_offset 8
  39              		.cfi_offset 4, -8
  40              		.cfi_offset 14, -4
  41              		.loc 1 1070 22 view .LVU3
  42 0002 446A     		ldr	r4, [r0, #36]
  43              	.LVL1:
1071:Drivers/STM32F3xx_HAL_Driver/Src/stm32f3xx_hal_dac_ex.c ****     
1072:Drivers/STM32F3xx_HAL_Driver/Src/stm32f3xx_hal_dac_ex.c ****   /* Set DAC error code to DMA error */
1073:Drivers/STM32F3xx_HAL_Driver/Src/stm32f3xx_hal_dac_ex.c ****   hdac->ErrorCode |= HAL_DAC_ERROR_DMA;
  44              		.loc 1 1073 3 is_stmt 1 view .LVU4
  45              		.loc 1 1073 19 is_stmt 0 view .LVU5
  46 0004 2369     		ldr	r3, [r4, #16]
  47 0006 43F00403 		orr	r3, r3, #4
  48 000a 2361     		str	r3, [r4, #16]
1074:Drivers/STM32F3xx_HAL_Driver/Src/stm32f3xx_hal_dac_ex.c ****     
1075:Drivers/STM32F3xx_HAL_Driver/Src/stm32f3xx_hal_dac_ex.c **** #if (USE_HAL_DAC_REGISTER_CALLBACKS == 1)
1076:Drivers/STM32F3xx_HAL_Driver/Src/stm32f3xx_hal_dac_ex.c ****   hdac->ErrorCallbackCh1(hdac);
1077:Drivers/STM32F3xx_HAL_Driver/Src/stm32f3xx_hal_dac_ex.c **** #else  
1078:Drivers/STM32F3xx_HAL_Driver/Src/stm32f3xx_hal_dac_ex.c ****   HAL_DAC_ErrorCallbackCh1(hdac); 
  49              		.loc 1 1078 3 is_stmt 1 view .LVU6
  50 000c 2046     		mov	r0, r4
  51              	.LVL2:
  52              		.loc 1 1078 3 is_stmt 0 view .LVU7
  53 000e FFF7FEFF 		bl	HAL_DAC_ErrorCallbackCh1
  54              	.LVL3:
1079:Drivers/STM32F3xx_HAL_Driver/Src/stm32f3xx_hal_dac_ex.c **** #endif
1080:Drivers/STM32F3xx_HAL_Driver/Src/stm32f3xx_hal_dac_ex.c ****     
1081:Drivers/STM32F3xx_HAL_Driver/Src/stm32f3xx_hal_dac_ex.c ****   hdac->State= HAL_DAC_STATE_READY;
  55              		.loc 1 1081 3 is_stmt 1 view .LVU8
  56              		.loc 1 1081 14 is_stmt 0 view .LVU9
  57 0012 0123     		movs	r3, #1
  58 0014 2371     		strb	r3, [r4, #4]
1082:Drivers/STM32F3xx_HAL_Driver/Src/stm32f3xx_hal_dac_ex.c **** }
ARM GAS  /var/folders/b1/22c950295gx2kqj80tvj8wqc0000gn/T//ccfZwynw.s 			page 21


  59              		.loc 1 1082 1 view .LVU10
  60 0016 10BD     		pop	{r4, pc}
  61              		.loc 1 1082 1 view .LVU11
  62              		.cfi_endproc
  63              	.LFE139:
  65              		.section	.text.DAC_DMAHalfConvCpltCh1,"ax",%progbits
  66              		.align	1
  67              		.p2align 2,,3
  68              		.syntax unified
  69              		.thumb
  70              		.thumb_func
  72              	DAC_DMAHalfConvCpltCh1:
  73              	.LVL4:
  74              	.LFB138:
1052:Drivers/STM32F3xx_HAL_Driver/Src/stm32f3xx_hal_dac_ex.c ****     DAC_HandleTypeDef* hdac = ( DAC_HandleTypeDef* )((DMA_HandleTypeDef* )hdma)->Parent;
  75              		.loc 1 1052 1 is_stmt 1 view -0
  76              		.cfi_startproc
  77              		@ args = 0, pretend = 0, frame = 0
  78              		@ frame_needed = 0, uses_anonymous_args = 0
  79              		@ link register save eliminated.
1053:Drivers/STM32F3xx_HAL_Driver/Src/stm32f3xx_hal_dac_ex.c **** 
  80              		.loc 1 1053 5 view .LVU13
1059:Drivers/STM32F3xx_HAL_Driver/Src/stm32f3xx_hal_dac_ex.c **** #endif
  81              		.loc 1 1059 5 view .LVU14
  82 0000 406A     		ldr	r0, [r0, #36]
  83              	.LVL5:
1059:Drivers/STM32F3xx_HAL_Driver/Src/stm32f3xx_hal_dac_ex.c **** #endif
  84              		.loc 1 1059 5 is_stmt 0 view .LVU15
  85 0002 FFF7FEBF 		b	HAL_DAC_ConvHalfCpltCallbackCh1
  86              	.LVL6:
1059:Drivers/STM32F3xx_HAL_Driver/Src/stm32f3xx_hal_dac_ex.c **** #endif
  87              		.loc 1 1059 5 view .LVU16
  88              		.cfi_endproc
  89              	.LFE138:
  91 0006 00BF     		.section	.text.DAC_DMAConvCpltCh1,"ax",%progbits
  92              		.align	1
  93              		.p2align 2,,3
  94              		.syntax unified
  95              		.thumb
  96              		.thumb_func
  98              	DAC_DMAConvCpltCh1:
  99              	.LVL7:
 100              	.LFB137:
1034:Drivers/STM32F3xx_HAL_Driver/Src/stm32f3xx_hal_dac_ex.c ****   DAC_HandleTypeDef* hdac = ( DAC_HandleTypeDef* )((DMA_HandleTypeDef* )hdma)->Parent;
 101              		.loc 1 1034 1 is_stmt 1 view -0
 102              		.cfi_startproc
 103              		@ args = 0, pretend = 0, frame = 0
 104              		@ frame_needed = 0, uses_anonymous_args = 0
1035:Drivers/STM32F3xx_HAL_Driver/Src/stm32f3xx_hal_dac_ex.c ****   
 105              		.loc 1 1035 3 view .LVU18
1034:Drivers/STM32F3xx_HAL_Driver/Src/stm32f3xx_hal_dac_ex.c ****   DAC_HandleTypeDef* hdac = ( DAC_HandleTypeDef* )((DMA_HandleTypeDef* )hdma)->Parent;
 106              		.loc 1 1034 1 is_stmt 0 view .LVU19
 107 0000 10B5     		push	{r4, lr}
 108              	.LCFI1:
 109              		.cfi_def_cfa_offset 8
 110              		.cfi_offset 4, -8
 111              		.cfi_offset 14, -4
ARM GAS  /var/folders/b1/22c950295gx2kqj80tvj8wqc0000gn/T//ccfZwynw.s 			page 22


1035:Drivers/STM32F3xx_HAL_Driver/Src/stm32f3xx_hal_dac_ex.c ****   
 112              		.loc 1 1035 22 view .LVU20
 113 0002 446A     		ldr	r4, [r0, #36]
 114              	.LVL8:
1040:Drivers/STM32F3xx_HAL_Driver/Src/stm32f3xx_hal_dac_ex.c **** #endif 
 115              		.loc 1 1040 3 is_stmt 1 view .LVU21
 116 0004 2046     		mov	r0, r4
 117              	.LVL9:
1040:Drivers/STM32F3xx_HAL_Driver/Src/stm32f3xx_hal_dac_ex.c **** #endif 
 118              		.loc 1 1040 3 is_stmt 0 view .LVU22
 119 0006 FFF7FEFF 		bl	HAL_DAC_ConvCpltCallbackCh1
 120              	.LVL10:
1043:Drivers/STM32F3xx_HAL_Driver/Src/stm32f3xx_hal_dac_ex.c **** }
 121              		.loc 1 1043 3 is_stmt 1 view .LVU23
1043:Drivers/STM32F3xx_HAL_Driver/Src/stm32f3xx_hal_dac_ex.c **** }
 122              		.loc 1 1043 14 is_stmt 0 view .LVU24
 123 000a 0123     		movs	r3, #1
 124 000c 2371     		strb	r3, [r4, #4]
1044:Drivers/STM32F3xx_HAL_Driver/Src/stm32f3xx_hal_dac_ex.c **** 
 125              		.loc 1 1044 1 view .LVU25
 126 000e 10BD     		pop	{r4, pc}
1044:Drivers/STM32F3xx_HAL_Driver/Src/stm32f3xx_hal_dac_ex.c **** 
 127              		.loc 1 1044 1 view .LVU26
 128              		.cfi_endproc
 129              	.LFE137:
 131              		.section	.text.HAL_DAC_SetValue,"ax",%progbits
 132              		.align	1
 133              		.p2align 2,,3
 134              		.global	HAL_DAC_SetValue
 135              		.syntax unified
 136              		.thumb
 137              		.thumb_func
 139              	HAL_DAC_SetValue:
 140              	.LVL11:
 141              	.LFB123:
 113:Drivers/STM32F3xx_HAL_Driver/Src/stm32f3xx_hal_dac_ex.c ****   __IO uint32_t tmp = 0U;
 142              		.loc 1 113 1 is_stmt 1 view -0
 143              		.cfi_startproc
 144              		@ args = 0, pretend = 0, frame = 8
 145              		@ frame_needed = 0, uses_anonymous_args = 0
 146              		@ link register save eliminated.
 114:Drivers/STM32F3xx_HAL_Driver/Src/stm32f3xx_hal_dac_ex.c ****   
 147              		.loc 1 114 3 view .LVU28
 113:Drivers/STM32F3xx_HAL_Driver/Src/stm32f3xx_hal_dac_ex.c ****   __IO uint32_t tmp = 0U;
 148              		.loc 1 113 1 is_stmt 0 view .LVU29
 149 0000 10B4     		push	{r4}
 150              	.LCFI2:
 151              		.cfi_def_cfa_offset 4
 152              		.cfi_offset 4, -4
 153 0002 83B0     		sub	sp, sp, #12
 154              	.LCFI3:
 155              		.cfi_def_cfa_offset 16
 121:Drivers/STM32F3xx_HAL_Driver/Src/stm32f3xx_hal_dac_ex.c **** 
 156              		.loc 1 121 9 view .LVU30
 157 0004 0068     		ldr	r0, [r0]
 158              	.LVL12:
 114:Drivers/STM32F3xx_HAL_Driver/Src/stm32f3xx_hal_dac_ex.c ****   
ARM GAS  /var/folders/b1/22c950295gx2kqj80tvj8wqc0000gn/T//ccfZwynw.s 			page 23


 159              		.loc 1 114 17 view .LVU31
 160 0006 0024     		movs	r4, #0
 161 0008 0194     		str	r4, [sp, #4]
 117:Drivers/STM32F3xx_HAL_Driver/Src/stm32f3xx_hal_dac_ex.c ****   assert_param(IS_DAC_ALIGN(Alignment));
 162              		.loc 1 117 3 is_stmt 1 view .LVU32
 118:Drivers/STM32F3xx_HAL_Driver/Src/stm32f3xx_hal_dac_ex.c ****   assert_param(IS_DAC_DATA(Data));
 163              		.loc 1 118 3 view .LVU33
 119:Drivers/STM32F3xx_HAL_Driver/Src/stm32f3xx_hal_dac_ex.c ****    
 164              		.loc 1 119 3 view .LVU34
 121:Drivers/STM32F3xx_HAL_Driver/Src/stm32f3xx_hal_dac_ex.c **** 
 165              		.loc 1 121 3 view .LVU35
 121:Drivers/STM32F3xx_HAL_Driver/Src/stm32f3xx_hal_dac_ex.c **** 
 166              		.loc 1 121 7 is_stmt 0 view .LVU36
 167 000a 0190     		str	r0, [sp, #4]
 126:Drivers/STM32F3xx_HAL_Driver/Src/stm32f3xx_hal_dac_ex.c ****   {
 168              		.loc 1 126 3 is_stmt 1 view .LVU37
 126:Drivers/STM32F3xx_HAL_Driver/Src/stm32f3xx_hal_dac_ex.c ****   {
 169              		.loc 1 126 5 is_stmt 0 view .LVU38
 170 000c 51B9     		cbnz	r1, .L8
 128:Drivers/STM32F3xx_HAL_Driver/Src/stm32f3xx_hal_dac_ex.c ****   }
 171              		.loc 1 128 5 is_stmt 1 view .LVU39
 128:Drivers/STM32F3xx_HAL_Driver/Src/stm32f3xx_hal_dac_ex.c ****   }
 172              		.loc 1 128 9 is_stmt 0 view .LVU40
 173 000e 0199     		ldr	r1, [sp, #4]
 174              	.LVL13:
 128:Drivers/STM32F3xx_HAL_Driver/Src/stm32f3xx_hal_dac_ex.c ****   }
 175              		.loc 1 128 9 view .LVU41
 176 0010 0831     		adds	r1, r1, #8
 177 0012 0A44     		add	r2, r2, r1
 178              	.LVL14:
 128:Drivers/STM32F3xx_HAL_Driver/Src/stm32f3xx_hal_dac_ex.c ****   }
 179              		.loc 1 128 9 view .LVU42
 180 0014 0192     		str	r2, [sp, #4]
 181              	.L9:
 144:Drivers/STM32F3xx_HAL_Driver/Src/stm32f3xx_hal_dac_ex.c ****   
 182              		.loc 1 144 3 is_stmt 1 view .LVU43
 144:Drivers/STM32F3xx_HAL_Driver/Src/stm32f3xx_hal_dac_ex.c ****   
 183              		.loc 1 144 4 is_stmt 0 view .LVU44
 184 0016 019A     		ldr	r2, [sp, #4]
 148:Drivers/STM32F3xx_HAL_Driver/Src/stm32f3xx_hal_dac_ex.c **** 
 185              		.loc 1 148 1 view .LVU45
 186 0018 0020     		movs	r0, #0
 144:Drivers/STM32F3xx_HAL_Driver/Src/stm32f3xx_hal_dac_ex.c ****   
 187              		.loc 1 144 26 view .LVU46
 188 001a 1360     		str	r3, [r2]
 147:Drivers/STM32F3xx_HAL_Driver/Src/stm32f3xx_hal_dac_ex.c **** }
 189              		.loc 1 147 3 is_stmt 1 view .LVU47
 148:Drivers/STM32F3xx_HAL_Driver/Src/stm32f3xx_hal_dac_ex.c **** 
 190              		.loc 1 148 1 is_stmt 0 view .LVU48
 191 001c 03B0     		add	sp, sp, #12
 192              	.LCFI4:
 193              		.cfi_remember_state
 194              		.cfi_def_cfa_offset 4
 195              		@ sp needed
 196 001e 5DF8044B 		ldr	r4, [sp], #4
 197              	.LCFI5:
 198              		.cfi_restore 4
ARM GAS  /var/folders/b1/22c950295gx2kqj80tvj8wqc0000gn/T//ccfZwynw.s 			page 24


 199              		.cfi_def_cfa_offset 0
 200 0022 7047     		bx	lr
 201              	.LVL15:
 202              	.L8:
 203              	.LCFI6:
 204              		.cfi_restore_state
 136:Drivers/STM32F3xx_HAL_Driver/Src/stm32f3xx_hal_dac_ex.c ****   }
 205              		.loc 1 136 5 is_stmt 1 view .LVU49
 136:Drivers/STM32F3xx_HAL_Driver/Src/stm32f3xx_hal_dac_ex.c ****   }
 206              		.loc 1 136 9 is_stmt 0 view .LVU50
 207 0024 0199     		ldr	r1, [sp, #4]
 208              	.LVL16:
 136:Drivers/STM32F3xx_HAL_Driver/Src/stm32f3xx_hal_dac_ex.c ****   }
 209              		.loc 1 136 9 view .LVU51
 210 0026 1431     		adds	r1, r1, #20
 211 0028 0A44     		add	r2, r2, r1
 212              	.LVL17:
 136:Drivers/STM32F3xx_HAL_Driver/Src/stm32f3xx_hal_dac_ex.c ****   }
 213              		.loc 1 136 9 view .LVU52
 214 002a 0192     		str	r2, [sp, #4]
 215 002c F3E7     		b	.L9
 216              		.cfi_endproc
 217              	.LFE123:
 219              		.section	.text.HAL_DACEx_DualSetValue,"ax",%progbits
 220              		.align	1
 221              		.p2align 2,,3
 222              		.global	HAL_DACEx_DualSetValue
 223              		.syntax unified
 224              		.thumb
 225              		.thumb_func
 227              	HAL_DACEx_DualSetValue:
 228              	.LVL18:
 229              	.LFB124:
 171:Drivers/STM32F3xx_HAL_Driver/Src/stm32f3xx_hal_dac_ex.c ****   uint32_t data = 0U, tmp = 0U;
 230              		.loc 1 171 1 is_stmt 1 view -0
 231              		.cfi_startproc
 232              		@ args = 0, pretend = 0, frame = 0
 233              		@ frame_needed = 0, uses_anonymous_args = 0
 234              		@ link register save eliminated.
 172:Drivers/STM32F3xx_HAL_Driver/Src/stm32f3xx_hal_dac_ex.c **** 
 235              		.loc 1 172 3 view .LVU54
 175:Drivers/STM32F3xx_HAL_Driver/Src/stm32f3xx_hal_dac_ex.c ****   assert_param(IS_DAC_DATA(Data1));
 236              		.loc 1 175 3 view .LVU55
 176:Drivers/STM32F3xx_HAL_Driver/Src/stm32f3xx_hal_dac_ex.c ****   assert_param(IS_DAC_DATA(Data2));
 237              		.loc 1 176 3 view .LVU56
 177:Drivers/STM32F3xx_HAL_Driver/Src/stm32f3xx_hal_dac_ex.c **** 
 238              		.loc 1 177 3 view .LVU57
 180:Drivers/STM32F3xx_HAL_Driver/Src/stm32f3xx_hal_dac_ex.c ****   {
 239              		.loc 1 180 3 view .LVU58
 182:Drivers/STM32F3xx_HAL_Driver/Src/stm32f3xx_hal_dac_ex.c ****   }
 240              		.loc 1 182 5 view .LVU59
 180:Drivers/STM32F3xx_HAL_Driver/Src/stm32f3xx_hal_dac_ex.c ****   {
 241              		.loc 1 180 6 is_stmt 0 view .LVU60
 242 0000 0829     		cmp	r1, #8
 182:Drivers/STM32F3xx_HAL_Driver/Src/stm32f3xx_hal_dac_ex.c ****   }
 243              		.loc 1 182 10 view .LVU61
 244 0002 0CBF     		ite	eq
ARM GAS  /var/folders/b1/22c950295gx2kqj80tvj8wqc0000gn/T//ccfZwynw.s 			page 25


 245 0004 42EA0323 		orreq	r3, r2, r3, lsl #8
 246              	.LVL19:
 186:Drivers/STM32F3xx_HAL_Driver/Src/stm32f3xx_hal_dac_ex.c ****   }
 247              		.loc 1 186 5 is_stmt 1 view .LVU62
 186:Drivers/STM32F3xx_HAL_Driver/Src/stm32f3xx_hal_dac_ex.c ****   }
 248              		.loc 1 186 10 is_stmt 0 view .LVU63
 249 0008 42EA0343 		orrne	r3, r2, r3, lsl #16
 250              	.LVL20:
 189:Drivers/STM32F3xx_HAL_Driver/Src/stm32f3xx_hal_dac_ex.c ****     tmp += DAC_DHR12RD_ALIGNMENT(Alignment);
 251              		.loc 1 189 5 is_stmt 1 view .LVU64
 190:Drivers/STM32F3xx_HAL_Driver/Src/stm32f3xx_hal_dac_ex.c **** 
 252              		.loc 1 190 5 view .LVU65
 253 000c 0268     		ldr	r2, [r0]
 254              	.LVL21:
 190:Drivers/STM32F3xx_HAL_Driver/Src/stm32f3xx_hal_dac_ex.c **** 
 255              		.loc 1 190 5 is_stmt 0 view .LVU66
 256 000e 2032     		adds	r2, r2, #32
 257              	.LVL22:
 193:Drivers/STM32F3xx_HAL_Driver/Src/stm32f3xx_hal_dac_ex.c **** 
 258              		.loc 1 193 3 is_stmt 1 view .LVU67
 197:Drivers/STM32F3xx_HAL_Driver/Src/stm32f3xx_hal_dac_ex.c **** #endif /* STM32F303xE || STM32F398xx                || */
 259              		.loc 1 197 1 is_stmt 0 view .LVU68
 260 0010 0020     		movs	r0, #0
 261              	.LVL23:
 193:Drivers/STM32F3xx_HAL_Driver/Src/stm32f3xx_hal_dac_ex.c **** 
 262              		.loc 1 193 25 view .LVU69
 263 0012 5350     		str	r3, [r2, r1]
 196:Drivers/STM32F3xx_HAL_Driver/Src/stm32f3xx_hal_dac_ex.c **** }
 264              		.loc 1 196 3 is_stmt 1 view .LVU70
 197:Drivers/STM32F3xx_HAL_Driver/Src/stm32f3xx_hal_dac_ex.c **** #endif /* STM32F303xE || STM32F398xx                || */
 265              		.loc 1 197 1 is_stmt 0 view .LVU71
 266 0014 7047     		bx	lr
 267              		.cfi_endproc
 268              	.LFE124:
 270 0016 00BF     		.section	.text.HAL_DAC_Start,"ax",%progbits
 271              		.align	1
 272              		.p2align 2,,3
 273              		.global	HAL_DAC_Start
 274              		.syntax unified
 275              		.thumb
 276              		.thumb_func
 278              	HAL_DAC_Start:
 279              	.LVL24:
 280              	.LFB125:
 243:Drivers/STM32F3xx_HAL_Driver/Src/stm32f3xx_hal_dac_ex.c ****   /* Check the parameters */
 281              		.loc 1 243 1 is_stmt 1 view -0
 282              		.cfi_startproc
 283              		@ args = 0, pretend = 0, frame = 0
 284              		@ frame_needed = 0, uses_anonymous_args = 0
 285              		@ link register save eliminated.
 245:Drivers/STM32F3xx_HAL_Driver/Src/stm32f3xx_hal_dac_ex.c ****   
 286              		.loc 1 245 3 view .LVU73
 248:Drivers/STM32F3xx_HAL_Driver/Src/stm32f3xx_hal_dac_ex.c ****   
 287              		.loc 1 248 3 view .LVU74
 248:Drivers/STM32F3xx_HAL_Driver/Src/stm32f3xx_hal_dac_ex.c ****   
 288              		.loc 1 248 3 view .LVU75
 289 0000 4379     		ldrb	r3, [r0, #5]	@ zero_extendqisi2
ARM GAS  /var/folders/b1/22c950295gx2kqj80tvj8wqc0000gn/T//ccfZwynw.s 			page 26


 290 0002 012B     		cmp	r3, #1
 291 0004 24D0     		beq	.L18
 248:Drivers/STM32F3xx_HAL_Driver/Src/stm32f3xx_hal_dac_ex.c ****   
 292              		.loc 1 248 3 discriminator 2 view .LVU76
 248:Drivers/STM32F3xx_HAL_Driver/Src/stm32f3xx_hal_dac_ex.c ****   
 293              		.loc 1 248 3 discriminator 2 view .LVU77
 251:Drivers/STM32F3xx_HAL_Driver/Src/stm32f3xx_hal_dac_ex.c ****   
 294              		.loc 1 251 3 discriminator 2 view .LVU78
 254:Drivers/STM32F3xx_HAL_Driver/Src/stm32f3xx_hal_dac_ex.c ****   
 295              		.loc 1 254 3 is_stmt 0 discriminator 2 view .LVU79
 296 0006 0268     		ldr	r2, [r0]
 251:Drivers/STM32F3xx_HAL_Driver/Src/stm32f3xx_hal_dac_ex.c ****   
 297              		.loc 1 251 15 discriminator 2 view .LVU80
 298 0008 0223     		movs	r3, #2
 243:Drivers/STM32F3xx_HAL_Driver/Src/stm32f3xx_hal_dac_ex.c ****   /* Check the parameters */
 299              		.loc 1 243 1 discriminator 2 view .LVU81
 300 000a 10B4     		push	{r4}
 301              	.LCFI7:
 302              		.cfi_def_cfa_offset 4
 303              		.cfi_offset 4, -4
 251:Drivers/STM32F3xx_HAL_Driver/Src/stm32f3xx_hal_dac_ex.c ****   
 304              		.loc 1 251 15 discriminator 2 view .LVU82
 305 000c 0371     		strb	r3, [r0, #4]
 254:Drivers/STM32F3xx_HAL_Driver/Src/stm32f3xx_hal_dac_ex.c ****   
 306              		.loc 1 254 3 is_stmt 1 discriminator 2 view .LVU83
 307 000e 1468     		ldr	r4, [r2]
 308 0010 0123     		movs	r3, #1
 309 0012 8B40     		lsls	r3, r3, r1
 310 0014 2343     		orrs	r3, r3, r4
 311 0016 1360     		str	r3, [r2]
 256:Drivers/STM32F3xx_HAL_Driver/Src/stm32f3xx_hal_dac_ex.c ****   {
 312              		.loc 1 256 3 discriminator 2 view .LVU84
 259:Drivers/STM32F3xx_HAL_Driver/Src/stm32f3xx_hal_dac_ex.c ****     {
 313              		.loc 1 259 23 is_stmt 0 discriminator 2 view .LVU85
 314 0018 1368     		ldr	r3, [r2]
 256:Drivers/STM32F3xx_HAL_Driver/Src/stm32f3xx_hal_dac_ex.c ****   {
 315              		.loc 1 256 5 discriminator 2 view .LVU86
 316 001a 79B9     		cbnz	r1, .L16
 259:Drivers/STM32F3xx_HAL_Driver/Src/stm32f3xx_hal_dac_ex.c ****     {
 317              		.loc 1 259 5 is_stmt 1 view .LVU87
 259:Drivers/STM32F3xx_HAL_Driver/Src/stm32f3xx_hal_dac_ex.c ****     {
 318              		.loc 1 259 28 is_stmt 0 view .LVU88
 319 001c 03F03C03 		and	r3, r3, #60
 259:Drivers/STM32F3xx_HAL_Driver/Src/stm32f3xx_hal_dac_ex.c ****     {
 320              		.loc 1 259 7 view .LVU89
 321 0020 3C2B     		cmp	r3, #60
 322 0022 03D1     		bne	.L17
 262:Drivers/STM32F3xx_HAL_Driver/Src/stm32f3xx_hal_dac_ex.c ****     }
 323              		.loc 1 262 7 is_stmt 1 view .LVU90
 324 0024 5368     		ldr	r3, [r2, #4]
 325 0026 43F00103 		orr	r3, r3, #1
 326 002a 5360     		str	r3, [r2, #4]
 327              	.L17:
 276:Drivers/STM32F3xx_HAL_Driver/Src/stm32f3xx_hal_dac_ex.c ****   
 328              		.loc 1 276 3 view .LVU91
 279:Drivers/STM32F3xx_HAL_Driver/Src/stm32f3xx_hal_dac_ex.c ****     
 329              		.loc 1 279 3 is_stmt 0 view .LVU92
ARM GAS  /var/folders/b1/22c950295gx2kqj80tvj8wqc0000gn/T//ccfZwynw.s 			page 27


 330 002c 0023     		movs	r3, #0
 276:Drivers/STM32F3xx_HAL_Driver/Src/stm32f3xx_hal_dac_ex.c ****   
 331              		.loc 1 276 15 view .LVU93
 332 002e 0122     		movs	r2, #1
 333 0030 0271     		strb	r2, [r0, #4]
 279:Drivers/STM32F3xx_HAL_Driver/Src/stm32f3xx_hal_dac_ex.c ****     
 334              		.loc 1 279 3 is_stmt 1 view .LVU94
 279:Drivers/STM32F3xx_HAL_Driver/Src/stm32f3xx_hal_dac_ex.c ****     
 335              		.loc 1 279 3 view .LVU95
 336 0032 4371     		strb	r3, [r0, #5]
 279:Drivers/STM32F3xx_HAL_Driver/Src/stm32f3xx_hal_dac_ex.c ****     
 337              		.loc 1 279 3 view .LVU96
 282:Drivers/STM32F3xx_HAL_Driver/Src/stm32f3xx_hal_dac_ex.c **** }
 338              		.loc 1 282 3 view .LVU97
 283:Drivers/STM32F3xx_HAL_Driver/Src/stm32f3xx_hal_dac_ex.c **** #endif /* STM32F303xE || STM32F398xx                || */
 339              		.loc 1 283 1 is_stmt 0 view .LVU98
 340 0034 5DF8044B 		ldr	r4, [sp], #4
 341              	.LCFI8:
 342              		.cfi_remember_state
 343              		.cfi_restore 4
 344              		.cfi_def_cfa_offset 0
 282:Drivers/STM32F3xx_HAL_Driver/Src/stm32f3xx_hal_dac_ex.c **** }
 345              		.loc 1 282 10 view .LVU99
 346 0038 1846     		mov	r0, r3
 347              	.LVL25:
 283:Drivers/STM32F3xx_HAL_Driver/Src/stm32f3xx_hal_dac_ex.c **** #endif /* STM32F303xE || STM32F398xx                || */
 348              		.loc 1 283 1 view .LVU100
 349 003a 7047     		bx	lr
 350              	.LVL26:
 351              	.L16:
 352              	.LCFI9:
 353              		.cfi_restore_state
 268:Drivers/STM32F3xx_HAL_Driver/Src/stm32f3xx_hal_dac_ex.c ****     {
 354              		.loc 1 268 5 is_stmt 1 view .LVU101
 268:Drivers/STM32F3xx_HAL_Driver/Src/stm32f3xx_hal_dac_ex.c ****     {
 355              		.loc 1 268 28 is_stmt 0 view .LVU102
 356 003c 03F47013 		and	r3, r3, #3932160
 268:Drivers/STM32F3xx_HAL_Driver/Src/stm32f3xx_hal_dac_ex.c ****     {
 357              		.loc 1 268 7 view .LVU103
 358 0040 B3F5701F 		cmp	r3, #3932160
 359 0044 F2D1     		bne	.L17
 271:Drivers/STM32F3xx_HAL_Driver/Src/stm32f3xx_hal_dac_ex.c ****     }
 360              		.loc 1 271 7 is_stmt 1 view .LVU104
 361 0046 5368     		ldr	r3, [r2, #4]
 362 0048 43F00203 		orr	r3, r3, #2
 363 004c 5360     		str	r3, [r2, #4]
 364 004e EDE7     		b	.L17
 365              	.L18:
 366              	.LCFI10:
 367              		.cfi_def_cfa_offset 0
 368              		.cfi_restore 4
 248:Drivers/STM32F3xx_HAL_Driver/Src/stm32f3xx_hal_dac_ex.c ****   
 369              		.loc 1 248 3 is_stmt 0 view .LVU105
 370 0050 0220     		movs	r0, #2
 371              	.LVL27:
 283:Drivers/STM32F3xx_HAL_Driver/Src/stm32f3xx_hal_dac_ex.c **** #endif /* STM32F303xE || STM32F398xx                || */
 372              		.loc 1 283 1 view .LVU106
ARM GAS  /var/folders/b1/22c950295gx2kqj80tvj8wqc0000gn/T//ccfZwynw.s 			page 28


 373 0052 7047     		bx	lr
 374              		.cfi_endproc
 375              	.LFE125:
 377              		.section	.text.HAL_DAC_Start_DMA,"ax",%progbits
 378              		.align	1
 379              		.p2align 2,,3
 380              		.global	HAL_DAC_Start_DMA
 381              		.syntax unified
 382              		.thumb
 383              		.thumb_func
 385              	HAL_DAC_Start_DMA:
 386              	.LVL28:
 387              	.LFB126:
 361:Drivers/STM32F3xx_HAL_Driver/Src/stm32f3xx_hal_dac_ex.c ****   uint32_t tmpreg = 0U;
 388              		.loc 1 361 1 is_stmt 1 view -0
 389              		.cfi_startproc
 390              		@ args = 4, pretend = 0, frame = 0
 391              		@ frame_needed = 0, uses_anonymous_args = 0
 362:Drivers/STM32F3xx_HAL_Driver/Src/stm32f3xx_hal_dac_ex.c ****     
 392              		.loc 1 362 3 view .LVU108
 365:Drivers/STM32F3xx_HAL_Driver/Src/stm32f3xx_hal_dac_ex.c ****   assert_param(IS_DAC_ALIGN(Alignment));
 393              		.loc 1 365 3 view .LVU109
 366:Drivers/STM32F3xx_HAL_Driver/Src/stm32f3xx_hal_dac_ex.c ****   
 394              		.loc 1 366 3 view .LVU110
 369:Drivers/STM32F3xx_HAL_Driver/Src/stm32f3xx_hal_dac_ex.c ****   
 395              		.loc 1 369 3 view .LVU111
 369:Drivers/STM32F3xx_HAL_Driver/Src/stm32f3xx_hal_dac_ex.c ****   
 396              		.loc 1 369 3 view .LVU112
 361:Drivers/STM32F3xx_HAL_Driver/Src/stm32f3xx_hal_dac_ex.c ****   uint32_t tmpreg = 0U;
 397              		.loc 1 361 1 is_stmt 0 view .LVU113
 398 0000 F8B5     		push	{r3, r4, r5, r6, r7, lr}
 399              	.LCFI11:
 400              		.cfi_def_cfa_offset 24
 401              		.cfi_offset 3, -24
 402              		.cfi_offset 4, -20
 403              		.cfi_offset 5, -16
 404              		.cfi_offset 6, -12
 405              		.cfi_offset 7, -8
 406              		.cfi_offset 14, -4
 361:Drivers/STM32F3xx_HAL_Driver/Src/stm32f3xx_hal_dac_ex.c ****   uint32_t tmpreg = 0U;
 407              		.loc 1 361 1 view .LVU114
 408 0002 0446     		mov	r4, r0
 369:Drivers/STM32F3xx_HAL_Driver/Src/stm32f3xx_hal_dac_ex.c ****   
 409              		.loc 1 369 3 view .LVU115
 410 0004 4079     		ldrb	r0, [r0, #5]	@ zero_extendqisi2
 411              	.LVL29:
 361:Drivers/STM32F3xx_HAL_Driver/Src/stm32f3xx_hal_dac_ex.c ****   uint32_t tmpreg = 0U;
 412              		.loc 1 361 1 view .LVU116
 413 0006 069F     		ldr	r7, [sp, #24]
 369:Drivers/STM32F3xx_HAL_Driver/Src/stm32f3xx_hal_dac_ex.c ****   
 414              		.loc 1 369 3 view .LVU117
 415 0008 0128     		cmp	r0, #1
 416 000a 4CD0     		beq	.L35
 369:Drivers/STM32F3xx_HAL_Driver/Src/stm32f3xx_hal_dac_ex.c ****   
 417              		.loc 1 369 3 is_stmt 1 discriminator 2 view .LVU118
 418 000c 0D46     		mov	r5, r1
 419 000e 1146     		mov	r1, r2
ARM GAS  /var/folders/b1/22c950295gx2kqj80tvj8wqc0000gn/T//ccfZwynw.s 			page 29


 420              	.LVL30:
 369:Drivers/STM32F3xx_HAL_Driver/Src/stm32f3xx_hal_dac_ex.c ****   
 421              		.loc 1 369 3 is_stmt 0 discriminator 2 view .LVU119
 422 0010 0122     		movs	r2, #1
 423              	.LVL31:
 369:Drivers/STM32F3xx_HAL_Driver/Src/stm32f3xx_hal_dac_ex.c ****   
 424              		.loc 1 369 3 discriminator 2 view .LVU120
 425 0012 6271     		strb	r2, [r4, #5]
 369:Drivers/STM32F3xx_HAL_Driver/Src/stm32f3xx_hal_dac_ex.c ****   
 426              		.loc 1 369 3 is_stmt 1 discriminator 2 view .LVU121
 372:Drivers/STM32F3xx_HAL_Driver/Src/stm32f3xx_hal_dac_ex.c **** 
 427              		.loc 1 372 3 discriminator 2 view .LVU122
 372:Drivers/STM32F3xx_HAL_Driver/Src/stm32f3xx_hal_dac_ex.c **** 
 428              		.loc 1 372 15 is_stmt 0 discriminator 2 view .LVU123
 429 0014 0222     		movs	r2, #2
 386:Drivers/STM32F3xx_HAL_Driver/Src/stm32f3xx_hal_dac_ex.c **** 
 430              		.loc 1 386 5 discriminator 2 view .LVU124
 431 0016 2668     		ldr	r6, [r4]
 372:Drivers/STM32F3xx_HAL_Driver/Src/stm32f3xx_hal_dac_ex.c **** 
 432              		.loc 1 372 15 discriminator 2 view .LVU125
 433 0018 2271     		strb	r2, [r4, #4]
 374:Drivers/STM32F3xx_HAL_Driver/Src/stm32f3xx_hal_dac_ex.c ****   {
 434              		.loc 1 374 3 is_stmt 1 discriminator 2 view .LVU126
 374:Drivers/STM32F3xx_HAL_Driver/Src/stm32f3xx_hal_dac_ex.c ****   {
 435              		.loc 1 374 5 is_stmt 0 discriminator 2 view .LVU127
 436 001a 35BB     		cbnz	r5, .L25
 377:Drivers/STM32F3xx_HAL_Driver/Src/stm32f3xx_hal_dac_ex.c ****     
 437              		.loc 1 377 5 is_stmt 1 view .LVU128
 377:Drivers/STM32F3xx_HAL_Driver/Src/stm32f3xx_hal_dac_ex.c ****     
 438              		.loc 1 377 9 is_stmt 0 view .LVU129
 439 001c A068     		ldr	r0, [r4, #8]
 386:Drivers/STM32F3xx_HAL_Driver/Src/stm32f3xx_hal_dac_ex.c **** 
 440              		.loc 1 386 5 view .LVU130
 441 001e 3268     		ldr	r2, [r6]
 377:Drivers/STM32F3xx_HAL_Driver/Src/stm32f3xx_hal_dac_ex.c ****     
 442              		.loc 1 377 41 view .LVU131
 443 0020 DFF8D0C0 		ldr	ip, .L40
 444 0024 C0F828C0 		str	ip, [r0, #40]
 380:Drivers/STM32F3xx_HAL_Driver/Src/stm32f3xx_hal_dac_ex.c ****       
 445              		.loc 1 380 5 is_stmt 1 view .LVU132
 380:Drivers/STM32F3xx_HAL_Driver/Src/stm32f3xx_hal_dac_ex.c ****       
 446              		.loc 1 380 45 is_stmt 0 view .LVU133
 447 0028 DFF8CCC0 		ldr	ip, .L40+4
 448 002c C0F82CC0 		str	ip, [r0, #44]
 383:Drivers/STM32F3xx_HAL_Driver/Src/stm32f3xx_hal_dac_ex.c **** 
 449              		.loc 1 383 5 is_stmt 1 view .LVU134
 386:Drivers/STM32F3xx_HAL_Driver/Src/stm32f3xx_hal_dac_ex.c **** 
 450              		.loc 1 386 5 is_stmt 0 view .LVU135
 451 0030 42F48052 		orr	r2, r2, #4096
 383:Drivers/STM32F3xx_HAL_Driver/Src/stm32f3xx_hal_dac_ex.c **** 
 452              		.loc 1 383 42 view .LVU136
 453 0034 DFF8C4C0 		ldr	ip, .L40+8
 454 0038 C0F830C0 		str	ip, [r0, #48]
 386:Drivers/STM32F3xx_HAL_Driver/Src/stm32f3xx_hal_dac_ex.c **** 
 455              		.loc 1 386 5 is_stmt 1 view .LVU137
 389:Drivers/STM32F3xx_HAL_Driver/Src/stm32f3xx_hal_dac_ex.c ****     {
 456              		.loc 1 389 5 is_stmt 0 view .LVU138
ARM GAS  /var/folders/b1/22c950295gx2kqj80tvj8wqc0000gn/T//ccfZwynw.s 			page 30


 457 003c 042F     		cmp	r7, #4
 386:Drivers/STM32F3xx_HAL_Driver/Src/stm32f3xx_hal_dac_ex.c **** 
 458              		.loc 1 386 5 view .LVU139
 459 003e 3260     		str	r2, [r6]
 389:Drivers/STM32F3xx_HAL_Driver/Src/stm32f3xx_hal_dac_ex.c ****     {
 460              		.loc 1 389 5 is_stmt 1 view .LVU140
 461 0040 39D0     		beq	.L26
 462 0042 082F     		cmp	r7, #8
 463 0044 34D0     		beq	.L27
 464 0046 87B3     		cbz	r7, .L38
 442:Drivers/STM32F3xx_HAL_Driver/Src/stm32f3xx_hal_dac_ex.c ****   {
 465              		.loc 1 442 3 view .LVU141
 377:Drivers/STM32F3xx_HAL_Driver/Src/stm32f3xx_hal_dac_ex.c ****     
 466              		.loc 1 377 9 is_stmt 0 view .LVU142
 467 0048 2A46     		mov	r2, r5
 468              	.LVL32:
 469              	.L29:
 445:Drivers/STM32F3xx_HAL_Driver/Src/stm32f3xx_hal_dac_ex.c **** 
 470              		.loc 1 445 5 is_stmt 1 view .LVU143
 471 004a 3768     		ldr	r7, [r6]
 472 004c 47F40057 		orr	r7, r7, #8192
 473 0050 3760     		str	r7, [r6]
 474              	.LVL33:
 448:Drivers/STM32F3xx_HAL_Driver/Src/stm32f3xx_hal_dac_ex.c ****   } 
 475              		.loc 1 448 5 view .LVU144
 476 0052 FFF7FEFF 		bl	HAL_DMA_Start_IT
 477              	.LVL34:
 478              	.L34:
 460:Drivers/STM32F3xx_HAL_Driver/Src/stm32f3xx_hal_dac_ex.c **** 
 479              		.loc 1 460 3 view .LVU145
 460:Drivers/STM32F3xx_HAL_Driver/Src/stm32f3xx_hal_dac_ex.c **** 
 480              		.loc 1 460 3 view .LVU146
 463:Drivers/STM32F3xx_HAL_Driver/Src/stm32f3xx_hal_dac_ex.c ****   
 481              		.loc 1 463 3 is_stmt 0 view .LVU147
 482 0056 2268     		ldr	r2, [r4]
 460:Drivers/STM32F3xx_HAL_Driver/Src/stm32f3xx_hal_dac_ex.c **** 
 483              		.loc 1 460 3 view .LVU148
 484 0058 0020     		movs	r0, #0
 485 005a 6071     		strb	r0, [r4, #5]
 460:Drivers/STM32F3xx_HAL_Driver/Src/stm32f3xx_hal_dac_ex.c **** 
 486              		.loc 1 460 3 is_stmt 1 view .LVU149
 463:Drivers/STM32F3xx_HAL_Driver/Src/stm32f3xx_hal_dac_ex.c ****   
 487              		.loc 1 463 3 view .LVU150
 488 005c 1468     		ldr	r4, [r2]
 489              	.LVL35:
 463:Drivers/STM32F3xx_HAL_Driver/Src/stm32f3xx_hal_dac_ex.c ****   
 490              		.loc 1 463 3 is_stmt 0 view .LVU151
 491 005e 0123     		movs	r3, #1
 492 0060 03FA05F1 		lsl	r1, r3, r5
 493 0064 2143     		orrs	r1, r1, r4
 494 0066 1160     		str	r1, [r2]
 466:Drivers/STM32F3xx_HAL_Driver/Src/stm32f3xx_hal_dac_ex.c **** }
 495              		.loc 1 466 3 is_stmt 1 view .LVU152
 467:Drivers/STM32F3xx_HAL_Driver/Src/stm32f3xx_hal_dac_ex.c **** #endif /* STM32F303xE || STM32F398xx                || */
 496              		.loc 1 467 1 is_stmt 0 view .LVU153
 497 0068 F8BD     		pop	{r3, r4, r5, r6, r7, pc}
 498              	.LVL36:
ARM GAS  /var/folders/b1/22c950295gx2kqj80tvj8wqc0000gn/T//ccfZwynw.s 			page 31


 499              	.L25:
 410:Drivers/STM32F3xx_HAL_Driver/Src/stm32f3xx_hal_dac_ex.c ****     
 500              		.loc 1 410 5 is_stmt 1 view .LVU154
 410:Drivers/STM32F3xx_HAL_Driver/Src/stm32f3xx_hal_dac_ex.c ****     
 501              		.loc 1 410 9 is_stmt 0 view .LVU155
 502 006a E068     		ldr	r0, [r4, #12]
 419:Drivers/STM32F3xx_HAL_Driver/Src/stm32f3xx_hal_dac_ex.c ****    
 503              		.loc 1 419 5 view .LVU156
 504 006c 3268     		ldr	r2, [r6]
 410:Drivers/STM32F3xx_HAL_Driver/Src/stm32f3xx_hal_dac_ex.c ****     
 505              		.loc 1 410 41 view .LVU157
 506 006e DFF890C0 		ldr	ip, .L40+12
 507 0072 C0F828C0 		str	ip, [r0, #40]
 413:Drivers/STM32F3xx_HAL_Driver/Src/stm32f3xx_hal_dac_ex.c ****        
 508              		.loc 1 413 5 is_stmt 1 view .LVU158
 413:Drivers/STM32F3xx_HAL_Driver/Src/stm32f3xx_hal_dac_ex.c ****        
 509              		.loc 1 413 45 is_stmt 0 view .LVU159
 510 0076 DFF88CC0 		ldr	ip, .L40+16
 511 007a C0F82CC0 		str	ip, [r0, #44]
 416:Drivers/STM32F3xx_HAL_Driver/Src/stm32f3xx_hal_dac_ex.c ****  
 512              		.loc 1 416 5 is_stmt 1 view .LVU160
 419:Drivers/STM32F3xx_HAL_Driver/Src/stm32f3xx_hal_dac_ex.c ****    
 513              		.loc 1 419 5 is_stmt 0 view .LVU161
 514 007e 42F08052 		orr	r2, r2, #268435456
 416:Drivers/STM32F3xx_HAL_Driver/Src/stm32f3xx_hal_dac_ex.c ****  
 515              		.loc 1 416 42 view .LVU162
 516 0082 DFF884C0 		ldr	ip, .L40+20
 517 0086 C0F830C0 		str	ip, [r0, #48]
 419:Drivers/STM32F3xx_HAL_Driver/Src/stm32f3xx_hal_dac_ex.c ****    
 518              		.loc 1 419 5 is_stmt 1 view .LVU163
 422:Drivers/STM32F3xx_HAL_Driver/Src/stm32f3xx_hal_dac_ex.c ****     {
 519              		.loc 1 422 5 is_stmt 0 view .LVU164
 520 008a 042F     		cmp	r7, #4
 419:Drivers/STM32F3xx_HAL_Driver/Src/stm32f3xx_hal_dac_ex.c ****    
 521              		.loc 1 419 5 view .LVU165
 522 008c 3260     		str	r2, [r6]
 422:Drivers/STM32F3xx_HAL_Driver/Src/stm32f3xx_hal_dac_ex.c ****     {
 523              		.loc 1 422 5 is_stmt 1 view .LVU166
 524 008e 27D0     		beq	.L30
 525 0090 082F     		cmp	r7, #8
 526 0092 1CD0     		beq	.L31
 527 0094 97B1     		cbz	r7, .L39
 442:Drivers/STM32F3xx_HAL_Driver/Src/stm32f3xx_hal_dac_ex.c ****   {
 528              		.loc 1 442 3 view .LVU167
 453:Drivers/STM32F3xx_HAL_Driver/Src/stm32f3xx_hal_dac_ex.c **** 
 529              		.loc 1 453 5 is_stmt 0 view .LVU168
 530 0096 3768     		ldr	r7, [r6]
 531 0098 47F00057 		orr	r7, r7, #536870912
 410:Drivers/STM32F3xx_HAL_Driver/Src/stm32f3xx_hal_dac_ex.c ****     
 532              		.loc 1 410 9 view .LVU169
 533 009c 0022     		movs	r2, #0
 534              	.LVL37:
 453:Drivers/STM32F3xx_HAL_Driver/Src/stm32f3xx_hal_dac_ex.c **** 
 535              		.loc 1 453 5 is_stmt 1 view .LVU170
 536 009e 3760     		str	r7, [r6]
 537              	.LVL38:
 456:Drivers/STM32F3xx_HAL_Driver/Src/stm32f3xx_hal_dac_ex.c ****   }
ARM GAS  /var/folders/b1/22c950295gx2kqj80tvj8wqc0000gn/T//ccfZwynw.s 			page 32


 538              		.loc 1 456 5 view .LVU171
 539 00a0 FFF7FEFF 		bl	HAL_DMA_Start_IT
 540              	.LVL39:
 456:Drivers/STM32F3xx_HAL_Driver/Src/stm32f3xx_hal_dac_ex.c ****   }
 541              		.loc 1 456 5 is_stmt 0 view .LVU172
 542 00a4 D7E7     		b	.L34
 543              	.LVL40:
 544              	.L35:
 369:Drivers/STM32F3xx_HAL_Driver/Src/stm32f3xx_hal_dac_ex.c ****   
 545              		.loc 1 369 3 view .LVU173
 546 00a6 0220     		movs	r0, #2
 467:Drivers/STM32F3xx_HAL_Driver/Src/stm32f3xx_hal_dac_ex.c **** #endif /* STM32F303xE || STM32F398xx                || */
 547              		.loc 1 467 1 view .LVU174
 548 00a8 F8BD     		pop	{r3, r4, r5, r6, r7, pc}
 549              	.LVL41:
 550              	.L38:
 393:Drivers/STM32F3xx_HAL_Driver/Src/stm32f3xx_hal_dac_ex.c ****         break;
 551              		.loc 1 393 9 is_stmt 1 view .LVU175
 393:Drivers/STM32F3xx_HAL_Driver/Src/stm32f3xx_hal_dac_ex.c ****         break;
 552              		.loc 1 393 28 is_stmt 0 view .LVU176
 553 00aa 06F10802 		add	r2, r6, #8
 554              	.LVL42:
 394:Drivers/STM32F3xx_HAL_Driver/Src/stm32f3xx_hal_dac_ex.c ****       case DAC_ALIGN_12B_L:
 555              		.loc 1 394 9 is_stmt 1 view .LVU177
 556 00ae CCE7     		b	.L29
 557              	.LVL43:
 558              	.L27:
 401:Drivers/STM32F3xx_HAL_Driver/Src/stm32f3xx_hal_dac_ex.c ****         break;
 559              		.loc 1 401 9 view .LVU178
 401:Drivers/STM32F3xx_HAL_Driver/Src/stm32f3xx_hal_dac_ex.c ****         break;
 560              		.loc 1 401 28 is_stmt 0 view .LVU179
 561 00b0 06F11002 		add	r2, r6, #16
 562              	.LVL44:
 402:Drivers/STM32F3xx_HAL_Driver/Src/stm32f3xx_hal_dac_ex.c ****       default:
 563              		.loc 1 402 9 is_stmt 1 view .LVU180
 564 00b4 C9E7     		b	.L29
 565              	.LVL45:
 566              	.L26:
 397:Drivers/STM32F3xx_HAL_Driver/Src/stm32f3xx_hal_dac_ex.c ****         break;
 567              		.loc 1 397 9 view .LVU181
 397:Drivers/STM32F3xx_HAL_Driver/Src/stm32f3xx_hal_dac_ex.c ****         break;
 568              		.loc 1 397 28 is_stmt 0 view .LVU182
 569 00b6 06F10C02 		add	r2, r6, #12
 570              	.LVL46:
 398:Drivers/STM32F3xx_HAL_Driver/Src/stm32f3xx_hal_dac_ex.c ****       case DAC_ALIGN_8B_R:
 571              		.loc 1 398 9 is_stmt 1 view .LVU183
 572 00ba C6E7     		b	.L29
 573              	.LVL47:
 574              	.L39:
 426:Drivers/STM32F3xx_HAL_Driver/Src/stm32f3xx_hal_dac_ex.c ****         break;
 575              		.loc 1 426 9 view .LVU184
 453:Drivers/STM32F3xx_HAL_Driver/Src/stm32f3xx_hal_dac_ex.c **** 
 576              		.loc 1 453 5 is_stmt 0 view .LVU185
 577 00bc 3768     		ldr	r7, [r6]
 578 00be 47F00057 		orr	r7, r7, #536870912
 426:Drivers/STM32F3xx_HAL_Driver/Src/stm32f3xx_hal_dac_ex.c ****         break;
 579              		.loc 1 426 28 view .LVU186
ARM GAS  /var/folders/b1/22c950295gx2kqj80tvj8wqc0000gn/T//ccfZwynw.s 			page 33


 580 00c2 06F11402 		add	r2, r6, #20
 581              	.LVL48:
 427:Drivers/STM32F3xx_HAL_Driver/Src/stm32f3xx_hal_dac_ex.c ****       case DAC_ALIGN_12B_L:
 582              		.loc 1 427 9 is_stmt 1 view .LVU187
 453:Drivers/STM32F3xx_HAL_Driver/Src/stm32f3xx_hal_dac_ex.c **** 
 583              		.loc 1 453 5 view .LVU188
 584 00c6 3760     		str	r7, [r6]
 585              	.LVL49:
 456:Drivers/STM32F3xx_HAL_Driver/Src/stm32f3xx_hal_dac_ex.c ****   }
 586              		.loc 1 456 5 view .LVU189
 587 00c8 FFF7FEFF 		bl	HAL_DMA_Start_IT
 588              	.LVL50:
 456:Drivers/STM32F3xx_HAL_Driver/Src/stm32f3xx_hal_dac_ex.c ****   }
 589              		.loc 1 456 5 is_stmt 0 view .LVU190
 590 00cc C3E7     		b	.L34
 591              	.LVL51:
 592              	.L31:
 434:Drivers/STM32F3xx_HAL_Driver/Src/stm32f3xx_hal_dac_ex.c ****         break;
 593              		.loc 1 434 9 is_stmt 1 view .LVU191
 453:Drivers/STM32F3xx_HAL_Driver/Src/stm32f3xx_hal_dac_ex.c **** 
 594              		.loc 1 453 5 is_stmt 0 view .LVU192
 595 00ce 3768     		ldr	r7, [r6]
 596 00d0 47F00057 		orr	r7, r7, #536870912
 434:Drivers/STM32F3xx_HAL_Driver/Src/stm32f3xx_hal_dac_ex.c ****         break;
 597              		.loc 1 434 28 view .LVU193
 598 00d4 06F11C02 		add	r2, r6, #28
 599              	.LVL52:
 435:Drivers/STM32F3xx_HAL_Driver/Src/stm32f3xx_hal_dac_ex.c ****       default:
 600              		.loc 1 435 9 is_stmt 1 view .LVU194
 453:Drivers/STM32F3xx_HAL_Driver/Src/stm32f3xx_hal_dac_ex.c **** 
 601              		.loc 1 453 5 view .LVU195
 602 00d8 3760     		str	r7, [r6]
 603              	.LVL53:
 456:Drivers/STM32F3xx_HAL_Driver/Src/stm32f3xx_hal_dac_ex.c ****   }
 604              		.loc 1 456 5 view .LVU196
 605 00da FFF7FEFF 		bl	HAL_DMA_Start_IT
 606              	.LVL54:
 456:Drivers/STM32F3xx_HAL_Driver/Src/stm32f3xx_hal_dac_ex.c ****   }
 607              		.loc 1 456 5 is_stmt 0 view .LVU197
 608 00de BAE7     		b	.L34
 609              	.LVL55:
 610              	.L30:
 430:Drivers/STM32F3xx_HAL_Driver/Src/stm32f3xx_hal_dac_ex.c ****         break;
 611              		.loc 1 430 9 is_stmt 1 view .LVU198
 453:Drivers/STM32F3xx_HAL_Driver/Src/stm32f3xx_hal_dac_ex.c **** 
 612              		.loc 1 453 5 is_stmt 0 view .LVU199
 613 00e0 3768     		ldr	r7, [r6]
 614 00e2 47F00057 		orr	r7, r7, #536870912
 430:Drivers/STM32F3xx_HAL_Driver/Src/stm32f3xx_hal_dac_ex.c ****         break;
 615              		.loc 1 430 28 view .LVU200
 616 00e6 06F11802 		add	r2, r6, #24
 617              	.LVL56:
 431:Drivers/STM32F3xx_HAL_Driver/Src/stm32f3xx_hal_dac_ex.c ****       case DAC_ALIGN_8B_R:
 618              		.loc 1 431 9 is_stmt 1 view .LVU201
 453:Drivers/STM32F3xx_HAL_Driver/Src/stm32f3xx_hal_dac_ex.c **** 
 619              		.loc 1 453 5 view .LVU202
 620 00ea 3760     		str	r7, [r6]
ARM GAS  /var/folders/b1/22c950295gx2kqj80tvj8wqc0000gn/T//ccfZwynw.s 			page 34


 621              	.LVL57:
 456:Drivers/STM32F3xx_HAL_Driver/Src/stm32f3xx_hal_dac_ex.c ****   }
 622              		.loc 1 456 5 view .LVU203
 623 00ec FFF7FEFF 		bl	HAL_DMA_Start_IT
 624              	.LVL58:
 456:Drivers/STM32F3xx_HAL_Driver/Src/stm32f3xx_hal_dac_ex.c ****   }
 625              		.loc 1 456 5 is_stmt 0 view .LVU204
 626 00f0 B1E7     		b	.L34
 627              	.L41:
 628 00f2 00BF     		.align	2
 629              	.L40:
 630 00f4 00000000 		.word	DAC_DMAConvCpltCh1
 631 00f8 00000000 		.word	DAC_DMAHalfConvCpltCh1
 632 00fc 00000000 		.word	DAC_DMAErrorCh1
 633 0100 00000000 		.word	DAC_DMAConvCpltCh2
 634 0104 00000000 		.word	DAC_DMAHalfConvCpltCh2
 635 0108 00000000 		.word	DAC_DMAErrorCh2
 636              		.cfi_endproc
 637              	.LFE126:
 639              		.section	.text.HAL_DAC_GetValue,"ax",%progbits
 640              		.align	1
 641              		.p2align 2,,3
 642              		.global	HAL_DAC_GetValue
 643              		.syntax unified
 644              		.thumb
 645              		.thumb_func
 647              	HAL_DAC_GetValue:
 648              	.LVL59:
 649              	.LFB127:
 575:Drivers/STM32F3xx_HAL_Driver/Src/stm32f3xx_hal_dac_ex.c ****   /* Check the parameters */
 650              		.loc 1 575 1 is_stmt 1 view -0
 651              		.cfi_startproc
 652              		@ args = 0, pretend = 0, frame = 0
 653              		@ frame_needed = 0, uses_anonymous_args = 0
 654              		@ link register save eliminated.
 577:Drivers/STM32F3xx_HAL_Driver/Src/stm32f3xx_hal_dac_ex.c ****   
 655              		.loc 1 577 3 view .LVU206
 580:Drivers/STM32F3xx_HAL_Driver/Src/stm32f3xx_hal_dac_ex.c ****   {
 656              		.loc 1 580 3 view .LVU207
 582:Drivers/STM32F3xx_HAL_Driver/Src/stm32f3xx_hal_dac_ex.c ****   }
 657              		.loc 1 582 16 is_stmt 0 view .LVU208
 658 0000 0368     		ldr	r3, [r0]
 580:Drivers/STM32F3xx_HAL_Driver/Src/stm32f3xx_hal_dac_ex.c ****   {
 659              		.loc 1 580 5 view .LVU209
 660 0002 09B9     		cbnz	r1, .L43
 582:Drivers/STM32F3xx_HAL_Driver/Src/stm32f3xx_hal_dac_ex.c ****   }
 661              		.loc 1 582 5 is_stmt 1 view .LVU210
 582:Drivers/STM32F3xx_HAL_Driver/Src/stm32f3xx_hal_dac_ex.c ****   }
 662              		.loc 1 582 26 is_stmt 0 view .LVU211
 663 0004 D86A     		ldr	r0, [r3, #44]
 664              	.LVL60:
 582:Drivers/STM32F3xx_HAL_Driver/Src/stm32f3xx_hal_dac_ex.c ****   }
 665              		.loc 1 582 26 view .LVU212
 666 0006 7047     		bx	lr
 667              	.LVL61:
 668              	.L43:
 586:Drivers/STM32F3xx_HAL_Driver/Src/stm32f3xx_hal_dac_ex.c ****   }
ARM GAS  /var/folders/b1/22c950295gx2kqj80tvj8wqc0000gn/T//ccfZwynw.s 			page 35


 669              		.loc 1 586 5 is_stmt 1 view .LVU213
 586:Drivers/STM32F3xx_HAL_Driver/Src/stm32f3xx_hal_dac_ex.c ****   }
 670              		.loc 1 586 26 is_stmt 0 view .LVU214
 671 0008 186B     		ldr	r0, [r3, #48]
 672              	.LVL62:
 588:Drivers/STM32F3xx_HAL_Driver/Src/stm32f3xx_hal_dac_ex.c **** #endif /* STM32F303xE || STM32F398xx                || */
 673              		.loc 1 588 1 view .LVU215
 674 000a 7047     		bx	lr
 675              		.cfi_endproc
 676              	.LFE127:
 678              		.section	.text.HAL_DACEx_DualGetValue,"ax",%progbits
 679              		.align	1
 680              		.p2align 2,,3
 681              		.global	HAL_DACEx_DualGetValue
 682              		.syntax unified
 683              		.thumb
 684              		.thumb_func
 686              	HAL_DACEx_DualGetValue:
 687              	.LVL63:
 688              	.LFB128:
 626:Drivers/STM32F3xx_HAL_Driver/Src/stm32f3xx_hal_dac_ex.c ****   uint32_t tmp = 0U;
 689              		.loc 1 626 1 is_stmt 1 view -0
 690              		.cfi_startproc
 691              		@ args = 0, pretend = 0, frame = 0
 692              		@ frame_needed = 0, uses_anonymous_args = 0
 693              		@ link register save eliminated.
 627:Drivers/STM32F3xx_HAL_Driver/Src/stm32f3xx_hal_dac_ex.c **** 
 694              		.loc 1 627 3 view .LVU217
 629:Drivers/STM32F3xx_HAL_Driver/Src/stm32f3xx_hal_dac_ex.c **** 
 695              		.loc 1 629 3 view .LVU218
 629:Drivers/STM32F3xx_HAL_Driver/Src/stm32f3xx_hal_dac_ex.c **** 
 696              		.loc 1 629 14 is_stmt 0 view .LVU219
 697 0000 0368     		ldr	r3, [r0]
 629:Drivers/STM32F3xx_HAL_Driver/Src/stm32f3xx_hal_dac_ex.c **** 
 698              		.loc 1 629 24 view .LVU220
 699 0002 DA6A     		ldr	r2, [r3, #44]
 700              	.LVL64:
 636:Drivers/STM32F3xx_HAL_Driver/Src/stm32f3xx_hal_dac_ex.c **** #endif /* STM32F303xE || STM32F398xx                || */
 701              		.loc 1 636 3 is_stmt 1 view .LVU221
 636:Drivers/STM32F3xx_HAL_Driver/Src/stm32f3xx_hal_dac_ex.c **** #endif /* STM32F303xE || STM32F398xx                || */
 702              		.loc 1 636 24 is_stmt 0 view .LVU222
 703 0004 186B     		ldr	r0, [r3, #48]
 704              	.LVL65:
 643:Drivers/STM32F3xx_HAL_Driver/Src/stm32f3xx_hal_dac_ex.c **** }
 705              		.loc 1 643 3 is_stmt 1 view .LVU223
 644:Drivers/STM32F3xx_HAL_Driver/Src/stm32f3xx_hal_dac_ex.c **** 
 706              		.loc 1 644 1 is_stmt 0 view .LVU224
 707 0006 42EA0040 		orr	r0, r2, r0, lsl #16
 708              	.LVL66:
 644:Drivers/STM32F3xx_HAL_Driver/Src/stm32f3xx_hal_dac_ex.c **** 
 709              		.loc 1 644 1 view .LVU225
 710 000a 7047     		bx	lr
 711              		.cfi_endproc
 712              	.LFE128:
 714              		.section	.text.HAL_DAC_ConfigChannel,"ax",%progbits
 715              		.align	1
 716              		.p2align 2,,3
ARM GAS  /var/folders/b1/22c950295gx2kqj80tvj8wqc0000gn/T//ccfZwynw.s 			page 36


 717              		.global	HAL_DAC_ConfigChannel
 718              		.syntax unified
 719              		.thumb
 720              		.thumb_func
 722              	HAL_DAC_ConfigChannel:
 723              	.LVL67:
 724              	.LFB130:
 772:Drivers/STM32F3xx_HAL_Driver/Src/stm32f3xx_hal_dac_ex.c ****   uint32_t tmpreg1 = 0U, tmpreg2 = 0U;
 725              		.loc 1 772 1 is_stmt 1 view -0
 726              		.cfi_startproc
 727              		@ args = 0, pretend = 0, frame = 0
 728              		@ frame_needed = 0, uses_anonymous_args = 0
 729              		@ link register save eliminated.
 773:Drivers/STM32F3xx_HAL_Driver/Src/stm32f3xx_hal_dac_ex.c **** 
 730              		.loc 1 773 3 view .LVU227
 776:Drivers/STM32F3xx_HAL_Driver/Src/stm32f3xx_hal_dac_ex.c **** 
 731              		.loc 1 776 3 view .LVU228
 779:Drivers/STM32F3xx_HAL_Driver/Src/stm32f3xx_hal_dac_ex.c ****   {
 732              		.loc 1 779 3 view .LVU229
 772:Drivers/STM32F3xx_HAL_Driver/Src/stm32f3xx_hal_dac_ex.c ****   uint32_t tmpreg1 = 0U, tmpreg2 = 0U;
 733              		.loc 1 772 1 is_stmt 0 view .LVU230
 734 0000 30B4     		push	{r4, r5}
 735              	.LCFI12:
 736              		.cfi_def_cfa_offset 8
 737              		.cfi_offset 4, -8
 738              		.cfi_offset 5, -4
 772:Drivers/STM32F3xx_HAL_Driver/Src/stm32f3xx_hal_dac_ex.c ****   uint32_t tmpreg1 = 0U, tmpreg2 = 0U;
 739              		.loc 1 772 1 view .LVU231
 740 0002 0346     		mov	r3, r0
 795:Drivers/STM32F3xx_HAL_Driver/Src/stm32f3xx_hal_dac_ex.c ****   
 741              		.loc 1 795 3 view .LVU232
 742 0004 4079     		ldrb	r0, [r0, #5]	@ zero_extendqisi2
 743              	.LVL68:
 779:Drivers/STM32F3xx_HAL_Driver/Src/stm32f3xx_hal_dac_ex.c ****   {
 744              		.loc 1 779 12 view .LVU233
 745 0006 1C68     		ldr	r4, [r3]
 787:Drivers/STM32F3xx_HAL_Driver/Src/stm32f3xx_hal_dac_ex.c ****   }    
 746              		.loc 1 787 5 is_stmt 1 view .LVU234
 792:Drivers/STM32F3xx_HAL_Driver/Src/stm32f3xx_hal_dac_ex.c ****  
 747              		.loc 1 792 3 view .LVU235
 795:Drivers/STM32F3xx_HAL_Driver/Src/stm32f3xx_hal_dac_ex.c ****   
 748              		.loc 1 795 3 view .LVU236
 795:Drivers/STM32F3xx_HAL_Driver/Src/stm32f3xx_hal_dac_ex.c ****   
 749              		.loc 1 795 3 view .LVU237
 750 0008 0128     		cmp	r0, #1
 751 000a 4FF00200 		mov	r0, #2
 752 000e 1CD0     		beq	.L47
 795:Drivers/STM32F3xx_HAL_Driver/Src/stm32f3xx_hal_dac_ex.c ****   
 753              		.loc 1 795 3 discriminator 2 view .LVU238
 795:Drivers/STM32F3xx_HAL_Driver/Src/stm32f3xx_hal_dac_ex.c ****   
 754              		.loc 1 795 3 discriminator 2 view .LVU239
 798:Drivers/STM32F3xx_HAL_Driver/Src/stm32f3xx_hal_dac_ex.c ****   
 755              		.loc 1 798 3 discriminator 2 view .LVU240
 798:Drivers/STM32F3xx_HAL_Driver/Src/stm32f3xx_hal_dac_ex.c ****   
 756              		.loc 1 798 15 is_stmt 0 discriminator 2 view .LVU241
 757 0010 1871     		strb	r0, [r3, #4]
 801:Drivers/STM32F3xx_HAL_Driver/Src/stm32f3xx_hal_dac_ex.c ****   
ARM GAS  /var/folders/b1/22c950295gx2kqj80tvj8wqc0000gn/T//ccfZwynw.s 			page 37


 758              		.loc 1 801 3 is_stmt 1 discriminator 2 view .LVU242
 810:Drivers/STM32F3xx_HAL_Driver/Src/stm32f3xx_hal_dac_ex.c ****   {
 759              		.loc 1 810 6 is_stmt 0 discriminator 2 view .LVU243
 760 0012 1448     		ldr	r0, .L53
 801:Drivers/STM32F3xx_HAL_Driver/Src/stm32f3xx_hal_dac_ex.c ****   
 761              		.loc 1 801 11 discriminator 2 view .LVU244
 762 0014 2568     		ldr	r5, [r4]
 763              	.LVL69:
 810:Drivers/STM32F3xx_HAL_Driver/Src/stm32f3xx_hal_dac_ex.c ****   {
 764              		.loc 1 810 3 is_stmt 1 discriminator 2 view .LVU245
 810:Drivers/STM32F3xx_HAL_Driver/Src/stm32f3xx_hal_dac_ex.c ****   {
 765              		.loc 1 810 6 is_stmt 0 discriminator 2 view .LVU246
 766 0016 8442     		cmp	r4, r0
 767 0018 19D0     		beq	.L52
 768              	.L48:
 819:Drivers/STM32F3xx_HAL_Driver/Src/stm32f3xx_hal_dac_ex.c ****     tmpreg2 = (sConfig->DAC_Trigger | sConfig->DAC_OutputSwitch);    
 769              		.loc 1 819 5 is_stmt 1 view .LVU247
 820:Drivers/STM32F3xx_HAL_Driver/Src/stm32f3xx_hal_dac_ex.c ****   }    
 770              		.loc 1 820 13 is_stmt 0 view .LVU248
 771 001a 0868     		ldr	r0, [r1]
 772 001c 8968     		ldr	r1, [r1, #8]
 773              	.LVL70:
 820:Drivers/STM32F3xx_HAL_Driver/Src/stm32f3xx_hal_dac_ex.c ****   }    
 774              		.loc 1 820 13 view .LVU249
 775 001e 0143     		orrs	r1, r1, r0
 819:Drivers/STM32F3xx_HAL_Driver/Src/stm32f3xx_hal_dac_ex.c ****     tmpreg2 = (sConfig->DAC_Trigger | sConfig->DAC_OutputSwitch);    
 776              		.loc 1 819 105 view .LVU250
 777 0020 40F6FE70 		movw	r0, #4094
 778 0024 9040     		lsls	r0, r0, r2
 819:Drivers/STM32F3xx_HAL_Driver/Src/stm32f3xx_hal_dac_ex.c ****     tmpreg2 = (sConfig->DAC_Trigger | sConfig->DAC_OutputSwitch);    
 779              		.loc 1 819 13 view .LVU251
 780 0026 25EA000C 		bic	ip, r5, r0
 781              	.LVL71:
 820:Drivers/STM32F3xx_HAL_Driver/Src/stm32f3xx_hal_dac_ex.c ****   }    
 782              		.loc 1 820 5 is_stmt 1 view .LVU252
 783              	.L49:
 828:Drivers/STM32F3xx_HAL_Driver/Src/stm32f3xx_hal_dac_ex.c ****   /* Write to DAC CR */
 784              		.loc 1 828 3 view .LVU253
 828:Drivers/STM32F3xx_HAL_Driver/Src/stm32f3xx_hal_dac_ex.c ****   /* Write to DAC CR */
 785              		.loc 1 828 22 is_stmt 0 view .LVU254
 786 002a 9140     		lsls	r1, r1, r2
 787              	.LVL72:
 828:Drivers/STM32F3xx_HAL_Driver/Src/stm32f3xx_hal_dac_ex.c ****   /* Write to DAC CR */
 788              		.loc 1 828 11 view .LVU255
 789 002c 41EA0C01 		orr	r1, r1, ip
 790              	.LVL73:
 830:Drivers/STM32F3xx_HAL_Driver/Src/stm32f3xx_hal_dac_ex.c ****   
 791              		.loc 1 830 3 is_stmt 1 view .LVU256
 830:Drivers/STM32F3xx_HAL_Driver/Src/stm32f3xx_hal_dac_ex.c ****   
 792              		.loc 1 830 22 is_stmt 0 view .LVU257
 793 0030 2160     		str	r1, [r4]
 833:Drivers/STM32F3xx_HAL_Driver/Src/stm32f3xx_hal_dac_ex.c **** 
 794              		.loc 1 833 3 is_stmt 1 view .LVU258
 833:Drivers/STM32F3xx_HAL_Driver/Src/stm32f3xx_hal_dac_ex.c **** 
 795              		.loc 1 833 22 is_stmt 0 view .LVU259
 796 0032 2168     		ldr	r1, [r4]
 797              	.LVL74:
ARM GAS  /var/folders/b1/22c950295gx2kqj80tvj8wqc0000gn/T//ccfZwynw.s 			page 38


 833:Drivers/STM32F3xx_HAL_Driver/Src/stm32f3xx_hal_dac_ex.c **** 
 798              		.loc 1 833 40 view .LVU260
 799 0034 C020     		movs	r0, #192
 800 0036 00FA02F2 		lsl	r2, r0, r2
 801              	.LVL75:
 839:Drivers/STM32F3xx_HAL_Driver/Src/stm32f3xx_hal_dac_ex.c ****   
 802              		.loc 1 839 3 view .LVU261
 803 003a 0025     		movs	r5, #0
 833:Drivers/STM32F3xx_HAL_Driver/Src/stm32f3xx_hal_dac_ex.c **** 
 804              		.loc 1 833 22 view .LVU262
 805 003c 21EA0202 		bic	r2, r1, r2
 836:Drivers/STM32F3xx_HAL_Driver/Src/stm32f3xx_hal_dac_ex.c ****   
 806              		.loc 1 836 15 view .LVU263
 807 0040 0121     		movs	r1, #1
 833:Drivers/STM32F3xx_HAL_Driver/Src/stm32f3xx_hal_dac_ex.c **** 
 808              		.loc 1 833 22 view .LVU264
 809 0042 2260     		str	r2, [r4]
 810              	.LVL76:
 836:Drivers/STM32F3xx_HAL_Driver/Src/stm32f3xx_hal_dac_ex.c ****   
 811              		.loc 1 836 3 is_stmt 1 view .LVU265
 842:Drivers/STM32F3xx_HAL_Driver/Src/stm32f3xx_hal_dac_ex.c **** }
 812              		.loc 1 842 10 is_stmt 0 view .LVU266
 813 0044 2846     		mov	r0, r5
 836:Drivers/STM32F3xx_HAL_Driver/Src/stm32f3xx_hal_dac_ex.c ****   
 814              		.loc 1 836 15 view .LVU267
 815 0046 1971     		strb	r1, [r3, #4]
 839:Drivers/STM32F3xx_HAL_Driver/Src/stm32f3xx_hal_dac_ex.c ****   
 816              		.loc 1 839 3 is_stmt 1 view .LVU268
 839:Drivers/STM32F3xx_HAL_Driver/Src/stm32f3xx_hal_dac_ex.c ****   
 817              		.loc 1 839 3 view .LVU269
 818 0048 5D71     		strb	r5, [r3, #5]
 839:Drivers/STM32F3xx_HAL_Driver/Src/stm32f3xx_hal_dac_ex.c ****   
 819              		.loc 1 839 3 view .LVU270
 842:Drivers/STM32F3xx_HAL_Driver/Src/stm32f3xx_hal_dac_ex.c **** }
 820              		.loc 1 842 3 view .LVU271
 821              	.L47:
 843:Drivers/STM32F3xx_HAL_Driver/Src/stm32f3xx_hal_dac_ex.c **** 
 822              		.loc 1 843 1 is_stmt 0 view .LVU272
 823 004a 30BC     		pop	{r4, r5}
 824              	.LCFI13:
 825              		.cfi_remember_state
 826              		.cfi_restore 5
 827              		.cfi_restore 4
 828              		.cfi_def_cfa_offset 0
 829 004c 7047     		bx	lr
 830              	.LVL77:
 831              	.L52:
 832              	.LCFI14:
 833              		.cfi_restore_state
 810:Drivers/STM32F3xx_HAL_Driver/Src/stm32f3xx_hal_dac_ex.c ****   {
 834              		.loc 1 810 32 discriminator 1 view .LVU273
 835 004e 002A     		cmp	r2, #0
 836 0050 E3D1     		bne	.L48
 813:Drivers/STM32F3xx_HAL_Driver/Src/stm32f3xx_hal_dac_ex.c ****     tmpreg2 = (sConfig->DAC_Trigger | sConfig->DAC_OutputBuffer);    
 837              		.loc 1 813 5 is_stmt 1 view .LVU274
 814:Drivers/STM32F3xx_HAL_Driver/Src/stm32f3xx_hal_dac_ex.c ****   }
 838              		.loc 1 814 13 is_stmt 0 view .LVU275
ARM GAS  /var/folders/b1/22c950295gx2kqj80tvj8wqc0000gn/T//ccfZwynw.s 			page 39


 839 0052 D1E90001 		ldrd	r0, r1, [r1]
 840              	.LVL78:
 813:Drivers/STM32F3xx_HAL_Driver/Src/stm32f3xx_hal_dac_ex.c ****     tmpreg2 = (sConfig->DAC_Trigger | sConfig->DAC_OutputBuffer);    
 841              		.loc 1 813 13 view .LVU276
 842 0056 25F47F6C 		bic	ip, r5, #4080
 843 005a 2CF00E0C 		bic	ip, ip, #14
 844              	.LVL79:
 814:Drivers/STM32F3xx_HAL_Driver/Src/stm32f3xx_hal_dac_ex.c ****   }
 845              		.loc 1 814 5 is_stmt 1 view .LVU277
 814:Drivers/STM32F3xx_HAL_Driver/Src/stm32f3xx_hal_dac_ex.c ****   }
 846              		.loc 1 814 13 is_stmt 0 view .LVU278
 847 005e 0143     		orrs	r1, r1, r0
 848              	.LVL80:
 814:Drivers/STM32F3xx_HAL_Driver/Src/stm32f3xx_hal_dac_ex.c ****   }
 849              		.loc 1 814 13 view .LVU279
 850 0060 E3E7     		b	.L49
 851              	.L54:
 852 0062 00BF     		.align	2
 853              	.L53:
 854 0064 00740040 		.word	1073771520
 855              		.cfi_endproc
 856              	.LFE130:
 858              		.section	.text.HAL_DACEx_TriangleWaveGenerate,"ax",%progbits
 859              		.align	1
 860              		.p2align 2,,3
 861              		.global	HAL_DACEx_TriangleWaveGenerate
 862              		.syntax unified
 863              		.thumb
 864              		.thumb_func
 866              	HAL_DACEx_TriangleWaveGenerate:
 867              	.LVL81:
 868              	.LFB131:
 871:Drivers/STM32F3xx_HAL_Driver/Src/stm32f3xx_hal_dac_ex.c ****   /* Check the parameters */
 869              		.loc 1 871 1 is_stmt 1 view -0
 870              		.cfi_startproc
 871              		@ args = 0, pretend = 0, frame = 0
 872              		@ frame_needed = 0, uses_anonymous_args = 0
 873              		@ link register save eliminated.
 873:Drivers/STM32F3xx_HAL_Driver/Src/stm32f3xx_hal_dac_ex.c ****   assert_param(IS_DAC_LFSR_UNMASK_TRIANGLE_AMPLITUDE(Amplitude));
 874              		.loc 1 873 3 view .LVU281
 874:Drivers/STM32F3xx_HAL_Driver/Src/stm32f3xx_hal_dac_ex.c **** 
 875              		.loc 1 874 3 view .LVU282
 877:Drivers/STM32F3xx_HAL_Driver/Src/stm32f3xx_hal_dac_ex.c **** 
 876              		.loc 1 877 3 view .LVU283
 877:Drivers/STM32F3xx_HAL_Driver/Src/stm32f3xx_hal_dac_ex.c **** 
 877              		.loc 1 877 3 view .LVU284
 878 0000 4379     		ldrb	r3, [r0, #5]	@ zero_extendqisi2
 879 0002 012B     		cmp	r3, #1
 880 0004 18D0     		beq	.L57
 877:Drivers/STM32F3xx_HAL_Driver/Src/stm32f3xx_hal_dac_ex.c **** 
 881              		.loc 1 877 3 discriminator 2 view .LVU285
 877:Drivers/STM32F3xx_HAL_Driver/Src/stm32f3xx_hal_dac_ex.c **** 
 882              		.loc 1 877 3 discriminator 2 view .LVU286
 880:Drivers/STM32F3xx_HAL_Driver/Src/stm32f3xx_hal_dac_ex.c **** 
 883              		.loc 1 880 3 discriminator 2 view .LVU287
 871:Drivers/STM32F3xx_HAL_Driver/Src/stm32f3xx_hal_dac_ex.c ****   /* Check the parameters */
 884              		.loc 1 871 1 is_stmt 0 discriminator 2 view .LVU288
ARM GAS  /var/folders/b1/22c950295gx2kqj80tvj8wqc0000gn/T//ccfZwynw.s 			page 40


 885 0006 10B4     		push	{r4}
 886              	.LCFI15:
 887              		.cfi_def_cfa_offset 4
 888              		.cfi_offset 4, -4
 880:Drivers/STM32F3xx_HAL_Driver/Src/stm32f3xx_hal_dac_ex.c **** 
 889              		.loc 1 880 15 discriminator 2 view .LVU289
 890 0008 0223     		movs	r3, #2
 883:Drivers/STM32F3xx_HAL_Driver/Src/stm32f3xx_hal_dac_ex.c **** 
 891              		.loc 1 883 3 discriminator 2 view .LVU290
 892 000a 0468     		ldr	r4, [r0]
 880:Drivers/STM32F3xx_HAL_Driver/Src/stm32f3xx_hal_dac_ex.c **** 
 893              		.loc 1 880 15 discriminator 2 view .LVU291
 894 000c 0371     		strb	r3, [r0, #4]
 883:Drivers/STM32F3xx_HAL_Driver/Src/stm32f3xx_hal_dac_ex.c **** 
 895              		.loc 1 883 3 is_stmt 1 discriminator 2 view .LVU292
 896 000e 2368     		ldr	r3, [r4]
 897 0010 42F08002 		orr	r2, r2, #128
 898              	.LVL82:
 883:Drivers/STM32F3xx_HAL_Driver/Src/stm32f3xx_hal_dac_ex.c **** 
 899              		.loc 1 883 3 is_stmt 0 discriminator 2 view .LVU293
 900 0014 4FF47C6C 		mov	ip, #4032
 901 0018 8A40     		lsls	r2, r2, r1
 902 001a 0CFA01F1 		lsl	r1, ip, r1
 903              	.LVL83:
 883:Drivers/STM32F3xx_HAL_Driver/Src/stm32f3xx_hal_dac_ex.c **** 
 904              		.loc 1 883 3 discriminator 2 view .LVU294
 905 001e 23EA0101 		bic	r1, r3, r1
 906 0022 41EA0203 		orr	r3, r1, r2
 889:Drivers/STM32F3xx_HAL_Driver/Src/stm32f3xx_hal_dac_ex.c **** 
 907              		.loc 1 889 3 discriminator 2 view .LVU295
 908 0026 0022     		movs	r2, #0
 886:Drivers/STM32F3xx_HAL_Driver/Src/stm32f3xx_hal_dac_ex.c **** 
 909              		.loc 1 886 15 discriminator 2 view .LVU296
 910 0028 0121     		movs	r1, #1
 883:Drivers/STM32F3xx_HAL_Driver/Src/stm32f3xx_hal_dac_ex.c **** 
 911              		.loc 1 883 3 discriminator 2 view .LVU297
 912 002a 2360     		str	r3, [r4]
 886:Drivers/STM32F3xx_HAL_Driver/Src/stm32f3xx_hal_dac_ex.c **** 
 913              		.loc 1 886 3 is_stmt 1 discriminator 2 view .LVU298
 886:Drivers/STM32F3xx_HAL_Driver/Src/stm32f3xx_hal_dac_ex.c **** 
 914              		.loc 1 886 15 is_stmt 0 discriminator 2 view .LVU299
 915 002c 0171     		strb	r1, [r0, #4]
 889:Drivers/STM32F3xx_HAL_Driver/Src/stm32f3xx_hal_dac_ex.c **** 
 916              		.loc 1 889 3 is_stmt 1 discriminator 2 view .LVU300
 889:Drivers/STM32F3xx_HAL_Driver/Src/stm32f3xx_hal_dac_ex.c **** 
 917              		.loc 1 889 3 discriminator 2 view .LVU301
 918 002e 4271     		strb	r2, [r0, #5]
 889:Drivers/STM32F3xx_HAL_Driver/Src/stm32f3xx_hal_dac_ex.c **** 
 919              		.loc 1 889 3 discriminator 2 view .LVU302
 892:Drivers/STM32F3xx_HAL_Driver/Src/stm32f3xx_hal_dac_ex.c **** }
 920              		.loc 1 892 3 discriminator 2 view .LVU303
 893:Drivers/STM32F3xx_HAL_Driver/Src/stm32f3xx_hal_dac_ex.c **** 
 921              		.loc 1 893 1 is_stmt 0 discriminator 2 view .LVU304
 922 0030 5DF8044B 		ldr	r4, [sp], #4
 923              	.LCFI16:
 924              		.cfi_restore 4
 925              		.cfi_def_cfa_offset 0
ARM GAS  /var/folders/b1/22c950295gx2kqj80tvj8wqc0000gn/T//ccfZwynw.s 			page 41


 892:Drivers/STM32F3xx_HAL_Driver/Src/stm32f3xx_hal_dac_ex.c **** }
 926              		.loc 1 892 10 discriminator 2 view .LVU305
 927 0034 1046     		mov	r0, r2
 928              	.LVL84:
 893:Drivers/STM32F3xx_HAL_Driver/Src/stm32f3xx_hal_dac_ex.c **** 
 929              		.loc 1 893 1 discriminator 2 view .LVU306
 930 0036 7047     		bx	lr
 931              	.LVL85:
 932              	.L57:
 877:Drivers/STM32F3xx_HAL_Driver/Src/stm32f3xx_hal_dac_ex.c **** 
 933              		.loc 1 877 3 view .LVU307
 934 0038 0220     		movs	r0, #2
 935              	.LVL86:
 893:Drivers/STM32F3xx_HAL_Driver/Src/stm32f3xx_hal_dac_ex.c **** 
 936              		.loc 1 893 1 view .LVU308
 937 003a 7047     		bx	lr
 938              		.cfi_endproc
 939              	.LFE131:
 941              		.section	.text.HAL_DACEx_NoiseWaveGenerate,"ax",%progbits
 942              		.align	1
 943              		.p2align 2,,3
 944              		.global	HAL_DACEx_NoiseWaveGenerate
 945              		.syntax unified
 946              		.thumb
 947              		.thumb_func
 949              	HAL_DACEx_NoiseWaveGenerate:
 950              	.LVL87:
 951              	.LFB132:
 920:Drivers/STM32F3xx_HAL_Driver/Src/stm32f3xx_hal_dac_ex.c ****   /* Check the parameters */
 952              		.loc 1 920 1 is_stmt 1 view -0
 953              		.cfi_startproc
 954              		@ args = 0, pretend = 0, frame = 0
 955              		@ frame_needed = 0, uses_anonymous_args = 0
 956              		@ link register save eliminated.
 922:Drivers/STM32F3xx_HAL_Driver/Src/stm32f3xx_hal_dac_ex.c ****   assert_param(IS_DAC_LFSR_UNMASK_TRIANGLE_AMPLITUDE(Amplitude));
 957              		.loc 1 922 3 view .LVU310
 923:Drivers/STM32F3xx_HAL_Driver/Src/stm32f3xx_hal_dac_ex.c **** 
 958              		.loc 1 923 3 view .LVU311
 926:Drivers/STM32F3xx_HAL_Driver/Src/stm32f3xx_hal_dac_ex.c **** 
 959              		.loc 1 926 3 view .LVU312
 926:Drivers/STM32F3xx_HAL_Driver/Src/stm32f3xx_hal_dac_ex.c **** 
 960              		.loc 1 926 3 view .LVU313
 961 0000 4379     		ldrb	r3, [r0, #5]	@ zero_extendqisi2
 962 0002 012B     		cmp	r3, #1
 963 0004 18D0     		beq	.L64
 926:Drivers/STM32F3xx_HAL_Driver/Src/stm32f3xx_hal_dac_ex.c **** 
 964              		.loc 1 926 3 discriminator 2 view .LVU314
 926:Drivers/STM32F3xx_HAL_Driver/Src/stm32f3xx_hal_dac_ex.c **** 
 965              		.loc 1 926 3 discriminator 2 view .LVU315
 929:Drivers/STM32F3xx_HAL_Driver/Src/stm32f3xx_hal_dac_ex.c **** 
 966              		.loc 1 929 3 discriminator 2 view .LVU316
 920:Drivers/STM32F3xx_HAL_Driver/Src/stm32f3xx_hal_dac_ex.c ****   /* Check the parameters */
 967              		.loc 1 920 1 is_stmt 0 discriminator 2 view .LVU317
 968 0006 10B4     		push	{r4}
 969              	.LCFI17:
 970              		.cfi_def_cfa_offset 4
 971              		.cfi_offset 4, -4
ARM GAS  /var/folders/b1/22c950295gx2kqj80tvj8wqc0000gn/T//ccfZwynw.s 			page 42


 929:Drivers/STM32F3xx_HAL_Driver/Src/stm32f3xx_hal_dac_ex.c **** 
 972              		.loc 1 929 15 discriminator 2 view .LVU318
 973 0008 0223     		movs	r3, #2
 932:Drivers/STM32F3xx_HAL_Driver/Src/stm32f3xx_hal_dac_ex.c ****   
 974              		.loc 1 932 3 discriminator 2 view .LVU319
 975 000a 0468     		ldr	r4, [r0]
 929:Drivers/STM32F3xx_HAL_Driver/Src/stm32f3xx_hal_dac_ex.c **** 
 976              		.loc 1 929 15 discriminator 2 view .LVU320
 977 000c 0371     		strb	r3, [r0, #4]
 932:Drivers/STM32F3xx_HAL_Driver/Src/stm32f3xx_hal_dac_ex.c ****   
 978              		.loc 1 932 3 is_stmt 1 discriminator 2 view .LVU321
 979 000e 2368     		ldr	r3, [r4]
 980 0010 42F04002 		orr	r2, r2, #64
 981              	.LVL88:
 932:Drivers/STM32F3xx_HAL_Driver/Src/stm32f3xx_hal_dac_ex.c ****   
 982              		.loc 1 932 3 is_stmt 0 discriminator 2 view .LVU322
 983 0014 4FF47C6C 		mov	ip, #4032
 984 0018 8A40     		lsls	r2, r2, r1
 985 001a 0CFA01F1 		lsl	r1, ip, r1
 986              	.LVL89:
 932:Drivers/STM32F3xx_HAL_Driver/Src/stm32f3xx_hal_dac_ex.c ****   
 987              		.loc 1 932 3 discriminator 2 view .LVU323
 988 001e 23EA0101 		bic	r1, r3, r1
 989 0022 41EA0203 		orr	r3, r1, r2
 938:Drivers/STM32F3xx_HAL_Driver/Src/stm32f3xx_hal_dac_ex.c **** 
 990              		.loc 1 938 3 discriminator 2 view .LVU324
 991 0026 0022     		movs	r2, #0
 935:Drivers/STM32F3xx_HAL_Driver/Src/stm32f3xx_hal_dac_ex.c **** 
 992              		.loc 1 935 15 discriminator 2 view .LVU325
 993 0028 0121     		movs	r1, #1
 932:Drivers/STM32F3xx_HAL_Driver/Src/stm32f3xx_hal_dac_ex.c ****   
 994              		.loc 1 932 3 discriminator 2 view .LVU326
 995 002a 2360     		str	r3, [r4]
 935:Drivers/STM32F3xx_HAL_Driver/Src/stm32f3xx_hal_dac_ex.c **** 
 996              		.loc 1 935 3 is_stmt 1 discriminator 2 view .LVU327
 935:Drivers/STM32F3xx_HAL_Driver/Src/stm32f3xx_hal_dac_ex.c **** 
 997              		.loc 1 935 15 is_stmt 0 discriminator 2 view .LVU328
 998 002c 0171     		strb	r1, [r0, #4]
 938:Drivers/STM32F3xx_HAL_Driver/Src/stm32f3xx_hal_dac_ex.c **** 
 999              		.loc 1 938 3 is_stmt 1 discriminator 2 view .LVU329
 938:Drivers/STM32F3xx_HAL_Driver/Src/stm32f3xx_hal_dac_ex.c **** 
 1000              		.loc 1 938 3 discriminator 2 view .LVU330
 1001 002e 4271     		strb	r2, [r0, #5]
 938:Drivers/STM32F3xx_HAL_Driver/Src/stm32f3xx_hal_dac_ex.c **** 
 1002              		.loc 1 938 3 discriminator 2 view .LVU331
 941:Drivers/STM32F3xx_HAL_Driver/Src/stm32f3xx_hal_dac_ex.c **** }
 1003              		.loc 1 941 3 discriminator 2 view .LVU332
 942:Drivers/STM32F3xx_HAL_Driver/Src/stm32f3xx_hal_dac_ex.c **** 
 1004              		.loc 1 942 1 is_stmt 0 discriminator 2 view .LVU333
 1005 0030 5DF8044B 		ldr	r4, [sp], #4
 1006              	.LCFI18:
 1007              		.cfi_restore 4
 1008              		.cfi_def_cfa_offset 0
 941:Drivers/STM32F3xx_HAL_Driver/Src/stm32f3xx_hal_dac_ex.c **** }
 1009              		.loc 1 941 10 discriminator 2 view .LVU334
 1010 0034 1046     		mov	r0, r2
 1011              	.LVL90:
ARM GAS  /var/folders/b1/22c950295gx2kqj80tvj8wqc0000gn/T//ccfZwynw.s 			page 43


 942:Drivers/STM32F3xx_HAL_Driver/Src/stm32f3xx_hal_dac_ex.c **** 
 1012              		.loc 1 942 1 discriminator 2 view .LVU335
 1013 0036 7047     		bx	lr
 1014              	.LVL91:
 1015              	.L64:
 926:Drivers/STM32F3xx_HAL_Driver/Src/stm32f3xx_hal_dac_ex.c **** 
 1016              		.loc 1 926 3 view .LVU336
 1017 0038 0220     		movs	r0, #2
 1018              	.LVL92:
 942:Drivers/STM32F3xx_HAL_Driver/Src/stm32f3xx_hal_dac_ex.c **** 
 1019              		.loc 1 942 1 view .LVU337
 1020 003a 7047     		bx	lr
 1021              		.cfi_endproc
 1022              	.LFE132:
 1024              		.section	.text.HAL_DACEx_ConvCpltCallbackCh2,"ax",%progbits
 1025              		.align	1
 1026              		.p2align 2,,3
 1027              		.weak	HAL_DACEx_ConvCpltCallbackCh2
 1028              		.syntax unified
 1029              		.thumb
 1030              		.thumb_func
 1032              	HAL_DACEx_ConvCpltCallbackCh2:
 1033              	.LVL93:
 1034              	.LFB133:
 956:Drivers/STM32F3xx_HAL_Driver/Src/stm32f3xx_hal_dac_ex.c ****   /* Prevent unused argument(s) compilation warning */
 1035              		.loc 1 956 1 is_stmt 1 view -0
 1036              		.cfi_startproc
 1037              		@ args = 0, pretend = 0, frame = 0
 1038              		@ frame_needed = 0, uses_anonymous_args = 0
 1039              		@ link register save eliminated.
 958:Drivers/STM32F3xx_HAL_Driver/Src/stm32f3xx_hal_dac_ex.c **** 
 1040              		.loc 1 958 3 view .LVU339
 963:Drivers/STM32F3xx_HAL_Driver/Src/stm32f3xx_hal_dac_ex.c **** 
 1041              		.loc 1 963 1 is_stmt 0 view .LVU340
 1042 0000 7047     		bx	lr
 1043              		.cfi_endproc
 1044              	.LFE133:
 1046 0002 00BF     		.section	.text.DAC_DMAConvCpltCh2,"ax",%progbits
 1047              		.align	1
 1048              		.p2align 2,,3
 1049              		.syntax unified
 1050              		.thumb
 1051              		.thumb_func
 1053              	DAC_DMAConvCpltCh2:
 1054              	.LVL94:
 1055              	.LFB140:
1083:Drivers/STM32F3xx_HAL_Driver/Src/stm32f3xx_hal_dac_ex.c **** 
1084:Drivers/STM32F3xx_HAL_Driver/Src/stm32f3xx_hal_dac_ex.c **** #if  defined(STM32F303xE) || defined(STM32F398xx)                         || \
1085:Drivers/STM32F3xx_HAL_Driver/Src/stm32f3xx_hal_dac_ex.c ****      defined(STM32F303xC) || defined(STM32F358xx)                         || \
1086:Drivers/STM32F3xx_HAL_Driver/Src/stm32f3xx_hal_dac_ex.c ****      defined(STM32F303x8) || defined(STM32F334x8) || defined(STM32F328xx) || \
1087:Drivers/STM32F3xx_HAL_Driver/Src/stm32f3xx_hal_dac_ex.c ****      defined(STM32F373xC) || defined(STM32F378xx)
1088:Drivers/STM32F3xx_HAL_Driver/Src/stm32f3xx_hal_dac_ex.c **** /* DAC channel 2 is available on top of DAC channel 1U */
1089:Drivers/STM32F3xx_HAL_Driver/Src/stm32f3xx_hal_dac_ex.c **** /**
1090:Drivers/STM32F3xx_HAL_Driver/Src/stm32f3xx_hal_dac_ex.c ****   * @brief  DMA conversion complete callback. 
1091:Drivers/STM32F3xx_HAL_Driver/Src/stm32f3xx_hal_dac_ex.c ****   * @param  hdma pointer to DMA handle.
1092:Drivers/STM32F3xx_HAL_Driver/Src/stm32f3xx_hal_dac_ex.c ****   * @retval None
1093:Drivers/STM32F3xx_HAL_Driver/Src/stm32f3xx_hal_dac_ex.c ****   */
ARM GAS  /var/folders/b1/22c950295gx2kqj80tvj8wqc0000gn/T//ccfZwynw.s 			page 44


1094:Drivers/STM32F3xx_HAL_Driver/Src/stm32f3xx_hal_dac_ex.c **** static void DAC_DMAConvCpltCh2(DMA_HandleTypeDef *hdma)   
1095:Drivers/STM32F3xx_HAL_Driver/Src/stm32f3xx_hal_dac_ex.c **** {
 1056              		.loc 1 1095 1 is_stmt 1 view -0
 1057              		.cfi_startproc
 1058              		@ args = 0, pretend = 0, frame = 0
 1059              		@ frame_needed = 0, uses_anonymous_args = 0
1096:Drivers/STM32F3xx_HAL_Driver/Src/stm32f3xx_hal_dac_ex.c ****   DAC_HandleTypeDef* hdac = ( DAC_HandleTypeDef* )((DMA_HandleTypeDef* )hdma)->Parent;
 1060              		.loc 1 1096 3 view .LVU342
1095:Drivers/STM32F3xx_HAL_Driver/Src/stm32f3xx_hal_dac_ex.c ****   DAC_HandleTypeDef* hdac = ( DAC_HandleTypeDef* )((DMA_HandleTypeDef* )hdma)->Parent;
 1061              		.loc 1 1095 1 is_stmt 0 view .LVU343
 1062 0000 10B5     		push	{r4, lr}
 1063              	.LCFI19:
 1064              		.cfi_def_cfa_offset 8
 1065              		.cfi_offset 4, -8
 1066              		.cfi_offset 14, -4
 1067              		.loc 1 1096 22 view .LVU344
 1068 0002 446A     		ldr	r4, [r0, #36]
 1069              	.LVL95:
1097:Drivers/STM32F3xx_HAL_Driver/Src/stm32f3xx_hal_dac_ex.c ****   
1098:Drivers/STM32F3xx_HAL_Driver/Src/stm32f3xx_hal_dac_ex.c **** #if (USE_HAL_DAC_REGISTER_CALLBACKS == 1)  
1099:Drivers/STM32F3xx_HAL_Driver/Src/stm32f3xx_hal_dac_ex.c ****   hdac->ConvCpltCallbackCh2(hdac);
1100:Drivers/STM32F3xx_HAL_Driver/Src/stm32f3xx_hal_dac_ex.c **** #else
1101:Drivers/STM32F3xx_HAL_Driver/Src/stm32f3xx_hal_dac_ex.c ****   HAL_DACEx_ConvCpltCallbackCh2(hdac); 
 1070              		.loc 1 1101 3 is_stmt 1 view .LVU345
 1071 0004 2046     		mov	r0, r4
 1072              	.LVL96:
 1073              		.loc 1 1101 3 is_stmt 0 view .LVU346
 1074 0006 FFF7FEFF 		bl	HAL_DACEx_ConvCpltCallbackCh2
 1075              	.LVL97:
1102:Drivers/STM32F3xx_HAL_Driver/Src/stm32f3xx_hal_dac_ex.c **** #endif
1103:Drivers/STM32F3xx_HAL_Driver/Src/stm32f3xx_hal_dac_ex.c ****   
1104:Drivers/STM32F3xx_HAL_Driver/Src/stm32f3xx_hal_dac_ex.c ****   hdac->State= HAL_DAC_STATE_READY;
 1076              		.loc 1 1104 3 is_stmt 1 view .LVU347
 1077              		.loc 1 1104 14 is_stmt 0 view .LVU348
 1078 000a 0123     		movs	r3, #1
 1079 000c 2371     		strb	r3, [r4, #4]
1105:Drivers/STM32F3xx_HAL_Driver/Src/stm32f3xx_hal_dac_ex.c **** }
 1080              		.loc 1 1105 1 view .LVU349
 1081 000e 10BD     		pop	{r4, pc}
 1082              		.loc 1 1105 1 view .LVU350
 1083              		.cfi_endproc
 1084              	.LFE140:
 1086              		.section	.text.HAL_DACEx_ConvHalfCpltCallbackCh2,"ax",%progbits
 1087              		.align	1
 1088              		.p2align 2,,3
 1089              		.weak	HAL_DACEx_ConvHalfCpltCallbackCh2
 1090              		.syntax unified
 1091              		.thumb
 1092              		.thumb_func
 1094              	HAL_DACEx_ConvHalfCpltCallbackCh2:
 1095              	.LFB144:
 1096              		.cfi_startproc
 1097              		@ args = 0, pretend = 0, frame = 0
 1098              		@ frame_needed = 0, uses_anonymous_args = 0
 1099              		@ link register save eliminated.
 1100 0000 7047     		bx	lr
 1101              		.cfi_endproc
ARM GAS  /var/folders/b1/22c950295gx2kqj80tvj8wqc0000gn/T//ccfZwynw.s 			page 45


 1102              	.LFE144:
 1104 0002 00BF     		.section	.text.DAC_DMAHalfConvCpltCh2,"ax",%progbits
 1105              		.align	1
 1106              		.p2align 2,,3
 1107              		.syntax unified
 1108              		.thumb
 1109              		.thumb_func
 1111              	DAC_DMAHalfConvCpltCh2:
 1112              	.LVL98:
 1113              	.LFB141:
1106:Drivers/STM32F3xx_HAL_Driver/Src/stm32f3xx_hal_dac_ex.c **** 
1107:Drivers/STM32F3xx_HAL_Driver/Src/stm32f3xx_hal_dac_ex.c **** /**
1108:Drivers/STM32F3xx_HAL_Driver/Src/stm32f3xx_hal_dac_ex.c ****   * @brief  DMA half transfer complete callback. 
1109:Drivers/STM32F3xx_HAL_Driver/Src/stm32f3xx_hal_dac_ex.c ****   * @param  hdma pointer to DMA handle.
1110:Drivers/STM32F3xx_HAL_Driver/Src/stm32f3xx_hal_dac_ex.c ****   * @retval None
1111:Drivers/STM32F3xx_HAL_Driver/Src/stm32f3xx_hal_dac_ex.c ****   */
1112:Drivers/STM32F3xx_HAL_Driver/Src/stm32f3xx_hal_dac_ex.c **** static void DAC_DMAHalfConvCpltCh2(DMA_HandleTypeDef *hdma)   
1113:Drivers/STM32F3xx_HAL_Driver/Src/stm32f3xx_hal_dac_ex.c **** {
 1114              		.loc 1 1113 1 is_stmt 1 view -0
 1115              		.cfi_startproc
 1116              		@ args = 0, pretend = 0, frame = 0
 1117              		@ frame_needed = 0, uses_anonymous_args = 0
1114:Drivers/STM32F3xx_HAL_Driver/Src/stm32f3xx_hal_dac_ex.c ****     DAC_HandleTypeDef* hdac = ( DAC_HandleTypeDef* )((DMA_HandleTypeDef* )hdma)->Parent;
 1118              		.loc 1 1114 5 view .LVU352
1115:Drivers/STM32F3xx_HAL_Driver/Src/stm32f3xx_hal_dac_ex.c **** 
1116:Drivers/STM32F3xx_HAL_Driver/Src/stm32f3xx_hal_dac_ex.c ****     /* Conversion complete callback */
1117:Drivers/STM32F3xx_HAL_Driver/Src/stm32f3xx_hal_dac_ex.c **** #if (USE_HAL_DAC_REGISTER_CALLBACKS == 1)  
1118:Drivers/STM32F3xx_HAL_Driver/Src/stm32f3xx_hal_dac_ex.c ****   hdac->ConvHalfCpltCallbackCh2(hdac);
1119:Drivers/STM32F3xx_HAL_Driver/Src/stm32f3xx_hal_dac_ex.c **** #else
1120:Drivers/STM32F3xx_HAL_Driver/Src/stm32f3xx_hal_dac_ex.c ****     HAL_DACEx_ConvHalfCpltCallbackCh2(hdac); 
 1119              		.loc 1 1120 5 view .LVU353
1113:Drivers/STM32F3xx_HAL_Driver/Src/stm32f3xx_hal_dac_ex.c ****     DAC_HandleTypeDef* hdac = ( DAC_HandleTypeDef* )((DMA_HandleTypeDef* )hdma)->Parent;
 1120              		.loc 1 1113 1 is_stmt 0 view .LVU354
 1121 0000 08B5     		push	{r3, lr}
 1122              	.LCFI20:
 1123              		.cfi_def_cfa_offset 8
 1124              		.cfi_offset 3, -8
 1125              		.cfi_offset 14, -4
 1126              		.loc 1 1120 5 view .LVU355
 1127 0002 406A     		ldr	r0, [r0, #36]
 1128              	.LVL99:
 1129              		.loc 1 1120 5 view .LVU356
 1130 0004 FFF7FEFF 		bl	HAL_DACEx_ConvHalfCpltCallbackCh2
 1131              	.LVL100:
1121:Drivers/STM32F3xx_HAL_Driver/Src/stm32f3xx_hal_dac_ex.c **** #endif
1122:Drivers/STM32F3xx_HAL_Driver/Src/stm32f3xx_hal_dac_ex.c **** }
 1132              		.loc 1 1122 1 view .LVU357
 1133 0008 08BD     		pop	{r3, pc}
 1134              		.cfi_endproc
 1135              	.LFE141:
 1137 000a 00BF     		.section	.text.HAL_DACEx_ErrorCallbackCh2,"ax",%progbits
 1138              		.align	1
 1139              		.p2align 2,,3
 1140              		.weak	HAL_DACEx_ErrorCallbackCh2
 1141              		.syntax unified
 1142              		.thumb
 1143              		.thumb_func
ARM GAS  /var/folders/b1/22c950295gx2kqj80tvj8wqc0000gn/T//ccfZwynw.s 			page 46


 1145              	HAL_DACEx_ErrorCallbackCh2:
 1146              	.LFB146:
 1147              		.cfi_startproc
 1148              		@ args = 0, pretend = 0, frame = 0
 1149              		@ frame_needed = 0, uses_anonymous_args = 0
 1150              		@ link register save eliminated.
 1151 0000 7047     		bx	lr
 1152              		.cfi_endproc
 1153              	.LFE146:
 1155 0002 00BF     		.section	.text.DAC_DMAErrorCh2,"ax",%progbits
 1156              		.align	1
 1157              		.p2align 2,,3
 1158              		.syntax unified
 1159              		.thumb
 1160              		.thumb_func
 1162              	DAC_DMAErrorCh2:
 1163              	.LVL101:
 1164              	.LFB142:
1123:Drivers/STM32F3xx_HAL_Driver/Src/stm32f3xx_hal_dac_ex.c **** 
1124:Drivers/STM32F3xx_HAL_Driver/Src/stm32f3xx_hal_dac_ex.c **** /**
1125:Drivers/STM32F3xx_HAL_Driver/Src/stm32f3xx_hal_dac_ex.c ****   * @brief  DMA error callback 
1126:Drivers/STM32F3xx_HAL_Driver/Src/stm32f3xx_hal_dac_ex.c ****   * @param  hdma pointer to DMA handle.
1127:Drivers/STM32F3xx_HAL_Driver/Src/stm32f3xx_hal_dac_ex.c ****   * @retval None
1128:Drivers/STM32F3xx_HAL_Driver/Src/stm32f3xx_hal_dac_ex.c ****   */
1129:Drivers/STM32F3xx_HAL_Driver/Src/stm32f3xx_hal_dac_ex.c **** static void DAC_DMAErrorCh2(DMA_HandleTypeDef *hdma)   
1130:Drivers/STM32F3xx_HAL_Driver/Src/stm32f3xx_hal_dac_ex.c **** {
 1165              		.loc 1 1130 1 is_stmt 1 view -0
 1166              		.cfi_startproc
 1167              		@ args = 0, pretend = 0, frame = 0
 1168              		@ frame_needed = 0, uses_anonymous_args = 0
1131:Drivers/STM32F3xx_HAL_Driver/Src/stm32f3xx_hal_dac_ex.c ****   DAC_HandleTypeDef* hdac = ( DAC_HandleTypeDef* )((DMA_HandleTypeDef* )hdma)->Parent;
 1169              		.loc 1 1131 3 view .LVU359
1130:Drivers/STM32F3xx_HAL_Driver/Src/stm32f3xx_hal_dac_ex.c ****   DAC_HandleTypeDef* hdac = ( DAC_HandleTypeDef* )((DMA_HandleTypeDef* )hdma)->Parent;
 1170              		.loc 1 1130 1 is_stmt 0 view .LVU360
 1171 0000 10B5     		push	{r4, lr}
 1172              	.LCFI21:
 1173              		.cfi_def_cfa_offset 8
 1174              		.cfi_offset 4, -8
 1175              		.cfi_offset 14, -4
 1176              		.loc 1 1131 22 view .LVU361
 1177 0002 446A     		ldr	r4, [r0, #36]
 1178              	.LVL102:
1132:Drivers/STM32F3xx_HAL_Driver/Src/stm32f3xx_hal_dac_ex.c ****     
1133:Drivers/STM32F3xx_HAL_Driver/Src/stm32f3xx_hal_dac_ex.c ****   /* Set DAC error code to DMA error */
1134:Drivers/STM32F3xx_HAL_Driver/Src/stm32f3xx_hal_dac_ex.c ****   hdac->ErrorCode |= HAL_DAC_ERROR_DMA;
 1179              		.loc 1 1134 3 is_stmt 1 view .LVU362
 1180              		.loc 1 1134 19 is_stmt 0 view .LVU363
 1181 0004 2369     		ldr	r3, [r4, #16]
 1182 0006 43F00403 		orr	r3, r3, #4
 1183 000a 2361     		str	r3, [r4, #16]
1135:Drivers/STM32F3xx_HAL_Driver/Src/stm32f3xx_hal_dac_ex.c ****     
1136:Drivers/STM32F3xx_HAL_Driver/Src/stm32f3xx_hal_dac_ex.c **** #if (USE_HAL_DAC_REGISTER_CALLBACKS == 1)
1137:Drivers/STM32F3xx_HAL_Driver/Src/stm32f3xx_hal_dac_ex.c ****   hdac->ErrorCallbackCh2(hdac);
1138:Drivers/STM32F3xx_HAL_Driver/Src/stm32f3xx_hal_dac_ex.c **** #else 
1139:Drivers/STM32F3xx_HAL_Driver/Src/stm32f3xx_hal_dac_ex.c ****   HAL_DACEx_ErrorCallbackCh2(hdac); 
 1184              		.loc 1 1139 3 is_stmt 1 view .LVU364
 1185 000c 2046     		mov	r0, r4
ARM GAS  /var/folders/b1/22c950295gx2kqj80tvj8wqc0000gn/T//ccfZwynw.s 			page 47


 1186              	.LVL103:
 1187              		.loc 1 1139 3 is_stmt 0 view .LVU365
 1188 000e FFF7FEFF 		bl	HAL_DACEx_ErrorCallbackCh2
 1189              	.LVL104:
1140:Drivers/STM32F3xx_HAL_Driver/Src/stm32f3xx_hal_dac_ex.c **** #endif
1141:Drivers/STM32F3xx_HAL_Driver/Src/stm32f3xx_hal_dac_ex.c ****     
1142:Drivers/STM32F3xx_HAL_Driver/Src/stm32f3xx_hal_dac_ex.c ****   hdac->State= HAL_DAC_STATE_READY;
 1190              		.loc 1 1142 3 is_stmt 1 view .LVU366
 1191              		.loc 1 1142 14 is_stmt 0 view .LVU367
 1192 0012 0123     		movs	r3, #1
 1193 0014 2371     		strb	r3, [r4, #4]
1143:Drivers/STM32F3xx_HAL_Driver/Src/stm32f3xx_hal_dac_ex.c **** }
 1194              		.loc 1 1143 1 view .LVU368
 1195 0016 10BD     		pop	{r4, pc}
 1196              		.loc 1 1143 1 view .LVU369
 1197              		.cfi_endproc
 1198              	.LFE142:
 1200              		.section	.text.HAL_DACEx_DMAUnderrunCallbackCh2,"ax",%progbits
 1201              		.align	1
 1202              		.p2align 2,,3
 1203              		.weak	HAL_DACEx_DMAUnderrunCallbackCh2
 1204              		.syntax unified
 1205              		.thumb
 1206              		.thumb_func
 1208              	HAL_DACEx_DMAUnderrunCallbackCh2:
 1209              	.LFB148:
 1210              		.cfi_startproc
 1211              		@ args = 0, pretend = 0, frame = 0
 1212              		@ frame_needed = 0, uses_anonymous_args = 0
 1213              		@ link register save eliminated.
 1214 0000 7047     		bx	lr
 1215              		.cfi_endproc
 1216              	.LFE148:
 1218 0002 00BF     		.section	.text.HAL_DAC_IRQHandler,"ax",%progbits
 1219              		.align	1
 1220              		.p2align 2,,3
 1221              		.global	HAL_DAC_IRQHandler
 1222              		.syntax unified
 1223              		.thumb
 1224              		.thumb_func
 1226              	HAL_DAC_IRQHandler:
 1227              	.LVL105:
 1228              	.LFB129:
 660:Drivers/STM32F3xx_HAL_Driver/Src/stm32f3xx_hal_dac_ex.c ****   if(__HAL_DAC_GET_IT_SOURCE(hdac, DAC_IT_DMAUDR1))
 1229              		.loc 1 660 1 is_stmt 1 view -0
 1230              		.cfi_startproc
 1231              		@ args = 0, pretend = 0, frame = 0
 1232              		@ frame_needed = 0, uses_anonymous_args = 0
 661:Drivers/STM32F3xx_HAL_Driver/Src/stm32f3xx_hal_dac_ex.c ****   { 
 1233              		.loc 1 661 3 view .LVU371
 661:Drivers/STM32F3xx_HAL_Driver/Src/stm32f3xx_hal_dac_ex.c ****   { 
 1234              		.loc 1 661 6 is_stmt 0 view .LVU372
 1235 0000 0368     		ldr	r3, [r0]
 1236 0002 1A68     		ldr	r2, [r3]
 661:Drivers/STM32F3xx_HAL_Driver/Src/stm32f3xx_hal_dac_ex.c ****   { 
 1237              		.loc 1 661 5 view .LVU373
 1238 0004 9104     		lsls	r1, r2, #18
ARM GAS  /var/folders/b1/22c950295gx2kqj80tvj8wqc0000gn/T//ccfZwynw.s 			page 48


 660:Drivers/STM32F3xx_HAL_Driver/Src/stm32f3xx_hal_dac_ex.c ****   if(__HAL_DAC_GET_IT_SOURCE(hdac, DAC_IT_DMAUDR1))
 1239              		.loc 1 660 1 view .LVU374
 1240 0006 10B5     		push	{r4, lr}
 1241              	.LCFI22:
 1242              		.cfi_def_cfa_offset 8
 1243              		.cfi_offset 4, -8
 1244              		.cfi_offset 14, -4
 660:Drivers/STM32F3xx_HAL_Driver/Src/stm32f3xx_hal_dac_ex.c ****   if(__HAL_DAC_GET_IT_SOURCE(hdac, DAC_IT_DMAUDR1))
 1245              		.loc 1 660 1 view .LVU375
 1246 0008 0446     		mov	r4, r0
 661:Drivers/STM32F3xx_HAL_Driver/Src/stm32f3xx_hal_dac_ex.c ****   { 
 1247              		.loc 1 661 5 view .LVU376
 1248 000a 02D5     		bpl	.L80
 664:Drivers/STM32F3xx_HAL_Driver/Src/stm32f3xx_hal_dac_ex.c ****     {
 1249              		.loc 1 664 5 is_stmt 1 view .LVU377
 664:Drivers/STM32F3xx_HAL_Driver/Src/stm32f3xx_hal_dac_ex.c ****     {
 1250              		.loc 1 664 8 is_stmt 0 view .LVU378
 1251 000c 5A6B     		ldr	r2, [r3, #52]
 664:Drivers/STM32F3xx_HAL_Driver/Src/stm32f3xx_hal_dac_ex.c ****     {
 1252              		.loc 1 664 7 view .LVU379
 1253 000e 9204     		lsls	r2, r2, #18
 1254 0010 17D4     		bmi	.L95
 1255              	.LVL106:
 1256              	.L80:
 687:Drivers/STM32F3xx_HAL_Driver/Src/stm32f3xx_hal_dac_ex.c ****   {
 1257              		.loc 1 687 3 is_stmt 1 view .LVU380
 687:Drivers/STM32F3xx_HAL_Driver/Src/stm32f3xx_hal_dac_ex.c ****   {
 1258              		.loc 1 687 6 is_stmt 0 view .LVU381
 1259 0012 1A68     		ldr	r2, [r3]
 687:Drivers/STM32F3xx_HAL_Driver/Src/stm32f3xx_hal_dac_ex.c ****   {
 1260              		.loc 1 687 5 view .LVU382
 1261 0014 9100     		lsls	r1, r2, #2
 1262 0016 02D5     		bpl	.L79
 690:Drivers/STM32F3xx_HAL_Driver/Src/stm32f3xx_hal_dac_ex.c ****     {
 1263              		.loc 1 690 5 is_stmt 1 view .LVU383
 690:Drivers/STM32F3xx_HAL_Driver/Src/stm32f3xx_hal_dac_ex.c ****     {
 1264              		.loc 1 690 9 is_stmt 0 view .LVU384
 1265 0018 5A6B     		ldr	r2, [r3, #52]
 690:Drivers/STM32F3xx_HAL_Driver/Src/stm32f3xx_hal_dac_ex.c ****     {
 1266              		.loc 1 690 8 view .LVU385
 1267 001a 9200     		lsls	r2, r2, #2
 1268 001c 00D4     		bmi	.L96
 1269              	.L79:
 712:Drivers/STM32F3xx_HAL_Driver/Src/stm32f3xx_hal_dac_ex.c **** #endif /* STM32F303xE || STM32F398xx                || */
 1270              		.loc 1 712 1 view .LVU386
 1271 001e 10BD     		pop	{r4, pc}
 1272              	.LVL107:
 1273              	.L96:
 693:Drivers/STM32F3xx_HAL_Driver/Src/stm32f3xx_hal_dac_ex.c ****     
 1274              		.loc 1 693 7 is_stmt 1 view .LVU387
 693:Drivers/STM32F3xx_HAL_Driver/Src/stm32f3xx_hal_dac_ex.c ****     
 1275              		.loc 1 693 19 is_stmt 0 view .LVU388
 1276 0020 0422     		movs	r2, #4
 1277 0022 2271     		strb	r2, [r4, #4]
 696:Drivers/STM32F3xx_HAL_Driver/Src/stm32f3xx_hal_dac_ex.c ****     
 1278              		.loc 1 696 7 is_stmt 1 view .LVU389
 1279 0024 2269     		ldr	r2, [r4, #16]
ARM GAS  /var/folders/b1/22c950295gx2kqj80tvj8wqc0000gn/T//ccfZwynw.s 			page 49


 699:Drivers/STM32F3xx_HAL_Driver/Src/stm32f3xx_hal_dac_ex.c ****     
 1280              		.loc 1 699 7 is_stmt 0 view .LVU390
 1281 0026 4FF00051 		mov	r1, #536870912
 696:Drivers/STM32F3xx_HAL_Driver/Src/stm32f3xx_hal_dac_ex.c ****     
 1282              		.loc 1 696 7 view .LVU391
 1283 002a 42F00202 		orr	r2, r2, #2
 1284 002e 2261     		str	r2, [r4, #16]
 699:Drivers/STM32F3xx_HAL_Driver/Src/stm32f3xx_hal_dac_ex.c ****     
 1285              		.loc 1 699 7 is_stmt 1 view .LVU392
 1286 0030 5963     		str	r1, [r3, #52]
 702:Drivers/STM32F3xx_HAL_Driver/Src/stm32f3xx_hal_dac_ex.c ****    
 1287              		.loc 1 702 7 view .LVU393
 1288 0032 1A68     		ldr	r2, [r3]
 1289 0034 22F08052 		bic	r2, r2, #268435456
 708:Drivers/STM32F3xx_HAL_Driver/Src/stm32f3xx_hal_dac_ex.c **** #endif
 1290              		.loc 1 708 7 is_stmt 0 view .LVU394
 1291 0038 2046     		mov	r0, r4
 702:Drivers/STM32F3xx_HAL_Driver/Src/stm32f3xx_hal_dac_ex.c ****    
 1292              		.loc 1 702 7 view .LVU395
 1293 003a 1A60     		str	r2, [r3]
 708:Drivers/STM32F3xx_HAL_Driver/Src/stm32f3xx_hal_dac_ex.c **** #endif
 1294              		.loc 1 708 7 is_stmt 1 view .LVU396
 1295 003c FFF7FEFF 		bl	HAL_DACEx_DMAUnderrunCallbackCh2
 1296              	.LVL108:
 712:Drivers/STM32F3xx_HAL_Driver/Src/stm32f3xx_hal_dac_ex.c **** #endif /* STM32F303xE || STM32F398xx                || */
 1297              		.loc 1 712 1 is_stmt 0 view .LVU397
 1298 0040 10BD     		pop	{r4, pc}
 1299              	.LVL109:
 1300              	.L95:
 667:Drivers/STM32F3xx_HAL_Driver/Src/stm32f3xx_hal_dac_ex.c ****     
 1301              		.loc 1 667 7 is_stmt 1 view .LVU398
 667:Drivers/STM32F3xx_HAL_Driver/Src/stm32f3xx_hal_dac_ex.c ****     
 1302              		.loc 1 667 19 is_stmt 0 view .LVU399
 1303 0042 0422     		movs	r2, #4
 1304 0044 0271     		strb	r2, [r0, #4]
 670:Drivers/STM32F3xx_HAL_Driver/Src/stm32f3xx_hal_dac_ex.c ****           
 1305              		.loc 1 670 7 is_stmt 1 view .LVU400
 1306 0046 0269     		ldr	r2, [r0, #16]
 673:Drivers/STM32F3xx_HAL_Driver/Src/stm32f3xx_hal_dac_ex.c ****     
 1307              		.loc 1 673 7 is_stmt 0 view .LVU401
 1308 0048 4FF40051 		mov	r1, #8192
 670:Drivers/STM32F3xx_HAL_Driver/Src/stm32f3xx_hal_dac_ex.c ****           
 1309              		.loc 1 670 7 view .LVU402
 1310 004c 42F00102 		orr	r2, r2, #1
 1311 0050 0261     		str	r2, [r0, #16]
 673:Drivers/STM32F3xx_HAL_Driver/Src/stm32f3xx_hal_dac_ex.c ****     
 1312              		.loc 1 673 7 is_stmt 1 view .LVU403
 1313 0052 5963     		str	r1, [r3, #52]
 676:Drivers/STM32F3xx_HAL_Driver/Src/stm32f3xx_hal_dac_ex.c ****     
 1314              		.loc 1 676 7 view .LVU404
 1315 0054 1A68     		ldr	r2, [r3]
 1316 0056 22F48052 		bic	r2, r2, #4096
 1317 005a 1A60     		str	r2, [r3]
 682:Drivers/STM32F3xx_HAL_Driver/Src/stm32f3xx_hal_dac_ex.c **** #endif
 1318              		.loc 1 682 7 view .LVU405
 1319 005c FFF7FEFF 		bl	HAL_DAC_DMAUnderrunCallbackCh1
 1320              	.LVL110:
ARM GAS  /var/folders/b1/22c950295gx2kqj80tvj8wqc0000gn/T//ccfZwynw.s 			page 50


 687:Drivers/STM32F3xx_HAL_Driver/Src/stm32f3xx_hal_dac_ex.c ****   {
 1321              		.loc 1 687 6 is_stmt 0 view .LVU406
 1322 0060 2368     		ldr	r3, [r4]
 1323 0062 D6E7     		b	.L80
 1324              		.cfi_endproc
 1325              	.LFE129:
 1327              		.text
 1328              	.Letext0:
 1329              		.file 2 "/Applications/ArmGNUToolchain/11.3.rel1/arm-none-eabi/arm-none-eabi/include/machine/_defa
 1330              		.file 3 "/Applications/ArmGNUToolchain/11.3.rel1/arm-none-eabi/arm-none-eabi/include/sys/_stdint.h
 1331              		.file 4 "Drivers/CMSIS/Device/ST/STM32F3xx/Include/stm32f334x8.h"
 1332              		.file 5 "Drivers/STM32F3xx_HAL_Driver/Inc/stm32f3xx_hal_def.h"
 1333              		.file 6 "Drivers/STM32F3xx_HAL_Driver/Inc/stm32f3xx_hal_dma.h"
 1334              		.file 7 "Drivers/STM32F3xx_HAL_Driver/Inc/stm32f3xx_hal_dac.h"
ARM GAS  /var/folders/b1/22c950295gx2kqj80tvj8wqc0000gn/T//ccfZwynw.s 			page 51


DEFINED SYMBOLS
                            *ABS*:0000000000000000 stm32f3xx_hal_dac_ex.c
/var/folders/b1/22c950295gx2kqj80tvj8wqc0000gn/T//ccfZwynw.s:20     .text.DAC_DMAErrorCh1:0000000000000000 $t
/var/folders/b1/22c950295gx2kqj80tvj8wqc0000gn/T//ccfZwynw.s:26     .text.DAC_DMAErrorCh1:0000000000000000 DAC_DMAErrorCh1
/var/folders/b1/22c950295gx2kqj80tvj8wqc0000gn/T//ccfZwynw.s:66     .text.DAC_DMAHalfConvCpltCh1:0000000000000000 $t
/var/folders/b1/22c950295gx2kqj80tvj8wqc0000gn/T//ccfZwynw.s:72     .text.DAC_DMAHalfConvCpltCh1:0000000000000000 DAC_DMAHalfConvCpltCh1
/var/folders/b1/22c950295gx2kqj80tvj8wqc0000gn/T//ccfZwynw.s:92     .text.DAC_DMAConvCpltCh1:0000000000000000 $t
/var/folders/b1/22c950295gx2kqj80tvj8wqc0000gn/T//ccfZwynw.s:98     .text.DAC_DMAConvCpltCh1:0000000000000000 DAC_DMAConvCpltCh1
/var/folders/b1/22c950295gx2kqj80tvj8wqc0000gn/T//ccfZwynw.s:132    .text.HAL_DAC_SetValue:0000000000000000 $t
/var/folders/b1/22c950295gx2kqj80tvj8wqc0000gn/T//ccfZwynw.s:139    .text.HAL_DAC_SetValue:0000000000000000 HAL_DAC_SetValue
/var/folders/b1/22c950295gx2kqj80tvj8wqc0000gn/T//ccfZwynw.s:220    .text.HAL_DACEx_DualSetValue:0000000000000000 $t
/var/folders/b1/22c950295gx2kqj80tvj8wqc0000gn/T//ccfZwynw.s:227    .text.HAL_DACEx_DualSetValue:0000000000000000 HAL_DACEx_DualSetValue
/var/folders/b1/22c950295gx2kqj80tvj8wqc0000gn/T//ccfZwynw.s:271    .text.HAL_DAC_Start:0000000000000000 $t
/var/folders/b1/22c950295gx2kqj80tvj8wqc0000gn/T//ccfZwynw.s:278    .text.HAL_DAC_Start:0000000000000000 HAL_DAC_Start
/var/folders/b1/22c950295gx2kqj80tvj8wqc0000gn/T//ccfZwynw.s:378    .text.HAL_DAC_Start_DMA:0000000000000000 $t
/var/folders/b1/22c950295gx2kqj80tvj8wqc0000gn/T//ccfZwynw.s:385    .text.HAL_DAC_Start_DMA:0000000000000000 HAL_DAC_Start_DMA
/var/folders/b1/22c950295gx2kqj80tvj8wqc0000gn/T//ccfZwynw.s:630    .text.HAL_DAC_Start_DMA:00000000000000f4 $d
/var/folders/b1/22c950295gx2kqj80tvj8wqc0000gn/T//ccfZwynw.s:1053   .text.DAC_DMAConvCpltCh2:0000000000000000 DAC_DMAConvCpltCh2
/var/folders/b1/22c950295gx2kqj80tvj8wqc0000gn/T//ccfZwynw.s:1111   .text.DAC_DMAHalfConvCpltCh2:0000000000000000 DAC_DMAHalfConvCpltCh2
/var/folders/b1/22c950295gx2kqj80tvj8wqc0000gn/T//ccfZwynw.s:1162   .text.DAC_DMAErrorCh2:0000000000000000 DAC_DMAErrorCh2
/var/folders/b1/22c950295gx2kqj80tvj8wqc0000gn/T//ccfZwynw.s:640    .text.HAL_DAC_GetValue:0000000000000000 $t
/var/folders/b1/22c950295gx2kqj80tvj8wqc0000gn/T//ccfZwynw.s:647    .text.HAL_DAC_GetValue:0000000000000000 HAL_DAC_GetValue
/var/folders/b1/22c950295gx2kqj80tvj8wqc0000gn/T//ccfZwynw.s:679    .text.HAL_DACEx_DualGetValue:0000000000000000 $t
/var/folders/b1/22c950295gx2kqj80tvj8wqc0000gn/T//ccfZwynw.s:686    .text.HAL_DACEx_DualGetValue:0000000000000000 HAL_DACEx_DualGetValue
/var/folders/b1/22c950295gx2kqj80tvj8wqc0000gn/T//ccfZwynw.s:715    .text.HAL_DAC_ConfigChannel:0000000000000000 $t
/var/folders/b1/22c950295gx2kqj80tvj8wqc0000gn/T//ccfZwynw.s:722    .text.HAL_DAC_ConfigChannel:0000000000000000 HAL_DAC_ConfigChannel
/var/folders/b1/22c950295gx2kqj80tvj8wqc0000gn/T//ccfZwynw.s:854    .text.HAL_DAC_ConfigChannel:0000000000000064 $d
/var/folders/b1/22c950295gx2kqj80tvj8wqc0000gn/T//ccfZwynw.s:859    .text.HAL_DACEx_TriangleWaveGenerate:0000000000000000 $t
/var/folders/b1/22c950295gx2kqj80tvj8wqc0000gn/T//ccfZwynw.s:866    .text.HAL_DACEx_TriangleWaveGenerate:0000000000000000 HAL_DACEx_TriangleWaveGenerate
/var/folders/b1/22c950295gx2kqj80tvj8wqc0000gn/T//ccfZwynw.s:942    .text.HAL_DACEx_NoiseWaveGenerate:0000000000000000 $t
/var/folders/b1/22c950295gx2kqj80tvj8wqc0000gn/T//ccfZwynw.s:949    .text.HAL_DACEx_NoiseWaveGenerate:0000000000000000 HAL_DACEx_NoiseWaveGenerate
/var/folders/b1/22c950295gx2kqj80tvj8wqc0000gn/T//ccfZwynw.s:1025   .text.HAL_DACEx_ConvCpltCallbackCh2:0000000000000000 $t
/var/folders/b1/22c950295gx2kqj80tvj8wqc0000gn/T//ccfZwynw.s:1032   .text.HAL_DACEx_ConvCpltCallbackCh2:0000000000000000 HAL_DACEx_ConvCpltCallbackCh2
/var/folders/b1/22c950295gx2kqj80tvj8wqc0000gn/T//ccfZwynw.s:1047   .text.DAC_DMAConvCpltCh2:0000000000000000 $t
/var/folders/b1/22c950295gx2kqj80tvj8wqc0000gn/T//ccfZwynw.s:1087   .text.HAL_DACEx_ConvHalfCpltCallbackCh2:0000000000000000 $t
/var/folders/b1/22c950295gx2kqj80tvj8wqc0000gn/T//ccfZwynw.s:1094   .text.HAL_DACEx_ConvHalfCpltCallbackCh2:0000000000000000 HAL_DACEx_ConvHalfCpltCallbackCh2
/var/folders/b1/22c950295gx2kqj80tvj8wqc0000gn/T//ccfZwynw.s:1105   .text.DAC_DMAHalfConvCpltCh2:0000000000000000 $t
/var/folders/b1/22c950295gx2kqj80tvj8wqc0000gn/T//ccfZwynw.s:1138   .text.HAL_DACEx_ErrorCallbackCh2:0000000000000000 $t
/var/folders/b1/22c950295gx2kqj80tvj8wqc0000gn/T//ccfZwynw.s:1145   .text.HAL_DACEx_ErrorCallbackCh2:0000000000000000 HAL_DACEx_ErrorCallbackCh2
/var/folders/b1/22c950295gx2kqj80tvj8wqc0000gn/T//ccfZwynw.s:1156   .text.DAC_DMAErrorCh2:0000000000000000 $t
/var/folders/b1/22c950295gx2kqj80tvj8wqc0000gn/T//ccfZwynw.s:1201   .text.HAL_DACEx_DMAUnderrunCallbackCh2:0000000000000000 $t
/var/folders/b1/22c950295gx2kqj80tvj8wqc0000gn/T//ccfZwynw.s:1208   .text.HAL_DACEx_DMAUnderrunCallbackCh2:0000000000000000 HAL_DACEx_DMAUnderrunCallbackCh2
/var/folders/b1/22c950295gx2kqj80tvj8wqc0000gn/T//ccfZwynw.s:1219   .text.HAL_DAC_IRQHandler:0000000000000000 $t
/var/folders/b1/22c950295gx2kqj80tvj8wqc0000gn/T//ccfZwynw.s:1226   .text.HAL_DAC_IRQHandler:0000000000000000 HAL_DAC_IRQHandler

UNDEFINED SYMBOLS
HAL_DAC_ErrorCallbackCh1
HAL_DAC_ConvHalfCpltCallbackCh1
HAL_DAC_ConvCpltCallbackCh1
HAL_DMA_Start_IT
HAL_DAC_DMAUnderrunCallbackCh1
